---
triple:          'x86_64-apple-darwin'
binary-path:     '/Users/macbookpro/Desktop/travel-plan-cpp-main/main'
relocations:
  - { offsetInCU: 0x52, offset: 0x52, size: 0x8, addend: 0x0, symName: _Ad, symObjAddr: 0x14C260, symBinAddr: 0x100028000, symSize: 0x0 }
  - { offsetInCU: 0x13C22, offset: 0x13C22, size: 0x8, addend: 0x0, symName: __ZNSt3__1L19piecewise_constructE, symObjAddr: 0x1F38C, symBinAddr: 0x1000226B4, symSize: 0x0 }
  - { offsetInCU: 0x14D76, offset: 0x14D76, size: 0x8, addend: 0x0, symName: __ZNSt3__124__put_character_sequenceB7v160006IcNS_11char_traitsIcEEEERNS_13basic_ostreamIT_T0_EES7_PKS4_m, symObjAddr: 0x12FE0, symBinAddr: 0x100016E60, symSize: 0x1F0 }
  - { offsetInCU: 0x1CB62, offset: 0x1CB62, size: 0x8, addend: 0x0, symName: __ZNSt3__1lsB7v160006INS_11char_traitsIcEEEERNS_13basic_ostreamIcT_EES6_PKc, symObjAddr: 0x11F0, symBinAddr: 0x100005070, symSize: 0x40 }
  - { offsetInCU: 0x1CBA8, offset: 0x1CBA8, size: 0x8, addend: 0x0, symName: __ZNSt3__1neB7v160006ERKNS_14__map_iteratorINS_15__tree_iteratorINS_12__value_typeINS_12basic_stringIcNS_11char_traitsIcEENS_9allocatorIcEEEENS_4listINS_4pairIS8_iEENS6_ISB_EEEEEEPNS_11__tree_nodeISE_PvEElEEEESM_, symObjAddr: 0x1970, symBinAddr: 0x1000057F0, symSize: 0x30 }
  - { offsetInCU: 0x1D2C9, offset: 0x1D2C9, size: 0x8, addend: 0x0, symName: __ZNSt3__19make_pairB7v160006IiRNS_12basic_stringIcNS_11char_traitsIcEENS_9allocatorIcEEEEEENS_4pairINS_18__unwrap_ref_decayIT_E4typeENS9_IT0_E4typeEEEOSA_OSD_, symObjAddr: 0x1B20, symBinAddr: 0x1000059A0, symSize: 0x40 }
  - { offsetInCU: 0x1D318, offset: 0x1D318, size: 0x8, addend: 0x0, symName: __ZNSt3__1neB7v160006ERKNS_15__list_iteratorINS_4pairINS_12basic_stringIcNS_11char_traitsIcEENS_9allocatorIcEEEEiEEPvEESC_, symObjAddr: 0x1DB0, symBinAddr: 0x100005C30, symSize: 0x30 }
  - { offsetInCU: 0x1D355, offset: 0x1D355, size: 0x8, addend: 0x0, symName: __ZNSt3__19make_pairB7v160006IRiRNS_12basic_stringIcNS_11char_traitsIcEENS_9allocatorIcEEEEEENS_4pairINS_18__unwrap_ref_decayIT_E4typeENSA_IT0_E4typeEEEOSB_OSE_, symObjAddr: 0x1E80, symBinAddr: 0x100005D00, symSize: 0x40 }
  - { offsetInCU: 0x1D3A4, offset: 0x1D3A4, size: 0x8, addend: 0x0, symName: __ZNSt3__1neB7v160006ERKNS_21__tree_const_iteratorINS_4pairIiNS_12basic_stringIcNS_11char_traitsIcEENS_9allocatorIcEEEEEEPNS_11__tree_nodeIS8_PvEElEESF_, symObjAddr: 0x1EC0, symBinAddr: 0x100005D40, symSize: 0x30 }
  - { offsetInCU: 0x1DD37, offset: 0x1DD37, size: 0x8, addend: 0x0, symName: __ZNSt3__1neB7v160006ERKNS_14__map_iteratorINS_15__tree_iteratorINS_12__value_typeINS_12basic_stringIcNS_11char_traitsIcEENS_9allocatorIcEEEENS_4listINS_4pairIS8_fEENS6_ISB_EEEEEEPNS_11__tree_nodeISE_PvEElEEEESM_, symObjAddr: 0x2740, symBinAddr: 0x1000065C0, symSize: 0x30 }
  - { offsetInCU: 0x1E458, offset: 0x1E458, size: 0x8, addend: 0x0, symName: __ZNSt3__19make_pairB7v160006IdRNS_12basic_stringIcNS_11char_traitsIcEENS_9allocatorIcEEEEEENS_4pairINS_18__unwrap_ref_decayIT_E4typeENS9_IT0_E4typeEEEOSA_OSD_, symObjAddr: 0x28F0, symBinAddr: 0x100006770, symSize: 0x40 }
  - { offsetInCU: 0x1E586, offset: 0x1E586, size: 0x8, addend: 0x0, symName: __ZNSt3__1neB7v160006ERKNS_15__list_iteratorINS_4pairINS_12basic_stringIcNS_11char_traitsIcEENS_9allocatorIcEEEEfEEPvEESC_, symObjAddr: 0x2B60, symBinAddr: 0x1000069E0, symSize: 0x30 }
  - { offsetInCU: 0x1E5C3, offset: 0x1E5C3, size: 0x8, addend: 0x0, symName: __ZNSt3__19make_pairB7v160006IRfRNS_12basic_stringIcNS_11char_traitsIcEENS_9allocatorIcEEEEEENS_4pairINS_18__unwrap_ref_decayIT_E4typeENSA_IT0_E4typeEEEOSB_OSE_, symObjAddr: 0x2C30, symBinAddr: 0x100006AB0, symSize: 0x40 }
  - { offsetInCU: 0x1E612, offset: 0x1E612, size: 0x8, addend: 0x0, symName: __ZNSt3__1neB7v160006ERKNS_21__tree_const_iteratorINS_4pairIfNS_12basic_stringIcNS_11char_traitsIcEENS_9allocatorIcEEEEEEPNS_11__tree_nodeIS8_PvEElEESF_, symObjAddr: 0x2C70, symBinAddr: 0x100006AF0, symSize: 0x30 }
  - { offsetInCU: 0x1F492, offset: 0x1F492, size: 0x8, addend: 0x0, symName: __ZNSt3__17getlineB7v160006IcNS_11char_traitsIcEENS_9allocatorIcEEEERNS_13basic_istreamIT_T0_EES9_RNS_12basic_stringIS6_S7_T1_EE, symObjAddr: 0x39A0, symBinAddr: 0x100007820, symSize: 0x50 }
  - { offsetInCU: 0x1F4EA, offset: 0x1F4EA, size: 0x8, addend: 0x0, symName: __ZNSt3__1rsB7v160006IcNS_11char_traitsIcEEEERNS_13basic_istreamIT_T0_EES7_RS4_, symObjAddr: 0x3AD0, symBinAddr: 0x100007950, symSize: 0x170 }
  - { offsetInCU: 0x1F6E2, offset: 0x1F6E2, size: 0x8, addend: 0x0, symName: __ZNSt3__1rsB7v160006IcNS_11char_traitsIcEENS_9allocatorIcEEEERNS_13basic_istreamIT_T0_EES9_RNS_12basic_stringIS6_S7_T1_EE, symObjAddr: 0x4160, symBinAddr: 0x100007FE0, symSize: 0x2D0 }
  - { offsetInCU: 0x1F7B1, offset: 0x1F7B1, size: 0x8, addend: 0x0, symName: __ZNSt3__14leftB7v160006ERNS_8ios_baseE, symObjAddr: 0x4B00, symBinAddr: 0x100008980, symSize: 0x30 }
  - { offsetInCU: 0x1F7DF, offset: 0x1F7DF, size: 0x8, addend: 0x0, symName: __ZNSt3__1lsB7v160006IcNS_11char_traitsIcEEEERNS_13basic_ostreamIT_T0_EES7_RKNS_8__iom_t6E, symObjAddr: 0x4B30, symBinAddr: 0x1000089B0, symSize: 0x40 }
  - { offsetInCU: 0x1F82E, offset: 0x1F82E, size: 0x8, addend: 0x0, symName: __ZNSt3__14setwB7v160006Ei, symObjAddr: 0x4B70, symBinAddr: 0x1000089F0, symSize: 0x20 }
  - { offsetInCU: 0x1F85C, offset: 0x1F85C, size: 0x8, addend: 0x0, symName: __ZNSt3__14endlB7v160006IcNS_11char_traitsIcEEEERNS_13basic_ostreamIT_T0_EES7_, symObjAddr: 0x4BB0, symBinAddr: 0x100008A30, symSize: 0x50 }
  - { offsetInCU: 0x1F89C, offset: 0x1F89C, size: 0x8, addend: 0x0, symName: __ZNSt3__1neB7v160006IcNS_11char_traitsIcEENS_9allocatorIcEEEEbRKNS_12basic_stringIT_T0_T1_EEPKS6_, symObjAddr: 0x5F70, symBinAddr: 0x100009DF0, symSize: 0x30 }
  - { offsetInCU: 0x1F8F4, offset: 0x1F8F4, size: 0x8, addend: 0x0, symName: __ZNSt3__1eqB7v160006INS_9allocatorIcEEEEbRKNS_12basic_stringIcNS_11char_traitsIcEET_EES9_, symObjAddr: 0x6080, symBinAddr: 0x100009F00, symSize: 0x110 }
  - { offsetInCU: 0x1F967, offset: 0x1F967, size: 0x8, addend: 0x0, symName: __ZNSt3__1lsB7v160006IcNS_11char_traitsIcEENS_9allocatorIcEEEERNS_13basic_ostreamIT_T0_EES9_RKNS_12basic_stringIS6_S7_T1_EE, symObjAddr: 0x6190, symBinAddr: 0x10000A010, symSize: 0x50 }
  - { offsetInCU: 0x1F9BF, offset: 0x1F9BF, size: 0x8, addend: 0x0, symName: __ZNSt3__1neB7v160006ERKNS_15__list_iteratorINS_12basic_stringIcNS_11char_traitsIcEENS_9allocatorIcEEEEPvEESA_, symObjAddr: 0x7C80, symBinAddr: 0x10000BB00, symSize: 0x30 }
  - { offsetInCU: 0x1F9FC, offset: 0x1F9FC, size: 0x8, addend: 0x0, symName: __ZNSt3__1eqB7v160006IcNS_11char_traitsIcEENS_9allocatorIcEEEEbPKT_RKNS_12basic_stringIS5_T0_T1_EE, symObjAddr: 0x8440, symBinAddr: 0x10000C2C0, symSize: 0x90 }
  - { offsetInCU: 0x1FA63, offset: 0x1FA63, size: 0x8, addend: 0x0, symName: __ZNSt3__1neB7v160006ERKNS_14__map_iteratorINS_15__tree_iteratorINS_12__value_typeINS_12basic_stringIcNS_11char_traitsIcEENS_9allocatorIcEEEEiEEPNS_11__tree_nodeIS9_PvEElEEEESH_, symObjAddr: 0x8530, symBinAddr: 0x10000C3B0, symSize: 0x30 }
  - { offsetInCU: 0x1FAA0, offset: 0x1FAA0, size: 0x8, addend: 0x0, symName: __ZNSt3__119__debug_db_insert_cB7v160006INS_4listINS_4pairINS_12basic_stringIcNS_11char_traitsIcEENS_9allocatorIcEEEEiEENS6_IS9_EEEEEEvPT_, symObjAddr: 0x8D80, symBinAddr: 0x10000CC00, symSize: 0x10 }
  - { offsetInCU: 0x1FAD1, offset: 0x1FAD1, size: 0x8, addend: 0x0, symName: __ZNSt3__1neB7v160006ERKNS_21__list_const_iteratorINS_4pairINS_12basic_stringIcNS_11char_traitsIcEENS_9allocatorIcEEEEiEEPvEESC_, symObjAddr: 0x8DF0, symBinAddr: 0x10000CC70, symSize: 0x30 }
  - { offsetInCU: 0x1FB41, offset: 0x1FB41, size: 0x8, addend: 0x0, symName: __ZNSt3__1eqB7v160006ERKNS_21__list_const_iteratorINS_4pairINS_12basic_stringIcNS_11char_traitsIcEENS_9allocatorIcEEEEiEEPvEESC_, symObjAddr: 0x9230, symBinAddr: 0x10000D0B0, symSize: 0x30 }
  - { offsetInCU: 0x1FB9C, offset: 0x1FB9C, size: 0x8, addend: 0x0, symName: __ZNSt3__117__libcpp_allocateB7v160006Emm, symObjAddr: 0x95E0, symBinAddr: 0x10000D460, symSize: 0x20 }
  - { offsetInCU: 0x1FBD9, offset: 0x1FBD9, size: 0x8, addend: 0x0, symName: __ZNSt3__121__libcpp_operator_newB7v160006IJmEEEPvDpT_, symObjAddr: 0x9620, symBinAddr: 0x10000D4A0, symSize: 0x20 }
  - { offsetInCU: 0x1FC12, offset: 0x1FC12, size: 0x8, addend: 0x0, symName: __ZNSt3__119__libcpp_deallocateB7v160006EPvmm, symObjAddr: 0x99A0, symBinAddr: 0x10000D820, symSize: 0x30 }
  - { offsetInCU: 0x1FC5A, offset: 0x1FC5A, size: 0x8, addend: 0x0, symName: __ZNSt3__127__do_deallocate_handle_sizeB7v160006IJEEEvPvmDpT_, symObjAddr: 0x99D0, symBinAddr: 0x10000D850, symSize: 0x20 }
  - { offsetInCU: 0x1FC98, offset: 0x1FC98, size: 0x8, addend: 0x0, symName: __ZNSt3__124__libcpp_operator_deleteB7v160006IJPvEEEvDpT_, symObjAddr: 0x99F0, symBinAddr: 0x10000D870, symSize: 0x20 }
  - { offsetInCU: 0x1FCCD, offset: 0x1FCCD, size: 0x8, addend: 0x0, symName: __ZNSt3__118__debug_db_erase_cB7v160006INS_10__list_impINS_4pairINS_12basic_stringIcNS_11char_traitsIcEENS_9allocatorIcEEEEiEENS6_IS9_EEEEEEvPT_, symObjAddr: 0x9B10, symBinAddr: 0x10000D990, symSize: 0x10 }
  - { offsetInCU: 0x1FCFE, offset: 0x1FCFE, size: 0x8, addend: 0x0, symName: __ZNSt3__125__debug_db_invalidate_allB7v160006INS_10__list_impINS_4pairINS_12basic_stringIcNS_11char_traitsIcEENS_9allocatorIcEEEEiEENS6_IS9_EEEEEEvPT_, symObjAddr: 0x9BB0, symBinAddr: 0x10000DA30, symSize: 0x10 }
  - { offsetInCU: 0x1FD2F, offset: 0x1FD2F, size: 0x8, addend: 0x0, symName: __ZNSt3__119__debug_db_insert_cB7v160006INS_4listINS_4pairINS_12basic_stringIcNS_11char_traitsIcEENS_9allocatorIcEEEEfEENS6_IS9_EEEEEEvPT_, symObjAddr: 0xA030, symBinAddr: 0x10000DEB0, symSize: 0x10 }
  - { offsetInCU: 0x1FD60, offset: 0x1FD60, size: 0x8, addend: 0x0, symName: __ZNSt3__1neB7v160006ERKNS_21__list_const_iteratorINS_4pairINS_12basic_stringIcNS_11char_traitsIcEENS_9allocatorIcEEEEfEEPvEESC_, symObjAddr: 0xA0A0, symBinAddr: 0x10000DF20, symSize: 0x30 }
  - { offsetInCU: 0x1FDD0, offset: 0x1FDD0, size: 0x8, addend: 0x0, symName: __ZNSt3__1eqB7v160006ERKNS_21__list_const_iteratorINS_4pairINS_12basic_stringIcNS_11char_traitsIcEENS_9allocatorIcEEEEfEEPvEESC_, symObjAddr: 0xA4B0, symBinAddr: 0x10000E330, symSize: 0x30 }
  - { offsetInCU: 0x1FE2B, offset: 0x1FE2B, size: 0x8, addend: 0x0, symName: __ZNSt3__118__debug_db_erase_cB7v160006INS_10__list_impINS_4pairINS_12basic_stringIcNS_11char_traitsIcEENS_9allocatorIcEEEEfEENS6_IS9_EEEEEEvPT_, symObjAddr: 0xAC90, symBinAddr: 0x10000EB10, symSize: 0x10 }
  - { offsetInCU: 0x1FE5C, offset: 0x1FE5C, size: 0x8, addend: 0x0, symName: __ZNSt3__125__debug_db_invalidate_allB7v160006INS_10__list_impINS_4pairINS_12basic_stringIcNS_11char_traitsIcEENS_9allocatorIcEEEEfEENS6_IS9_EEEEEEvPT_, symObjAddr: 0xAD30, symBinAddr: 0x10000EBB0, symSize: 0x10 }
  - { offsetInCU: 0x1FE8D, offset: 0x1FE8D, size: 0x8, addend: 0x0, symName: __ZNSt3__119__debug_db_insert_cB7v160006INS_12basic_stringIcNS_11char_traitsIcEENS_9allocatorIcEEEEEEvPT_, symObjAddr: 0xAFB0, symBinAddr: 0x10000EE30, symSize: 0x10 }
  - { offsetInCU: 0x1FEBE, offset: 0x1FEBE, size: 0x8, addend: 0x0, symName: __ZNSt3__115__debug_db_swapB7v160006INS_12basic_stringIcNS_11char_traitsIcEENS_9allocatorIcEEEEEEvPT_S8_, symObjAddr: 0xAFF0, symBinAddr: 0x10000EE70, symSize: 0x10 }
  - { offsetInCU: 0x1FF30, offset: 0x1FF30, size: 0x8, addend: 0x0, symName: __ZNSt3__1neB7v160006ERKNS_21__hash_const_iteratorIPNS_11__hash_nodeINS_17__hash_value_typeIcP9trie_nodeEEPvEEEESB_, symObjAddr: 0xB4F0, symBinAddr: 0x10000F370, symSize: 0x30 }
  - { offsetInCU: 0x1FF6D, offset: 0x1FF6D, size: 0x8, addend: 0x0, symName: __ZNSt3__1eqB7v160006ERKNS_21__hash_const_iteratorIPNS_11__hash_nodeINS_17__hash_value_typeIcP9trie_nodeEEPvEEEESB_, symObjAddr: 0xB6E0, symBinAddr: 0x10000F560, symSize: 0x30 }
  - { offsetInCU: 0x1FFAA, offset: 0x1FFAA, size: 0x8, addend: 0x0, symName: __ZNSt3__116__constrain_hashB7v160006Emm, symObjAddr: 0xB790, symBinAddr: 0x10000F610, symSize: 0x80 }
  - { offsetInCU: 0x2004E, offset: 0x2004E, size: 0x8, addend: 0x0, symName: __ZNSt3__116forward_as_tupleB7v160006IJRKcEEENS_5tupleIJDpOT_EEES6_, symObjAddr: 0xC090, symBinAddr: 0x10000FF10, symSize: 0x30 }
  - { offsetInCU: 0x20087, offset: 0x20087, size: 0x8, addend: 0x0, symName: __ZNSt3__116forward_as_tupleB7v160006IJEEENS_5tupleIJDpOT_EEES4_, symObjAddr: 0xC0C0, symBinAddr: 0x10000FF40, symSize: 0x10 }
  - { offsetInCU: 0x200AB, offset: 0x200AB, size: 0x8, addend: 0x0, symName: __ZNSt3__13maxB7v160006ImEERKT_S3_S3_, symObjAddr: 0xC310, symBinAddr: 0x100010190, symSize: 0x30 }
  - { offsetInCU: 0x200EE, offset: 0x200EE, size: 0x8, addend: 0x0, symName: __ZNSt3__116__is_hash_power2B7v160006Em, symObjAddr: 0xC340, symBinAddr: 0x1000101C0, symSize: 0x40 }
  - { offsetInCU: 0x20143, offset: 0x20143, size: 0x8, addend: 0x0, symName: __ZNSt3__13getB7v160006ILm0EJRKcEEERNS_13tuple_elementIXT_ENS_5tupleIJDpT0_EEEE4typeERS7_, symObjAddr: 0xC960, symBinAddr: 0x1000107E0, symSize: 0x20 }
  - { offsetInCU: 0x20186, offset: 0x20186, size: 0x8, addend: 0x0, symName: __ZNSt3__116__next_hash_pow2B7v160006Em, symObjAddr: 0xCEB0, symBinAddr: 0x100010D30, symSize: 0x60 }
  - { offsetInCU: 0x201B2, offset: 0x201B2, size: 0x8, addend: 0x0, symName: __ZNSt3__125__debug_db_invalidate_allB7v160006INS_12__hash_tableINS_17__hash_value_typeIcP9trie_nodeEENS_22__unordered_map_hasherIcS5_NS_4hashIcEENS_8equal_toIcEELb1EEENS_21__unordered_map_equalIcS5_SA_S8_Lb1EEENS_9allocatorIS5_EEEEEEvPT_, symObjAddr: 0xCF10, symBinAddr: 0x100010D90, symSize: 0x10 }
  - { offsetInCU: 0x201FF, offset: 0x201FF, size: 0x8, addend: 0x0, symName: __ZNSt3__112__libcpp_clzB7v160006Em, symObjAddr: 0xD220, symBinAddr: 0x1000110A0, symSize: 0x20 }
  - { offsetInCU: 0x2022B, offset: 0x2022B, size: 0x8, addend: 0x0, symName: __ZNSt3__13maxB7v160006ImNS_6__lessImmEEEERKT_S5_S5_T0_, symObjAddr: 0xD240, symBinAddr: 0x1000110C0, symSize: 0x50 }
  - { offsetInCU: 0x20317, offset: 0x20317, size: 0x8, addend: 0x0, symName: __ZNSt3__119__debug_db_insert_cB7v160006INS_13unordered_mapIcP9trie_nodeNS_4hashIcEENS_8equal_toIcEENS_9allocatorINS_4pairIKcS3_EEEEEEEEvPT_, symObjAddr: 0xD6D0, symBinAddr: 0x100011550, symSize: 0x10 }
  - { offsetInCU: 0x20348, offset: 0x20348, size: 0x8, addend: 0x0, symName: __ZNSt3__19make_pairB7v160006IRNS_12basic_stringIcNS_11char_traitsIcEENS_9allocatorIcEEEERiEENS_4pairINS_18__unwrap_ref_decayIT_E4typeENSA_IT0_E4typeEEEOSB_OSE_, symObjAddr: 0xE1F0, symBinAddr: 0x100012070, symSize: 0x40 }
  - { offsetInCU: 0x20397, offset: 0x20397, size: 0x8, addend: 0x0, symName: __ZNSt3__19make_pairB7v160006IRNS_12basic_stringIcNS_11char_traitsIcEENS_9allocatorIcEEEERfEENS_4pairINS_18__unwrap_ref_decayIT_E4typeENSA_IT0_E4typeEEEOSB_OSE_, symObjAddr: 0xE450, symBinAddr: 0x1000122D0, symSize: 0x40 }
  - { offsetInCU: 0x20419, offset: 0x20419, size: 0x8, addend: 0x0, symName: __ZNSt3__119__debug_db_insert_cB7v160006INS_4listINS_12basic_stringIcNS_11char_traitsIcEENS_9allocatorIcEEEENS5_IS7_EEEEEEvPT_, symObjAddr: 0xF4E0, symBinAddr: 0x100013360, symSize: 0x10 }
  - { offsetInCU: 0x2047D, offset: 0x2047D, size: 0x8, addend: 0x0, symName: __ZNSt3__118__debug_db_erase_cB7v160006INS_10__list_impINS_12basic_stringIcNS_11char_traitsIcEENS_9allocatorIcEEEENS5_IS7_EEEEEEvPT_, symObjAddr: 0xF800, symBinAddr: 0x100013680, symSize: 0x10 }
  - { offsetInCU: 0x204AE, offset: 0x204AE, size: 0x8, addend: 0x0, symName: __ZNSt3__125__debug_db_invalidate_allB7v160006INS_10__list_impINS_12basic_stringIcNS_11char_traitsIcEENS_9allocatorIcEEEENS5_IS7_EEEEEEvPT_, symObjAddr: 0xF960, symBinAddr: 0x1000137E0, symSize: 0x10 }
  - { offsetInCU: 0x204DF, offset: 0x204DF, size: 0x8, addend: 0x0, symName: __ZNSt3__1neB7v160006ERKNS_21__list_const_iteratorINS_12basic_stringIcNS_11char_traitsIcEENS_9allocatorIcEEEEPvEESA_, symObjAddr: 0xFCD0, symBinAddr: 0x100013B50, symSize: 0x30 }
  - { offsetInCU: 0x2051C, offset: 0x2051C, size: 0x8, addend: 0x0, symName: __ZNSt3__1eqB7v160006ERKNS_21__list_const_iteratorINS_12basic_stringIcNS_11char_traitsIcEENS_9allocatorIcEEEEPvEESA_, symObjAddr: 0xFFC0, symBinAddr: 0x100013E40, symSize: 0x30 }
  - { offsetInCU: 0x20577, offset: 0x20577, size: 0x8, addend: 0x0, symName: __ZNSt3__112__to_addressB7v160006IKcEEPT_S3_, symObjAddr: 0x10730, symBinAddr: 0x1000145B0, symSize: 0x10 }
  - { offsetInCU: 0x205DF, offset: 0x205DF, size: 0x8, addend: 0x0, symName: __ZNSt3__116forward_as_tupleB7v160006IJRKNS_12basic_stringIcNS_11char_traitsIcEENS_9allocatorIcEEEEEEENS_5tupleIJDpOT_EEESC_, symObjAddr: 0x108F0, symBinAddr: 0x100014770, symSize: 0x30 }
  - { offsetInCU: 0x20618, offset: 0x20618, size: 0x8, addend: 0x0, symName: __ZNSt3__1ltB7v160006IcNS_11char_traitsIcEENS_9allocatorIcEEEEbRKNS_12basic_stringIT_T0_T1_EESB_, symObjAddr: 0x10ED0, symBinAddr: 0x100014D50, symSize: 0x30 }
  - { offsetInCU: 0x20694, offset: 0x20694, size: 0x8, addend: 0x0, symName: __ZNSt3__13minB7v160006ImEERKT_S3_S3_, symObjAddr: 0x11170, symBinAddr: 0x100014FF0, symSize: 0x30 }
  - { offsetInCU: 0x206D7, offset: 0x206D7, size: 0x8, addend: 0x0, symName: __ZNSt3__118__constexpr_memcmpB7v160006IcEEiPKT_S3_m, symObjAddr: 0x111F0, symBinAddr: 0x100015070, symSize: 0x30 }
  - { offsetInCU: 0x20728, offset: 0x20728, size: 0x8, addend: 0x0, symName: __ZNSt3__13minB7v160006ImNS_6__lessImmEEEERKT_S5_S5_T0_, symObjAddr: 0x11220, symBinAddr: 0x1000150A0, symSize: 0x50 }
  - { offsetInCU: 0x207A0, offset: 0x207A0, size: 0x8, addend: 0x0, symName: __ZNSt3__13getB7v160006ILm0EJRKNS_12basic_stringIcNS_11char_traitsIcEENS_9allocatorIcEEEEEEERNS_13tuple_elementIXT_ENS_5tupleIJDpT0_EEEE4typeERSD_, symObjAddr: 0x116C0, symBinAddr: 0x100015540, symSize: 0x20 }
  - { offsetInCU: 0x207E3, offset: 0x207E3, size: 0x8, addend: 0x0, symName: __ZNSt3__127__tree_balance_after_insertB7v160006IPNS_16__tree_node_baseIPvEEEEvT_S5_, symObjAddr: 0x118C0, symBinAddr: 0x100015740, symSize: 0x320 }
  - { offsetInCU: 0x2085F, offset: 0x2085F, size: 0x8, addend: 0x0, symName: __ZNSt3__120__tree_is_left_childB7v160006IPNS_16__tree_node_baseIPvEEEEbT_, symObjAddr: 0x11C20, symBinAddr: 0x100015AA0, symSize: 0x30 }
  - { offsetInCU: 0x20894, offset: 0x20894, size: 0x8, addend: 0x0, symName: __ZNSt3__118__tree_left_rotateB7v160006IPNS_16__tree_node_baseIPvEEEEvT_, symObjAddr: 0x11C50, symBinAddr: 0x100015AD0, symSize: 0xD0 }
  - { offsetInCU: 0x208D6, offset: 0x208D6, size: 0x8, addend: 0x0, symName: __ZNSt3__119__tree_right_rotateB7v160006IPNS_16__tree_node_baseIPvEEEEvT_, symObjAddr: 0x11D20, symBinAddr: 0x100015BA0, symSize: 0xC0 }
  - { offsetInCU: 0x209B1, offset: 0x209B1, size: 0x8, addend: 0x0, symName: __ZNSt3__118__constexpr_strlenB7v160006EPKc, symObjAddr: 0x12FC0, symBinAddr: 0x100016E40, symSize: 0x20 }
  - { offsetInCU: 0x209DD, offset: 0x209DD, size: 0x8, addend: 0x0, symName: __ZNSt3__116__pad_and_outputB7v160006IcNS_11char_traitsIcEEEENS_19ostreambuf_iteratorIT_T0_EES6_PKS4_S8_S8_RNS_8ios_baseES4_, symObjAddr: 0x131F0, symBinAddr: 0x100017070, symSize: 0x220 }
  - { offsetInCU: 0x20AAD, offset: 0x20AAD, size: 0x8, addend: 0x0, symName: __ZNSt3__19use_facetB7v160006INS_5ctypeIcEEEERKT_RKNS_6localeE, symObjAddr: 0x13750, symBinAddr: 0x1000175D0, symSize: 0x30 }
  - { offsetInCU: 0x20E8D, offset: 0x20E8D, size: 0x8, addend: 0x0, symName: __ZNSt3__1neB7v160006ERKNS_15__tree_iteratorINS_12__value_typeINS_12basic_stringIcNS_11char_traitsIcEENS_9allocatorIcEEEENS_4listINS_4pairIS7_iEENS5_ISA_EEEEEEPNS_11__tree_nodeISD_PvEElEESK_, symObjAddr: 0x138E0, symBinAddr: 0x100017760, symSize: 0x30 }
  - { offsetInCU: 0x20ECA, offset: 0x20ECA, size: 0x8, addend: 0x0, symName: __ZNSt3__1eqB7v160006ERKNS_15__tree_iteratorINS_12__value_typeINS_12basic_stringIcNS_11char_traitsIcEENS_9allocatorIcEEEENS_4listINS_4pairIS7_iEENS5_ISA_EEEEEEPNS_11__tree_nodeISD_PvEElEESK_, symObjAddr: 0x13910, symBinAddr: 0x100017790, symSize: 0x30 }
  - { offsetInCU: 0x20F07, offset: 0x20F07, size: 0x8, addend: 0x0, symName: __ZNSt3__116__tree_next_iterB7v160006IPNS_15__tree_end_nodeIPNS_16__tree_node_baseIPvEEEES5_EET_T0_, symObjAddr: 0x13970, symBinAddr: 0x1000177F0, symSize: 0x80 }
  - { offsetInCU: 0x20F45, offset: 0x20F45, size: 0x8, addend: 0x0, symName: __ZNSt3__110__tree_minB7v160006IPNS_16__tree_node_baseIPvEEEET_S5_, symObjAddr: 0x139F0, symBinAddr: 0x100017870, symSize: 0x30 }
  - { offsetInCU: 0x20FCB, offset: 0x20FCB, size: 0x8, addend: 0x0, symName: __ZNSt3__1ltB7v160006IiNS_12basic_stringIcNS_11char_traitsIcEENS_9allocatorIcEEEEEEbRKNS_4pairIT_T0_EESC_, symObjAddr: 0x153B0, symBinAddr: 0x100019230, symSize: 0x70 }
  - { offsetInCU: 0x21089, offset: 0x21089, size: 0x8, addend: 0x0, symName: __ZNSt3__113__tree_removeB7v160006IPNS_16__tree_node_baseIPvEEEEvT_S5_, symObjAddr: 0x16B90, symBinAddr: 0x10001AA10, symSize: 0x5E0 }
  - { offsetInCU: 0x21107, offset: 0x21107, size: 0x8, addend: 0x0, symName: __ZNSt3__111__tree_nextB7v160006IPNS_16__tree_node_baseIPvEEEET_S5_, symObjAddr: 0x17170, symBinAddr: 0x10001AFF0, symSize: 0x80 }
  - { offsetInCU: 0x2113C, offset: 0x2113C, size: 0x8, addend: 0x0, symName: __ZNSt3__1eqB7v160006ERKNS_15__list_iteratorINS_4pairINS_12basic_stringIcNS_11char_traitsIcEENS_9allocatorIcEEEEiEEPvEESC_, symObjAddr: 0x172B0, symBinAddr: 0x10001B130, symSize: 0x30 }
  - { offsetInCU: 0x21179, offset: 0x21179, size: 0x8, addend: 0x0, symName: __ZNSt3__1neB7v160006ERKNS_15__tree_iteratorINS_4pairIiNS_12basic_stringIcNS_11char_traitsIcEENS_9allocatorIcEEEEEEPNS_11__tree_nodeIS8_PvEElEESF_, symObjAddr: 0x17450, symBinAddr: 0x10001B2D0, symSize: 0x30 }
  - { offsetInCU: 0x211B6, offset: 0x211B6, size: 0x8, addend: 0x0, symName: __ZNSt3__1eqB7v160006ERKNS_15__tree_iteratorINS_4pairIiNS_12basic_stringIcNS_11char_traitsIcEENS_9allocatorIcEEEEEEPNS_11__tree_nodeIS8_PvEElEESF_, symObjAddr: 0x174D0, symBinAddr: 0x10001B350, symSize: 0x30 }
  - { offsetInCU: 0x211F3, offset: 0x211F3, size: 0x8, addend: 0x0, symName: __ZNSt3__1eqB7v160006ERKNS_21__tree_const_iteratorINS_4pairIiNS_12basic_stringIcNS_11char_traitsIcEENS_9allocatorIcEEEEEEPNS_11__tree_nodeIS8_PvEElEESF_, symObjAddr: 0x17520, symBinAddr: 0x10001B3A0, symSize: 0x30 }
  - { offsetInCU: 0x21230, offset: 0x21230, size: 0x8, addend: 0x0, symName: __ZNSt3__119__debug_db_insert_cB7v160006INS_13unordered_mapINS_12basic_stringIcNS_11char_traitsIcEENS_9allocatorIcEEEEfNS_4hashIS7_EENS_8equal_toIS7_EENS5_INS_4pairIKS7_fEEEEEEEEvPT_, symObjAddr: 0x175B0, symBinAddr: 0x10001B430, symSize: 0x10 }
  - { offsetInCU: 0x21261, offset: 0x21261, size: 0x8, addend: 0x0, symName: __ZNSt3__118__debug_db_erase_cB7v160006INS_12__hash_tableINS_17__hash_value_typeINS_12basic_stringIcNS_11char_traitsIcEENS_9allocatorIcEEEEfEENS_22__unordered_map_hasherIS8_S9_NS_4hashIS8_EENS_8equal_toIS8_EELb1EEENS_21__unordered_map_equalIS8_S9_SE_SC_Lb1EEENS6_IS9_EEEEEEvPT_, symObjAddr: 0x17BF0, symBinAddr: 0x10001BA70, symSize: 0x10 }
  - { offsetInCU: 0x212C5, offset: 0x212C5, size: 0x8, addend: 0x0, symName: __ZNSt3__1neB7v160006ERKNS_15__tree_iteratorINS_12__value_typeINS_12basic_stringIcNS_11char_traitsIcEENS_9allocatorIcEEEENS_4listINS_4pairIS7_fEENS5_ISA_EEEEEEPNS_11__tree_nodeISD_PvEElEESK_, symObjAddr: 0x180F0, symBinAddr: 0x10001BF70, symSize: 0x30 }
  - { offsetInCU: 0x21302, offset: 0x21302, size: 0x8, addend: 0x0, symName: __ZNSt3__1eqB7v160006ERKNS_15__tree_iteratorINS_12__value_typeINS_12basic_stringIcNS_11char_traitsIcEENS_9allocatorIcEEEENS_4listINS_4pairIS7_fEENS5_ISA_EEEEEEPNS_11__tree_nodeISD_PvEElEESK_, symObjAddr: 0x18120, symBinAddr: 0x10001BFA0, symSize: 0x30 }
  - { offsetInCU: 0x2133F, offset: 0x2133F, size: 0x8, addend: 0x0, symName: __ZNSt3__116__do_string_hashB7v160006IPKcEEmT_S3_, symObjAddr: 0x18C50, symBinAddr: 0x10001CAD0, symSize: 0x40 }
  - { offsetInCU: 0x21385, offset: 0x21385, size: 0x8, addend: 0x0, symName: __ZNSt3__110__loadwordB7v160006ImEET_PKv, symObjAddr: 0x19540, symBinAddr: 0x10001D3C0, symSize: 0x20 }
  - { offsetInCU: 0x213C8, offset: 0x213C8, size: 0x8, addend: 0x0, symName: __ZNSt3__14swapB7v160006ImEENS_9enable_ifIXaasr21is_move_constructibleIT_EE5valuesr18is_move_assignableIS2_EE5valueEvE4typeERS2_S5_, symObjAddr: 0x19700, symBinAddr: 0x10001D580, symSize: 0x40 }
  - { offsetInCU: 0x21419, offset: 0x21419, size: 0x8, addend: 0x0, symName: __ZNSt3__110__loadwordB7v160006IjEET_PKv, symObjAddr: 0x19790, symBinAddr: 0x10001D610, symSize: 0x20 }
  - { offsetInCU: 0x2147A, offset: 0x2147A, size: 0x8, addend: 0x0, symName: __ZNSt3__125__debug_db_invalidate_allB7v160006INS_12__hash_tableINS_17__hash_value_typeINS_12basic_stringIcNS_11char_traitsIcEENS_9allocatorIcEEEEfEENS_22__unordered_map_hasherIS8_S9_NS_4hashIS8_EENS_8equal_toIS8_EELb1EEENS_21__unordered_map_equalIS8_S9_SE_SC_Lb1EEENS6_IS9_EEEEEEvPT_, symObjAddr: 0x1A2C0, symBinAddr: 0x10001E140, symSize: 0x10 }
  - { offsetInCU: 0x214DE, offset: 0x214DE, size: 0x8, addend: 0x0, symName: __ZNSt3__1ltB7v160006IfNS_12basic_stringIcNS_11char_traitsIcEENS_9allocatorIcEEEEEEbRKNS_4pairIT_T0_EESC_, symObjAddr: 0x1B0E0, symBinAddr: 0x10001EF60, symSize: 0x80 }
  - { offsetInCU: 0x2154B, offset: 0x2154B, size: 0x8, addend: 0x0, symName: __ZNSt3__1eqB7v160006ERKNS_15__list_iteratorINS_4pairINS_12basic_stringIcNS_11char_traitsIcEENS_9allocatorIcEEEEfEEPvEESC_, symObjAddr: 0x1BA90, symBinAddr: 0x10001F910, symSize: 0x30 }
  - { offsetInCU: 0x21588, offset: 0x21588, size: 0x8, addend: 0x0, symName: __ZNSt3__1neB7v160006ERKNS_15__tree_iteratorINS_4pairIfNS_12basic_stringIcNS_11char_traitsIcEENS_9allocatorIcEEEEEEPNS_11__tree_nodeIS8_PvEElEESF_, symObjAddr: 0x1BC30, symBinAddr: 0x10001FAB0, symSize: 0x30 }
  - { offsetInCU: 0x215C5, offset: 0x215C5, size: 0x8, addend: 0x0, symName: __ZNSt3__1eqB7v160006ERKNS_15__tree_iteratorINS_4pairIfNS_12basic_stringIcNS_11char_traitsIcEENS_9allocatorIcEEEEEEPNS_11__tree_nodeIS8_PvEElEESF_, symObjAddr: 0x1BCB0, symBinAddr: 0x10001FB30, symSize: 0x30 }
  - { offsetInCU: 0x21602, offset: 0x21602, size: 0x8, addend: 0x0, symName: __ZNSt3__1eqB7v160006ERKNS_21__tree_const_iteratorINS_4pairIfNS_12basic_stringIcNS_11char_traitsIcEENS_9allocatorIcEEEEEEPNS_11__tree_nodeIS8_PvEElEESF_, symObjAddr: 0x1BD00, symBinAddr: 0x10001FB80, symSize: 0x30 }
  - { offsetInCU: 0x2163F, offset: 0x2163F, size: 0x8, addend: 0x0, symName: __ZNSt3__17getlineB7v160006IcNS_11char_traitsIcEENS_9allocatorIcEEEERNS_13basic_istreamIT_T0_EES9_RNS_12basic_stringIS6_S7_T1_EES6_, symObjAddr: 0x1BF20, symBinAddr: 0x10001FDA0, symSize: 0x220 }
  - { offsetInCU: 0x216FD, offset: 0x216FD, size: 0x8, addend: 0x0, symName: __ZNSt3__125__debug_db_invalidate_allB7v160006INS_12basic_stringIcNS_11char_traitsIcEENS_9allocatorIcEEEEEEvPT_, symObjAddr: 0x1C3B0, symBinAddr: 0x100020230, symSize: 0x10 }
  - { offsetInCU: 0x2192F, offset: 0x2192F, size: 0x8, addend: 0x0, symName: __ZNSt3__1eqB7v160006IcNS_11char_traitsIcEENS_9allocatorIcEEEEbRKNS_12basic_stringIT_T0_T1_EEPKS6_, symObjAddr: 0x1CCC0, symBinAddr: 0x100020B40, symSize: 0x90 }
  - { offsetInCU: 0x21996, offset: 0x21996, size: 0x8, addend: 0x0, symName: __ZNSt3__1eqB7v160006ERKNS_15__list_iteratorINS_12basic_stringIcNS_11char_traitsIcEENS_9allocatorIcEEEEPvEESA_, symObjAddr: 0x1CF30, symBinAddr: 0x100020DB0, symSize: 0x30 }
  - { offsetInCU: 0x219D3, offset: 0x219D3, size: 0x8, addend: 0x0, symName: __ZNSt3__1neB7v160006ERKNS_15__tree_iteratorINS_12__value_typeINS_12basic_stringIcNS_11char_traitsIcEENS_9allocatorIcEEEEiEEPNS_11__tree_nodeIS8_PvEElEESF_, symObjAddr: 0x1D060, symBinAddr: 0x100020EE0, symSize: 0x30 }
  - { offsetInCU: 0x21A10, offset: 0x21A10, size: 0x8, addend: 0x0, symName: __ZNSt3__1eqB7v160006ERKNS_15__tree_iteratorINS_12__value_typeINS_12basic_stringIcNS_11char_traitsIcEENS_9allocatorIcEEEEiEEPNS_11__tree_nodeIS8_PvEElEESF_, symObjAddr: 0x1D090, symBinAddr: 0x100020F10, symSize: 0x30 }
  - { offsetInCU: 0x21E14, offset: 0x21E14, size: 0x8, addend: 0x0, symName: __ZSt28__throw_bad_array_new_lengthB7v160006v, symObjAddr: 0x95A0, symBinAddr: 0x10000D420, symSize: 0x40 }
  - { offsetInCU: 0x2200A, offset: 0x2200A, size: 0x8, addend: 0x0, symName: _Ag, symObjAddr: 0x14C380, symBinAddr: 0x100028120, symSize: 0x0 }
  - { offsetInCU: 0x220C1, offset: 0x220C1, size: 0x8, addend: 0x0, symName: _m, symObjAddr: 0x14C7B8, symBinAddr: 0x100028558, symSize: 0x0 }
  - { offsetInCU: 0x224B1, offset: 0x224B1, size: 0x8, addend: 0x0, symName: _CT, symObjAddr: 0x14C7D0, symBinAddr: 0x100028570, symSize: 0x0 }
  - { offsetInCU: 0x22A71, offset: 0x22A71, size: 0x8, addend: 0x0, symName: _cost_graph, symObjAddr: 0x14C7E0, symBinAddr: 0x100028580, symSize: 0x0 }
  - { offsetInCU: 0x2303C, offset: 0x2303C, size: 0x8, addend: 0x0, symName: _time_graph, symObjAddr: 0x14C800, symBinAddr: 0x1000285A0, symSize: 0x0 }
  - { offsetInCU: 0x235FE, offset: 0x235FE, size: 0x8, addend: 0x0, symName: _parent, symObjAddr: 0x14C820, symBinAddr: 0x1000285C0, symSize: 0x0 }
  - { offsetInCU: 0x23929, offset: 0x23929, size: 0x8, addend: 0x0, symName: _dist, symObjAddr: 0x14C838, symBinAddr: 0x1000285D8, symSize: 0x0 }
  - { offsetInCU: 0x2393E, offset: 0x2393E, size: 0x8, addend: 0x0, symName: _P, symObjAddr: 0x14C850, symBinAddr: 0x1000285F0, symSize: 0x0 }
  - { offsetInCU: 0x23BCE, offset: 0x23BCE, size: 0x8, addend: 0x0, symName: _admin_logged_in, symObjAddr: 0x14CA80, symBinAddr: 0x100028820, symSize: 0x0 }
  - { offsetInCU: 0x26A0F, offset: 0x26A0F, size: 0x8, addend: 0x0, symName: __Z9initPlansP4Plani, symObjAddr: 0x0, symBinAddr: 0x100003E80, symSize: 0x10B0 }
  - { offsetInCU: 0x26A46, offset: 0x26A46, size: 0x8, addend: 0x0, symName: __ZNSt3__112basic_stringIcNS_11char_traitsIcEENS_9allocatorIcEEEaSB7v160006EPKc, symObjAddr: 0x10B0, symBinAddr: 0x100004F30, symSize: 0x30 }
  - { offsetInCU: 0x26A7B, offset: 0x26A7B, size: 0x8, addend: 0x0, symName: __ZNSt3__14listINS_12basic_stringIcNS_11char_traitsIcEENS_9allocatorIcEEEENS4_IS6_EEE9push_backEOS6_, symObjAddr: 0x10E0, symBinAddr: 0x100004F60, symSize: 0xE0 }
  - { offsetInCU: 0x26AD5, offset: 0x26AD5, size: 0x8, addend: 0x0, symName: __ZNSt3__112basic_stringIcNS_11char_traitsIcEENS_9allocatorIcEEEC1B7v160006IDnEEPKc, symObjAddr: 0x11C0, symBinAddr: 0x100005040, symSize: 0x30 }
  - { offsetInCU: 0x26B12, offset: 0x26B12, size: 0x8, addend: 0x0, symName: __Z9dijk_costNSt3__112basic_stringIcNS_11char_traitsIcEENS_9allocatorIcEEEERNS_3mapIS5_S5_NS_4lessIS5_EENS3_INS_4pairIKS5_S5_EEEEEERNS6_IS5_iS8_NS3_INS9_ISA_iEEEEEERNS6_IS5_NS_4listINS9_IS5_iEENS3_ISK_EEEES8_NS3_INS9_ISA_SM_EEEEEE, symObjAddr: 0x1230, symBinAddr: 0x1000050B0, symSize: 0x6E0 }
  - { offsetInCU: 0x26C68, offset: 0x26C68, size: 0x8, addend: 0x0, symName: __ZNSt3__13mapINS_12basic_stringIcNS_11char_traitsIcEENS_9allocatorIcEEEENS_4listINS_4pairIS6_iEENS4_IS9_EEEENS_4lessIS6_EENS4_INS8_IKS6_SB_EEEEE5beginB7v160006Ev, symObjAddr: 0x1910, symBinAddr: 0x100005790, symSize: 0x30 }
  - { offsetInCU: 0x26C8E, offset: 0x26C8E, size: 0x8, addend: 0x0, symName: __ZNSt3__13mapINS_12basic_stringIcNS_11char_traitsIcEENS_9allocatorIcEEEENS_4listINS_4pairIS6_iEENS4_IS9_EEEENS_4lessIS6_EENS4_INS8_IKS6_SB_EEEEE3endB7v160006Ev, symObjAddr: 0x1940, symBinAddr: 0x1000057C0, symSize: 0x30 }
  - { offsetInCU: 0x26CB4, offset: 0x26CB4, size: 0x8, addend: 0x0, symName: __ZNKSt3__114__map_iteratorINS_15__tree_iteratorINS_12__value_typeINS_12basic_stringIcNS_11char_traitsIcEENS_9allocatorIcEEEENS_4listINS_4pairIS8_iEENS6_ISB_EEEEEEPNS_11__tree_nodeISE_PvEElEEEdeB7v160006Ev, symObjAddr: 0x19A0, symBinAddr: 0x100005820, symSize: 0x30 }
  - { offsetInCU: 0x26CDA, offset: 0x26CDA, size: 0x8, addend: 0x0, symName: __ZNSt3__14pairIKNS_12basic_stringIcNS_11char_traitsIcEENS_9allocatorIcEEEENS_4listINS0_IS6_iEENS4_IS9_EEEEEC1ERKSC_, symObjAddr: 0x19D0, symBinAddr: 0x100005850, symSize: 0x30 }
  - { offsetInCU: 0x26D0F, offset: 0x26D0F, size: 0x8, addend: 0x0, symName: __ZNSt3__13mapINS_12basic_stringIcNS_11char_traitsIcEENS_9allocatorIcEEEEiNS_4lessIS6_EENS4_INS_4pairIKS6_iEEEEEixERSA_, symObjAddr: 0x1A00, symBinAddr: 0x100005880, symSize: 0x70 }
  - { offsetInCU: 0x26D46, offset: 0x26D46, size: 0x8, addend: 0x0, symName: __ZNSt3__14pairIKNS_12basic_stringIcNS_11char_traitsIcEENS_9allocatorIcEEEENS_4listINS0_IS6_iEENS4_IS9_EEEEED1Ev, symObjAddr: 0x1A70, symBinAddr: 0x1000058F0, symSize: 0x20 }
  - { offsetInCU: 0x26D72, offset: 0x26D72, size: 0x8, addend: 0x0, symName: __ZNSt3__114__map_iteratorINS_15__tree_iteratorINS_12__value_typeINS_12basic_stringIcNS_11char_traitsIcEENS_9allocatorIcEEEENS_4listINS_4pairIS8_iEENS6_ISB_EEEEEEPNS_11__tree_nodeISE_PvEElEEEppB7v160006Ev, symObjAddr: 0x1A90, symBinAddr: 0x100005910, symSize: 0x30 }
  - { offsetInCU: 0x26E0B, offset: 0x26E0B, size: 0x8, addend: 0x0, symName: __ZNSt3__13setINS_4pairIiNS_12basic_stringIcNS_11char_traitsIcEENS_9allocatorIcEEEEEENS_4lessIS8_EENS5_IS8_EEEC1B7v160006Ev, symObjAddr: 0x1AC0, symBinAddr: 0x100005940, symSize: 0x20 }
  - { offsetInCU: 0x26E35, offset: 0x26E35, size: 0x8, addend: 0x0, symName: __ZNSt3__13setINS_4pairIiNS_12basic_stringIcNS_11char_traitsIcEENS_9allocatorIcEEEEEENS_4lessIS8_EENS5_IS8_EEE6insertB7v160006EOS8_, symObjAddr: 0x1AE0, symBinAddr: 0x100005960, symSize: 0x40 }
  - { offsetInCU: 0x26E6A, offset: 0x26E6A, size: 0x8, addend: 0x0, symName: __ZNSt3__14pairIiNS_12basic_stringIcNS_11char_traitsIcEENS_9allocatorIcEEEEED1Ev, symObjAddr: 0x1B60, symBinAddr: 0x1000059E0, symSize: 0x20 }
  - { offsetInCU: 0x26E96, offset: 0x26E96, size: 0x8, addend: 0x0, symName: __ZNSt3__13mapINS_12basic_stringIcNS_11char_traitsIcEENS_9allocatorIcEEEES6_NS_4lessIS6_EENS4_INS_4pairIKS6_S6_EEEEEixERSA_, symObjAddr: 0x1B80, symBinAddr: 0x100005A00, symSize: 0x70 }
  - { offsetInCU: 0x26ECD, offset: 0x26ECD, size: 0x8, addend: 0x0, symName: __ZNKSt3__13setINS_4pairIiNS_12basic_stringIcNS_11char_traitsIcEENS_9allocatorIcEEEEEENS_4lessIS8_EENS5_IS8_EEE5emptyB7v160006Ev, symObjAddr: 0x1BF0, symBinAddr: 0x100005A70, symSize: 0x30 }
  - { offsetInCU: 0x26EF3, offset: 0x26EF3, size: 0x8, addend: 0x0, symName: __ZNSt3__13setINS_4pairIiNS_12basic_stringIcNS_11char_traitsIcEENS_9allocatorIcEEEEEENS_4lessIS8_EENS5_IS8_EEE5beginB7v160006Ev, symObjAddr: 0x1C20, symBinAddr: 0x100005AA0, symSize: 0x30 }
  - { offsetInCU: 0x26F19, offset: 0x26F19, size: 0x8, addend: 0x0, symName: __ZNKSt3__121__tree_const_iteratorINS_4pairIiNS_12basic_stringIcNS_11char_traitsIcEENS_9allocatorIcEEEEEEPNS_11__tree_nodeIS8_PvEElEdeB7v160006Ev, symObjAddr: 0x1C50, symBinAddr: 0x100005AD0, symSize: 0x20 }
  - { offsetInCU: 0x26F3F, offset: 0x26F3F, size: 0x8, addend: 0x0, symName: __ZNSt3__14pairIiNS_12basic_stringIcNS_11char_traitsIcEENS_9allocatorIcEEEEEC1ERKS7_, symObjAddr: 0x1C70, symBinAddr: 0x100005AF0, symSize: 0x30 }
  - { offsetInCU: 0x26F74, offset: 0x26F74, size: 0x8, addend: 0x0, symName: __ZNSt3__13setINS_4pairIiNS_12basic_stringIcNS_11char_traitsIcEENS_9allocatorIcEEEEEENS_4lessIS8_EENS5_IS8_EEE5eraseB7v160006ENS_21__tree_const_iteratorIS8_PNS_11__tree_nodeIS8_PvEElEE, symObjAddr: 0x1CA0, symBinAddr: 0x100005B20, symSize: 0x40 }
  - { offsetInCU: 0x26FA9, offset: 0x26FA9, size: 0x8, addend: 0x0, symName: __ZNSt3__13mapINS_12basic_stringIcNS_11char_traitsIcEENS_9allocatorIcEEEENS_4listINS_4pairIS6_iEENS4_IS9_EEEENS_4lessIS6_EENS4_INS8_IKS6_SB_EEEEEixERSE_, symObjAddr: 0x1CE0, symBinAddr: 0x100005B60, symSize: 0x70 }
  - { offsetInCU: 0x26FE0, offset: 0x26FE0, size: 0x8, addend: 0x0, symName: __ZNSt3__14listINS_4pairINS_12basic_stringIcNS_11char_traitsIcEENS_9allocatorIcEEEEiEENS5_IS8_EEE5beginB7v160006Ev, symObjAddr: 0x1D50, symBinAddr: 0x100005BD0, symSize: 0x30 }
  - { offsetInCU: 0x27006, offset: 0x27006, size: 0x8, addend: 0x0, symName: __ZNSt3__14listINS_4pairINS_12basic_stringIcNS_11char_traitsIcEENS_9allocatorIcEEEEiEENS5_IS8_EEE3endB7v160006Ev, symObjAddr: 0x1D80, symBinAddr: 0x100005C00, symSize: 0x30 }
  - { offsetInCU: 0x2702C, offset: 0x2702C, size: 0x8, addend: 0x0, symName: __ZNKSt3__115__list_iteratorINS_4pairINS_12basic_stringIcNS_11char_traitsIcEENS_9allocatorIcEEEEiEEPvEdeB7v160006Ev, symObjAddr: 0x1DE0, symBinAddr: 0x100005C60, symSize: 0x30 }
  - { offsetInCU: 0x27052, offset: 0x27052, size: 0x8, addend: 0x0, symName: __ZNSt3__14pairINS_12basic_stringIcNS_11char_traitsIcEENS_9allocatorIcEEEEiEC1ERKS7_, symObjAddr: 0x1E10, symBinAddr: 0x100005C90, symSize: 0x30 }
  - { offsetInCU: 0x27087, offset: 0x27087, size: 0x8, addend: 0x0, symName: __ZNSt3__13setINS_4pairIiNS_12basic_stringIcNS_11char_traitsIcEENS_9allocatorIcEEEEEENS_4lessIS8_EENS5_IS8_EEE4findB7v160006ERKS8_, symObjAddr: 0x1E40, symBinAddr: 0x100005CC0, symSize: 0x40 }
  - { offsetInCU: 0x270BC, offset: 0x270BC, size: 0x8, addend: 0x0, symName: __ZNSt3__13setINS_4pairIiNS_12basic_stringIcNS_11char_traitsIcEENS_9allocatorIcEEEEEENS_4lessIS8_EENS5_IS8_EEE3endB7v160006Ev, symObjAddr: 0x1EF0, symBinAddr: 0x100005D70, symSize: 0x30 }
  - { offsetInCU: 0x270E2, offset: 0x270E2, size: 0x8, addend: 0x0, symName: __ZNSt3__14pairINS_12basic_stringIcNS_11char_traitsIcEENS_9allocatorIcEEEEiED1Ev, symObjAddr: 0x1F20, symBinAddr: 0x100005DA0, symSize: 0x20 }
  - { offsetInCU: 0x2710E, offset: 0x2710E, size: 0x8, addend: 0x0, symName: __ZNSt3__115__list_iteratorINS_4pairINS_12basic_stringIcNS_11char_traitsIcEENS_9allocatorIcEEEEiEEPvEppB7v160006Ev, symObjAddr: 0x1F40, symBinAddr: 0x100005DC0, symSize: 0x20 }
  - { offsetInCU: 0x27134, offset: 0x27134, size: 0x8, addend: 0x0, symName: __ZNSt3__13setINS_4pairIiNS_12basic_stringIcNS_11char_traitsIcEENS_9allocatorIcEEEEEENS_4lessIS8_EENS5_IS8_EEED1B7v160006Ev, symObjAddr: 0x1F60, symBinAddr: 0x100005DE0, symSize: 0x20 }
  - { offsetInCU: 0x2715D, offset: 0x2715D, size: 0x8, addend: 0x0, symName: __Z9dijk_timeNSt3__112basic_stringIcNS_11char_traitsIcEENS_9allocatorIcEEEES5_RNS_6vectorIS5_NS3_IS5_EEEERNS_3mapIS5_NS_4listINS_4pairIS5_fEENS3_ISD_EEEENS_4lessIS5_EENS3_INSC_IKS5_SF_EEEEEE, symObjAddr: 0x1F80, symBinAddr: 0x100005E00, symSize: 0x740 }
  - { offsetInCU: 0x27355, offset: 0x27355, size: 0x8, addend: 0x0, symName: __ZNSt3__113unordered_mapINS_12basic_stringIcNS_11char_traitsIcEENS_9allocatorIcEEEEfNS_4hashIS6_EENS_8equal_toIS6_EENS4_INS_4pairIKS6_fEEEEEC1B7v160006Ev, symObjAddr: 0x26C0, symBinAddr: 0x100006540, symSize: 0x20 }
  - { offsetInCU: 0x2737F, offset: 0x2737F, size: 0x8, addend: 0x0, symName: __ZNSt3__13mapINS_12basic_stringIcNS_11char_traitsIcEENS_9allocatorIcEEEENS_4listINS_4pairIS6_fEENS4_IS9_EEEENS_4lessIS6_EENS4_INS8_IKS6_SB_EEEEE5beginB7v160006Ev, symObjAddr: 0x26E0, symBinAddr: 0x100006560, symSize: 0x30 }
  - { offsetInCU: 0x273A5, offset: 0x273A5, size: 0x8, addend: 0x0, symName: __ZNSt3__13mapINS_12basic_stringIcNS_11char_traitsIcEENS_9allocatorIcEEEENS_4listINS_4pairIS6_fEENS4_IS9_EEEENS_4lessIS6_EENS4_INS8_IKS6_SB_EEEEE3endB7v160006Ev, symObjAddr: 0x2710, symBinAddr: 0x100006590, symSize: 0x30 }
  - { offsetInCU: 0x273CB, offset: 0x273CB, size: 0x8, addend: 0x0, symName: __ZNKSt3__114__map_iteratorINS_15__tree_iteratorINS_12__value_typeINS_12basic_stringIcNS_11char_traitsIcEENS_9allocatorIcEEEENS_4listINS_4pairIS8_fEENS6_ISB_EEEEEEPNS_11__tree_nodeISE_PvEElEEEdeB7v160006Ev, symObjAddr: 0x2770, symBinAddr: 0x1000065F0, symSize: 0x30 }
  - { offsetInCU: 0x273F1, offset: 0x273F1, size: 0x8, addend: 0x0, symName: __ZNSt3__14pairIKNS_12basic_stringIcNS_11char_traitsIcEENS_9allocatorIcEEEENS_4listINS0_IS6_fEENS4_IS9_EEEEEC1ERKSC_, symObjAddr: 0x27A0, symBinAddr: 0x100006620, symSize: 0x30 }
  - { offsetInCU: 0x27426, offset: 0x27426, size: 0x8, addend: 0x0, symName: __ZNSt3__113unordered_mapINS_12basic_stringIcNS_11char_traitsIcEENS_9allocatorIcEEEEfNS_4hashIS6_EENS_8equal_toIS6_EENS4_INS_4pairIKS6_fEEEEEixERSC_, symObjAddr: 0x27D0, symBinAddr: 0x100006650, symSize: 0x70 }
  - { offsetInCU: 0x2745D, offset: 0x2745D, size: 0x8, addend: 0x0, symName: __ZNSt3__14pairIKNS_12basic_stringIcNS_11char_traitsIcEENS_9allocatorIcEEEENS_4listINS0_IS6_fEENS4_IS9_EEEEED1Ev, symObjAddr: 0x2840, symBinAddr: 0x1000066C0, symSize: 0x20 }
  - { offsetInCU: 0x27489, offset: 0x27489, size: 0x8, addend: 0x0, symName: __ZNSt3__114__map_iteratorINS_15__tree_iteratorINS_12__value_typeINS_12basic_stringIcNS_11char_traitsIcEENS_9allocatorIcEEEENS_4listINS_4pairIS8_fEENS6_ISB_EEEEEEPNS_11__tree_nodeISE_PvEElEEEppB7v160006Ev, symObjAddr: 0x2860, symBinAddr: 0x1000066E0, symSize: 0x30 }
  - { offsetInCU: 0x27522, offset: 0x27522, size: 0x8, addend: 0x0, symName: __ZNSt3__13setINS_4pairIfNS_12basic_stringIcNS_11char_traitsIcEENS_9allocatorIcEEEEEENS_4lessIS8_EENS5_IS8_EEEC1B7v160006Ev, symObjAddr: 0x2890, symBinAddr: 0x100006710, symSize: 0x20 }
  - { offsetInCU: 0x2754C, offset: 0x2754C, size: 0x8, addend: 0x0, symName: __ZNSt3__13setINS_4pairIfNS_12basic_stringIcNS_11char_traitsIcEENS_9allocatorIcEEEEEENS_4lessIS8_EENS5_IS8_EEE6insertB7v160006EOS8_, symObjAddr: 0x28B0, symBinAddr: 0x100006730, symSize: 0x40 }
  - { offsetInCU: 0x2759A, offset: 0x2759A, size: 0x8, addend: 0x0, symName: __ZNSt3__14pairIfNS_12basic_stringIcNS_11char_traitsIcEENS_9allocatorIcEEEEEC1B7v160006IdS6_LPv0EEEONS0_IT_T0_EE, symObjAddr: 0x2930, symBinAddr: 0x1000067B0, symSize: 0x30 }
  - { offsetInCU: 0x275EB, offset: 0x275EB, size: 0x8, addend: 0x0, symName: __ZNSt3__14pairIfNS_12basic_stringIcNS_11char_traitsIcEENS_9allocatorIcEEEEED1Ev, symObjAddr: 0x2960, symBinAddr: 0x1000067E0, symSize: 0x20 }
  - { offsetInCU: 0x27617, offset: 0x27617, size: 0x8, addend: 0x0, symName: __ZNSt3__14pairIdNS_12basic_stringIcNS_11char_traitsIcEENS_9allocatorIcEEEEED1Ev, symObjAddr: 0x2980, symBinAddr: 0x100006800, symSize: 0x20 }
  - { offsetInCU: 0x27643, offset: 0x27643, size: 0x8, addend: 0x0, symName: __ZNKSt3__13setINS_4pairIfNS_12basic_stringIcNS_11char_traitsIcEENS_9allocatorIcEEEEEENS_4lessIS8_EENS5_IS8_EEE5emptyB7v160006Ev, symObjAddr: 0x29A0, symBinAddr: 0x100006820, symSize: 0x30 }
  - { offsetInCU: 0x27669, offset: 0x27669, size: 0x8, addend: 0x0, symName: __ZNSt3__13setINS_4pairIfNS_12basic_stringIcNS_11char_traitsIcEENS_9allocatorIcEEEEEENS_4lessIS8_EENS5_IS8_EEE5beginB7v160006Ev, symObjAddr: 0x29D0, symBinAddr: 0x100006850, symSize: 0x30 }
  - { offsetInCU: 0x2768F, offset: 0x2768F, size: 0x8, addend: 0x0, symName: __ZNKSt3__121__tree_const_iteratorINS_4pairIfNS_12basic_stringIcNS_11char_traitsIcEENS_9allocatorIcEEEEEEPNS_11__tree_nodeIS8_PvEElEdeB7v160006Ev, symObjAddr: 0x2A00, symBinAddr: 0x100006880, symSize: 0x20 }
  - { offsetInCU: 0x276B5, offset: 0x276B5, size: 0x8, addend: 0x0, symName: __ZNSt3__14pairIfNS_12basic_stringIcNS_11char_traitsIcEENS_9allocatorIcEEEEEC1ERKS7_, symObjAddr: 0x2A20, symBinAddr: 0x1000068A0, symSize: 0x30 }
  - { offsetInCU: 0x276EA, offset: 0x276EA, size: 0x8, addend: 0x0, symName: __ZNSt3__13setINS_4pairIfNS_12basic_stringIcNS_11char_traitsIcEENS_9allocatorIcEEEEEENS_4lessIS8_EENS5_IS8_EEE5eraseB7v160006ENS_21__tree_const_iteratorIS8_PNS_11__tree_nodeIS8_PvEElEE, symObjAddr: 0x2A50, symBinAddr: 0x1000068D0, symSize: 0x40 }
  - { offsetInCU: 0x2771F, offset: 0x2771F, size: 0x8, addend: 0x0, symName: __ZNSt3__13mapINS_12basic_stringIcNS_11char_traitsIcEENS_9allocatorIcEEEENS_4listINS_4pairIS6_fEENS4_IS9_EEEENS_4lessIS6_EENS4_INS8_IKS6_SB_EEEEEixERSE_, symObjAddr: 0x2A90, symBinAddr: 0x100006910, symSize: 0x70 }
  - { offsetInCU: 0x27756, offset: 0x27756, size: 0x8, addend: 0x0, symName: __ZNSt3__14listINS_4pairINS_12basic_stringIcNS_11char_traitsIcEENS_9allocatorIcEEEEfEENS5_IS8_EEE5beginB7v160006Ev, symObjAddr: 0x2B00, symBinAddr: 0x100006980, symSize: 0x30 }
  - { offsetInCU: 0x2777C, offset: 0x2777C, size: 0x8, addend: 0x0, symName: __ZNSt3__14listINS_4pairINS_12basic_stringIcNS_11char_traitsIcEENS_9allocatorIcEEEEfEENS5_IS8_EEE3endB7v160006Ev, symObjAddr: 0x2B30, symBinAddr: 0x1000069B0, symSize: 0x30 }
  - { offsetInCU: 0x277A2, offset: 0x277A2, size: 0x8, addend: 0x0, symName: __ZNKSt3__115__list_iteratorINS_4pairINS_12basic_stringIcNS_11char_traitsIcEENS_9allocatorIcEEEEfEEPvEdeB7v160006Ev, symObjAddr: 0x2B90, symBinAddr: 0x100006A10, symSize: 0x30 }
  - { offsetInCU: 0x277C8, offset: 0x277C8, size: 0x8, addend: 0x0, symName: __ZNSt3__14pairINS_12basic_stringIcNS_11char_traitsIcEENS_9allocatorIcEEEEfEC1ERKS7_, symObjAddr: 0x2BC0, symBinAddr: 0x100006A40, symSize: 0x30 }
  - { offsetInCU: 0x277FD, offset: 0x277FD, size: 0x8, addend: 0x0, symName: __ZNSt3__13setINS_4pairIfNS_12basic_stringIcNS_11char_traitsIcEENS_9allocatorIcEEEEEENS_4lessIS8_EENS5_IS8_EEE4findB7v160006ERKS8_, symObjAddr: 0x2BF0, symBinAddr: 0x100006A70, symSize: 0x40 }
  - { offsetInCU: 0x27832, offset: 0x27832, size: 0x8, addend: 0x0, symName: __ZNSt3__13setINS_4pairIfNS_12basic_stringIcNS_11char_traitsIcEENS_9allocatorIcEEEEEENS_4lessIS8_EENS5_IS8_EEE3endB7v160006Ev, symObjAddr: 0x2CA0, symBinAddr: 0x100006B20, symSize: 0x30 }
  - { offsetInCU: 0x27858, offset: 0x27858, size: 0x8, addend: 0x0, symName: __ZNSt3__14pairINS_12basic_stringIcNS_11char_traitsIcEENS_9allocatorIcEEEEfED1Ev, symObjAddr: 0x2CD0, symBinAddr: 0x100006B50, symSize: 0x20 }
  - { offsetInCU: 0x27884, offset: 0x27884, size: 0x8, addend: 0x0, symName: __ZNSt3__115__list_iteratorINS_4pairINS_12basic_stringIcNS_11char_traitsIcEENS_9allocatorIcEEEEfEEPvEppB7v160006Ev, symObjAddr: 0x2CF0, symBinAddr: 0x100006B70, symSize: 0x20 }
  - { offsetInCU: 0x278AA, offset: 0x278AA, size: 0x8, addend: 0x0, symName: __ZNSt3__13setINS_4pairIfNS_12basic_stringIcNS_11char_traitsIcEENS_9allocatorIcEEEEEENS_4lessIS8_EENS5_IS8_EEED1B7v160006Ev, symObjAddr: 0x2D10, symBinAddr: 0x100006B90, symSize: 0x20 }
  - { offsetInCU: 0x278D4, offset: 0x278D4, size: 0x8, addend: 0x0, symName: __ZNSt3__113unordered_mapINS_12basic_stringIcNS_11char_traitsIcEENS_9allocatorIcEEEEfNS_4hashIS6_EENS_8equal_toIS6_EENS4_INS_4pairIKS6_fEEEEED1B7v160006Ev, symObjAddr: 0x2D30, symBinAddr: 0x100006BB0, symSize: 0x20 }
  - { offsetInCU: 0x278FD, offset: 0x278FD, size: 0x8, addend: 0x0, symName: __Z13initCustomers4Trie, symObjAddr: 0x2D50, symBinAddr: 0x100006BD0, symSize: 0x1F0 }
  - { offsetInCU: 0x27A82, offset: 0x27A82, size: 0x8, addend: 0x0, symName: __ZNSt3__113basic_fstreamIcNS_11char_traitsIcEEEC1Ev, symObjAddr: 0x2F40, symBinAddr: 0x100006DC0, symSize: 0xF0 }
  - { offsetInCU: 0x27B63, offset: 0x27B63, size: 0x8, addend: 0x0, symName: __ZN8CustomerC1Ev, symObjAddr: 0x3030, symBinAddr: 0x100006EB0, symSize: 0x20 }
  - { offsetInCU: 0x27B8D, offset: 0x27B8D, size: 0x8, addend: 0x0, symName: __ZNSt3__113basic_fstreamIcNS_11char_traitsIcEEE4openEPKcj, symObjAddr: 0x3050, symBinAddr: 0x100006ED0, symSize: 0x70 }
  - { offsetInCU: 0x27BD3, offset: 0x27BD3, size: 0x8, addend: 0x0, symName: __ZN4Trie6insertENSt3__112basic_stringIcNS0_11char_traitsIcEENS0_9allocatorIcEEEE, symObjAddr: 0x30C0, symBinAddr: 0x100006F40, symSize: 0x160 }
  - { offsetInCU: 0x27C52, offset: 0x27C52, size: 0x8, addend: 0x0, symName: __ZNKSt3__19basic_iosIcNS_11char_traitsIcEEE3eofB7v160006Ev, symObjAddr: 0x3220, symBinAddr: 0x1000070A0, symSize: 0x20 }
  - { offsetInCU: 0x27C78, offset: 0x27C78, size: 0x8, addend: 0x0, symName: __ZNSt3__113basic_fstreamIcNS_11char_traitsIcEEE5closeEv, symObjAddr: 0x3240, symBinAddr: 0x1000070C0, symSize: 0x50 }
  - { offsetInCU: 0x27CA5, offset: 0x27CA5, size: 0x8, addend: 0x0, symName: __ZNSt3__113basic_fstreamIcNS_11char_traitsIcEEED1Ev, symObjAddr: 0x3290, symBinAddr: 0x100007110, symSize: 0x40 }
  - { offsetInCU: 0x27CD0, offset: 0x27CD0, size: 0x8, addend: 0x0, symName: __Z13createAccountR4Trie, symObjAddr: 0x32D0, symBinAddr: 0x100007150, symSize: 0x680 }
  - { offsetInCU: 0x27DA2, offset: 0x27DA2, size: 0x8, addend: 0x0, symName: __ZNSt3__19basic_iosIcNS_11char_traitsIcEEE5clearB7v160006Ej, symObjAddr: 0x3950, symBinAddr: 0x1000077D0, symSize: 0x30 }
  - { offsetInCU: 0x27DD7, offset: 0x27DD7, size: 0x8, addend: 0x0, symName: __ZNSt3__112basic_stringIcNS_11char_traitsIcEENS_9allocatorIcEEEC1B7v160006Ev, symObjAddr: 0x3980, symBinAddr: 0x100007800, symSize: 0x20 }
  - { offsetInCU: 0x27E01, offset: 0x27E01, size: 0x8, addend: 0x0, symName: __ZN4Trie6searchENSt3__112basic_stringIcNS0_11char_traitsIcEENS0_9allocatorIcEEEE, symObjAddr: 0x39F0, symBinAddr: 0x100007870, symSize: 0xE0 }
  - { offsetInCU: 0x27E7C, offset: 0x27E7C, size: 0x8, addend: 0x0, symName: __ZN8CustomerC1ENSt3__112basic_stringIcNS0_11char_traitsIcEENS0_9allocatorIcEEEES6_S6_S6_S6_, symObjAddr: 0x3C40, symBinAddr: 0x100007AC0, symSize: 0x30 }
  - { offsetInCU: 0x27EF0, offset: 0x27EF0, size: 0x8, addend: 0x0, symName: __Z10initAdminsP5Admin, symObjAddr: 0x3C70, symBinAddr: 0x100007AF0, symSize: 0x160 }
  - { offsetInCU: 0x27F51, offset: 0x27F51, size: 0x8, addend: 0x0, symName: __ZNSt3__114basic_ifstreamIcNS_11char_traitsIcEEEC1Ev, symObjAddr: 0x3DD0, symBinAddr: 0x100007C50, symSize: 0xE0 }
  - { offsetInCU: 0x27F7D, offset: 0x27F7D, size: 0x8, addend: 0x0, symName: __ZNSt3__114basic_ifstreamIcNS_11char_traitsIcEEE5closeEv, symObjAddr: 0x3EB0, symBinAddr: 0x100007D30, symSize: 0x50 }
  - { offsetInCU: 0x27FAA, offset: 0x27FAA, size: 0x8, addend: 0x0, symName: __ZNSt3__114basic_ifstreamIcNS_11char_traitsIcEEED1Ev, symObjAddr: 0x3F00, symBinAddr: 0x100007D80, symSize: 0x40 }
  - { offsetInCU: 0x27FD6, offset: 0x27FD6, size: 0x8, addend: 0x0, symName: __Z11login_adminP5Admini, symObjAddr: 0x3F40, symBinAddr: 0x100007DC0, symSize: 0x210 }
  - { offsetInCU: 0x28058, offset: 0x28058, size: 0x8, addend: 0x0, symName: __ZNSt3__111char_traitsIcE3eofEv, symObjAddr: 0x4150, symBinAddr: 0x100007FD0, symSize: 0x10 }
  - { offsetInCU: 0x2806C, offset: 0x2806C, size: 0x8, addend: 0x0, symName: __ZN5Admin5loginENSt3__112basic_stringIcNS0_11char_traitsIcEENS0_9allocatorIcEEEES6_, symObjAddr: 0x4430, symBinAddr: 0x1000082B0, symSize: 0x90 }
  - { offsetInCU: 0x280AF, offset: 0x280AF, size: 0x8, addend: 0x0, symName: __Z10initAgentsP5AgentRi, symObjAddr: 0x44C0, symBinAddr: 0x100008340, symSize: 0x1B0 }
  - { offsetInCU: 0x28105, offset: 0x28105, size: 0x8, addend: 0x0, symName: __Z12assign_AgentP5Agenti, symObjAddr: 0x4670, symBinAddr: 0x1000084F0, symSize: 0x60 }
  - { offsetInCU: 0x2814E, offset: 0x2814E, size: 0x8, addend: 0x0, symName: __ZN5Agent7getNameEv, symObjAddr: 0x46D0, symBinAddr: 0x100008550, symSize: 0x30 }
  - { offsetInCU: 0x28173, offset: 0x28173, size: 0x8, addend: 0x0, symName: __Z18view_all_customersv, symObjAddr: 0x4700, symBinAddr: 0x100008580, symSize: 0x3D0 }
  - { offsetInCU: 0x281BB, offset: 0x281BB, size: 0x8, addend: 0x0, symName: __ZNSt3__113basic_ostreamIcNS_11char_traitsIcEEElsB7v160006EPFRNS_8ios_baseES5_E, symObjAddr: 0x4AD0, symBinAddr: 0x100008950, symSize: 0x30 }
  - { offsetInCU: 0x281EF, offset: 0x281EF, size: 0x8, addend: 0x0, symName: __ZNSt3__113basic_ostreamIcNS_11char_traitsIcEEElsB7v160006EPFRS3_S4_E, symObjAddr: 0x4B90, symBinAddr: 0x100008A10, symSize: 0x20 }
  - { offsetInCU: 0x28222, offset: 0x28222, size: 0x8, addend: 0x0, symName: __Z17view_all_bookingsv, symObjAddr: 0x4C00, symBinAddr: 0x100008A80, symSize: 0x200 }
  - { offsetInCU: 0x28343, offset: 0x28343, size: 0x8, addend: 0x0, symName: __ZN7BookingC1Ev, symObjAddr: 0x4E00, symBinAddr: 0x100008C80, symSize: 0x20 }
  - { offsetInCU: 0x2836D, offset: 0x2836D, size: 0x8, addend: 0x0, symName: __ZN7Booking12printBookingEv, symObjAddr: 0x4E20, symBinAddr: 0x100008CA0, symSize: 0x1D0 }
  - { offsetInCU: 0x283AE, offset: 0x283AE, size: 0x8, addend: 0x0, symName: __Z8add_edgeR8GraphIntR10GraphFloat, symObjAddr: 0x4FF0, symBinAddr: 0x100008E70, symSize: 0x390 }
  - { offsetInCU: 0x284CF, offset: 0x284CF, size: 0x8, addend: 0x0, symName: __ZN4EdgeC1EPKcS1_if, symObjAddr: 0x5380, symBinAddr: 0x100009200, symSize: 0x40 }
  - { offsetInCU: 0x28531, offset: 0x28531, size: 0x8, addend: 0x0, symName: __ZN8GraphInt7addEdgeENSt3__112basic_stringIcNS0_11char_traitsIcEENS0_9allocatorIcEEEES6_i, symObjAddr: 0x53C0, symBinAddr: 0x100009240, symSize: 0x110 }
  - { offsetInCU: 0x28583, offset: 0x28583, size: 0x8, addend: 0x0, symName: __ZN10GraphFloat7addEdgeENSt3__112basic_stringIcNS0_11char_traitsIcEENS0_9allocatorIcEEEES6_f, symObjAddr: 0x54D0, symBinAddr: 0x100009350, symSize: 0x110 }
  - { offsetInCU: 0x285D5, offset: 0x285D5, size: 0x8, addend: 0x0, symName: __ZN5AdminC1Ev, symObjAddr: 0x55E0, symBinAddr: 0x100009460, symSize: 0x20 }
  - { offsetInCU: 0x28601, offset: 0x28601, size: 0x8, addend: 0x0, symName: __ZN5AdminD1Ev, symObjAddr: 0x5600, symBinAddr: 0x100009480, symSize: 0x20 }
  - { offsetInCU: 0x2862D, offset: 0x2862D, size: 0x8, addend: 0x0, symName: __ZN5AgentC1ENSt3__112basic_stringIcNS0_11char_traitsIcEENS0_9allocatorIcEEEES6_S6_, symObjAddr: 0x5620, symBinAddr: 0x1000094A0, symSize: 0x30 }
  - { offsetInCU: 0x28684, offset: 0x28684, size: 0x8, addend: 0x0, symName: __ZN5AgentD1Ev, symObjAddr: 0x5650, symBinAddr: 0x1000094D0, symSize: 0x20 }
  - { offsetInCU: 0x286B0, offset: 0x286B0, size: 0x8, addend: 0x0, symName: __ZNSt3__13mapINS_12basic_stringIcNS_11char_traitsIcEENS_9allocatorIcEEEEiNS_4lessIS6_EENS4_INS_4pairIKS6_iEEEEEC1B7v160006Ev, symObjAddr: 0x5670, symBinAddr: 0x1000094F0, symSize: 0x20 }
  - { offsetInCU: 0x286DA, offset: 0x286DA, size: 0x8, addend: 0x0, symName: __ZNSt3__13mapINS_12basic_stringIcNS_11char_traitsIcEENS_9allocatorIcEEEEiNS_4lessIS6_EENS4_INS_4pairIKS6_iEEEEED1B7v160006Ev, symObjAddr: 0x5690, symBinAddr: 0x100009510, symSize: 0x20 }
  - { offsetInCU: 0x28704, offset: 0x28704, size: 0x8, addend: 0x0, symName: __ZN4TrieC1Ev, symObjAddr: 0x56B0, symBinAddr: 0x100009530, symSize: 0x20 }
  - { offsetInCU: 0x2872E, offset: 0x2872E, size: 0x8, addend: 0x0, symName: __ZN8GraphIntC1Ev, symObjAddr: 0x56D0, symBinAddr: 0x100009550, symSize: 0x20 }
  - { offsetInCU: 0x2875A, offset: 0x2875A, size: 0x8, addend: 0x0, symName: __ZN8GraphIntD1Ev, symObjAddr: 0x56F0, symBinAddr: 0x100009570, symSize: 0x20 }
  - { offsetInCU: 0x28786, offset: 0x28786, size: 0x8, addend: 0x0, symName: __ZN10GraphFloatC1Ev, symObjAddr: 0x5710, symBinAddr: 0x100009590, symSize: 0x20 }
  - { offsetInCU: 0x287B2, offset: 0x287B2, size: 0x8, addend: 0x0, symName: __ZN10GraphFloatD1Ev, symObjAddr: 0x5730, symBinAddr: 0x1000095B0, symSize: 0x20 }
  - { offsetInCU: 0x287DE, offset: 0x287DE, size: 0x8, addend: 0x0, symName: __ZNSt3__13mapINS_12basic_stringIcNS_11char_traitsIcEENS_9allocatorIcEEEES6_NS_4lessIS6_EENS4_INS_4pairIKS6_S6_EEEEEC1B7v160006Ev, symObjAddr: 0x5750, symBinAddr: 0x1000095D0, symSize: 0x20 }
  - { offsetInCU: 0x28808, offset: 0x28808, size: 0x8, addend: 0x0, symName: __ZNSt3__13mapINS_12basic_stringIcNS_11char_traitsIcEENS_9allocatorIcEEEES6_NS_4lessIS6_EENS4_INS_4pairIKS6_S6_EEEEED1B7v160006Ev, symObjAddr: 0x5770, symBinAddr: 0x1000095F0, symSize: 0x20 }
  - { offsetInCU: 0x28837, offset: 0x28837, size: 0x8, addend: 0x0, symName: __ZN4PlanC1Ev, symObjAddr: 0x5790, symBinAddr: 0x100009610, symSize: 0x20 }
  - { offsetInCU: 0x28863, offset: 0x28863, size: 0x8, addend: 0x0, symName: __ZN4PlanD1Ev, symObjAddr: 0x57B0, symBinAddr: 0x100009630, symSize: 0x20 }
  - { offsetInCU: 0x2888E, offset: 0x2888E, size: 0x8, addend: 0x0, symName: __Z13initLocationsv, symObjAddr: 0x57D0, symBinAddr: 0x100009650, symSize: 0x7A0 }
  - { offsetInCU: 0x288CC, offset: 0x288CC, size: 0x8, addend: 0x0, symName: __Z10print_pathNSt3__112basic_stringIcNS_11char_traitsIcEENS_9allocatorIcEEEE, symObjAddr: 0x5FA0, symBinAddr: 0x100009E20, symSize: 0xE0 }
  - { offsetInCU: 0x288F5, offset: 0x288F5, size: 0x8, addend: 0x0, symName: __Z18visit_admin_portalv, symObjAddr: 0x61E0, symBinAddr: 0x10000A060, symSize: 0x290 }
  - { offsetInCU: 0x289A9, offset: 0x289A9, size: 0x8, addend: 0x0, symName: __Z5enterv, symObjAddr: 0x6470, symBinAddr: 0x10000A2F0, symSize: 0x120 }
  - { offsetInCU: 0x289D3, offset: 0x289D3, size: 0x8, addend: 0x0, symName: __Z11find_a_planv, symObjAddr: 0x6590, symBinAddr: 0x10000A410, symSize: 0x580 }
  - { offsetInCU: 0x28A95, offset: 0x28A95, size: 0x8, addend: 0x0, symName: __ZNKSt3__13mapINS_12basic_stringIcNS_11char_traitsIcEENS_9allocatorIcEEEEiNS_4lessIS6_EENS4_INS_4pairIKS6_iEEEEE5countB7v160006ERSA_, symObjAddr: 0x6B10, symBinAddr: 0x10000A990, symSize: 0x30 }
  - { offsetInCU: 0x28AC9, offset: 0x28AC9, size: 0x8, addend: 0x0, symName: __Z21visit_customer_portalv, symObjAddr: 0x6B40, symBinAddr: 0x10000A9C0, symSize: 0x6E0 }
  - { offsetInCU: 0x28C2E, offset: 0x28C2E, size: 0x8, addend: 0x0, symName: __Z11book_customR7BookingNSt3__112basic_stringIcNS1_11char_traitsIcEENS1_9allocatorIcEEEE, symObjAddr: 0x7220, symBinAddr: 0x10000B0A0, symSize: 0x480 }
  - { offsetInCU: 0x28CAD, offset: 0x28CAD, size: 0x8, addend: 0x0, symName: __Z20book_premade_package4PlanR7Booking, symObjAddr: 0x76A0, symBinAddr: 0x10000B520, symSize: 0x560 }
  - { offsetInCU: 0x28D72, offset: 0x28D72, size: 0x8, addend: 0x0, symName: __ZNKSt3__112basic_stringIcNS_11char_traitsIcEENS_9allocatorIcEEE5c_strB7v160006Ev, symObjAddr: 0x7C00, symBinAddr: 0x10000BA80, symSize: 0x20 }
  - { offsetInCU: 0x28D98, offset: 0x28D98, size: 0x8, addend: 0x0, symName: __ZNSt3__14listINS_12basic_stringIcNS_11char_traitsIcEENS_9allocatorIcEEEENS4_IS6_EEE5beginB7v160006Ev, symObjAddr: 0x7C20, symBinAddr: 0x10000BAA0, symSize: 0x30 }
  - { offsetInCU: 0x28DBE, offset: 0x28DBE, size: 0x8, addend: 0x0, symName: __ZNSt3__14listINS_12basic_stringIcNS_11char_traitsIcEENS_9allocatorIcEEEENS4_IS6_EEE3endB7v160006Ev, symObjAddr: 0x7C50, symBinAddr: 0x10000BAD0, symSize: 0x30 }
  - { offsetInCU: 0x28DE4, offset: 0x28DE4, size: 0x8, addend: 0x0, symName: __ZNKSt3__115__list_iteratorINS_12basic_stringIcNS_11char_traitsIcEENS_9allocatorIcEEEEPvEdeB7v160006Ev, symObjAddr: 0x7CB0, symBinAddr: 0x10000BB30, symSize: 0x30 }
  - { offsetInCU: 0x28E0A, offset: 0x28E0A, size: 0x8, addend: 0x0, symName: __ZNSt3__115__list_iteratorINS_12basic_stringIcNS_11char_traitsIcEENS_9allocatorIcEEEEPvEppB7v160006Ev, symObjAddr: 0x7CE0, symBinAddr: 0x10000BB60, symSize: 0x20 }
  - { offsetInCU: 0x28E2F, offset: 0x28E2F, size: 0x8, addend: 0x0, symName: __Z14book_a_packagev, symObjAddr: 0x7D00, symBinAddr: 0x10000BB80, symSize: 0x480 }
  - { offsetInCU: 0x28F3B, offset: 0x28F3B, size: 0x8, addend: 0x0, symName: __ZN4PlanC1ERKS_, symObjAddr: 0x8180, symBinAddr: 0x10000C000, symSize: 0x30 }
  - { offsetInCU: 0x28F6F, offset: 0x28F6F, size: 0x8, addend: 0x0, symName: __Z14customer_loginRNSt3__112basic_stringIcNS_11char_traitsIcEENS_9allocatorIcEEEE, symObjAddr: 0x81B0, symBinAddr: 0x10000C030, symSize: 0x290 }
  - { offsetInCU: 0x28FEF, offset: 0x28FEF, size: 0x8, addend: 0x0, symName: __ZNSt3__13mapINS_12basic_stringIcNS_11char_traitsIcEENS_9allocatorIcEEEEiNS_4lessIS6_EENS4_INS_4pairIKS6_iEEEEE5beginB7v160006Ev, symObjAddr: 0x84D0, symBinAddr: 0x10000C350, symSize: 0x30 }
  - { offsetInCU: 0x29015, offset: 0x29015, size: 0x8, addend: 0x0, symName: __ZNSt3__13mapINS_12basic_stringIcNS_11char_traitsIcEENS_9allocatorIcEEEEiNS_4lessIS6_EENS4_INS_4pairIKS6_iEEEEE3endB7v160006Ev, symObjAddr: 0x8500, symBinAddr: 0x10000C380, symSize: 0x30 }
  - { offsetInCU: 0x2903B, offset: 0x2903B, size: 0x8, addend: 0x0, symName: __ZNKSt3__114__map_iteratorINS_15__tree_iteratorINS_12__value_typeINS_12basic_stringIcNS_11char_traitsIcEENS_9allocatorIcEEEEiEEPNS_11__tree_nodeIS9_PvEElEEEdeB7v160006Ev, symObjAddr: 0x8560, symBinAddr: 0x10000C3E0, symSize: 0x30 }
  - { offsetInCU: 0x29061, offset: 0x29061, size: 0x8, addend: 0x0, symName: __ZNSt3__14pairIKNS_12basic_stringIcNS_11char_traitsIcEENS_9allocatorIcEEEEiEC1ERKS8_, symObjAddr: 0x8590, symBinAddr: 0x10000C410, symSize: 0x30 }
  - { offsetInCU: 0x29096, offset: 0x29096, size: 0x8, addend: 0x0, symName: __ZNSt3__14pairIKNS_12basic_stringIcNS_11char_traitsIcEENS_9allocatorIcEEEEiED1Ev, symObjAddr: 0x85C0, symBinAddr: 0x10000C440, symSize: 0x20 }
  - { offsetInCU: 0x290C2, offset: 0x290C2, size: 0x8, addend: 0x0, symName: __ZNSt3__114__map_iteratorINS_15__tree_iteratorINS_12__value_typeINS_12basic_stringIcNS_11char_traitsIcEENS_9allocatorIcEEEEiEEPNS_11__tree_nodeIS9_PvEElEEEppB7v160006Ev, symObjAddr: 0x85E0, symBinAddr: 0x10000C460, symSize: 0x30 }
  - { offsetInCU: 0x290E7, offset: 0x290E7, size: 0x8, addend: 0x0, symName: __Z10initGraphsv, symObjAddr: 0x8610, symBinAddr: 0x10000C490, symSize: 0x310 }
  - { offsetInCU: 0x29133, offset: 0x29133, size: 0x8, addend: 0x0, symName: _main, symObjAddr: 0x8920, symBinAddr: 0x10000C7A0, symSize: 0x250 }
  - { offsetInCU: 0x291B0, offset: 0x291B0, size: 0x8, addend: 0x0, symName: __ZNSt3__14pairIKNS_12basic_stringIcNS_11char_traitsIcEENS_9allocatorIcEEEENS_4listINS0_IS6_iEENS4_IS9_EEEEEC2ERKSC_, symObjAddr: 0x8B70, symBinAddr: 0x10000C9F0, symSize: 0x60 }
  - { offsetInCU: 0x291E5, offset: 0x291E5, size: 0x8, addend: 0x0, symName: __ZNSt3__14listINS_4pairINS_12basic_stringIcNS_11char_traitsIcEENS_9allocatorIcEEEEiEENS5_IS8_EEEC1ERKSA_, symObjAddr: 0x8BD0, symBinAddr: 0x10000CA50, symSize: 0x30 }
  - { offsetInCU: 0x29220, offset: 0x29220, size: 0x8, addend: 0x0, symName: __ZNSt3__14listINS_4pairINS_12basic_stringIcNS_11char_traitsIcEENS_9allocatorIcEEEEiEENS5_IS8_EEEC2ERKSA_, symObjAddr: 0x8C00, symBinAddr: 0x10000CA80, symSize: 0xF0 }
  - { offsetInCU: 0x29291, offset: 0x29291, size: 0x8, addend: 0x0, symName: __ZNSt3__116allocator_traitsINS_9allocatorINS_11__list_nodeINS_4pairINS_12basic_stringIcNS_11char_traitsIcEENS1_IcEEEEiEEPvEEEEE37select_on_container_copy_constructionB7v160006ISC_vvEESC_RKSC_, symObjAddr: 0x8CF0, symBinAddr: 0x10000CB70, symSize: 0x10 }
  - { offsetInCU: 0x292C0, offset: 0x292C0, size: 0x8, addend: 0x0, symName: __ZNKSt3__110__list_impINS_4pairINS_12basic_stringIcNS_11char_traitsIcEENS_9allocatorIcEEEEiEENS5_IS8_EEE12__node_allocB7v160006Ev, symObjAddr: 0x8D00, symBinAddr: 0x10000CB80, symSize: 0x20 }
  - { offsetInCU: 0x292E6, offset: 0x292E6, size: 0x8, addend: 0x0, symName: __ZNSt3__110__list_impINS_4pairINS_12basic_stringIcNS_11char_traitsIcEENS_9allocatorIcEEEEiEENS5_IS8_EEEC2EONS5_INS_11__list_nodeIS8_PvEEEE, symObjAddr: 0x8D20, symBinAddr: 0x10000CBA0, symSize: 0x60 }
  - { offsetInCU: 0x29321, offset: 0x29321, size: 0x8, addend: 0x0, symName: __ZNKSt3__14listINS_4pairINS_12basic_stringIcNS_11char_traitsIcEENS_9allocatorIcEEEEiEENS5_IS8_EEE5beginB7v160006Ev, symObjAddr: 0x8D90, symBinAddr: 0x10000CC10, symSize: 0x30 }
  - { offsetInCU: 0x29347, offset: 0x29347, size: 0x8, addend: 0x0, symName: __ZNKSt3__14listINS_4pairINS_12basic_stringIcNS_11char_traitsIcEENS_9allocatorIcEEEEiEENS5_IS8_EEE3endB7v160006Ev, symObjAddr: 0x8DC0, symBinAddr: 0x10000CC40, symSize: 0x30 }
  - { offsetInCU: 0x2936D, offset: 0x2936D, size: 0x8, addend: 0x0, symName: __ZNSt3__14listINS_4pairINS_12basic_stringIcNS_11char_traitsIcEENS_9allocatorIcEEEEiEENS5_IS8_EEE9push_backERKS8_, symObjAddr: 0x8E20, symBinAddr: 0x10000CCA0, symSize: 0x100 }
  - { offsetInCU: 0x293C2, offset: 0x293C2, size: 0x8, addend: 0x0, symName: __ZNKSt3__121__list_const_iteratorINS_4pairINS_12basic_stringIcNS_11char_traitsIcEENS_9allocatorIcEEEEiEEPvEdeB7v160006Ev, symObjAddr: 0x8F20, symBinAddr: 0x10000CDA0, symSize: 0x30 }
  - { offsetInCU: 0x293E8, offset: 0x293E8, size: 0x8, addend: 0x0, symName: __ZNSt3__121__list_const_iteratorINS_4pairINS_12basic_stringIcNS_11char_traitsIcEENS_9allocatorIcEEEEiEEPvEppB7v160006Ev, symObjAddr: 0x8F50, symBinAddr: 0x10000CDD0, symSize: 0x20 }
  - { offsetInCU: 0x2940E, offset: 0x2940E, size: 0x8, addend: 0x0, symName: __ZNSt3__110__list_impINS_4pairINS_12basic_stringIcNS_11char_traitsIcEENS_9allocatorIcEEEEiEENS5_IS8_EEED2Ev, symObjAddr: 0x8F70, symBinAddr: 0x10000CDF0, symSize: 0x40 }
  - { offsetInCU: 0x2943A, offset: 0x2943A, size: 0x8, addend: 0x0, symName: __ZNKSt3__117__compressed_pairImNS_9allocatorINS_11__list_nodeINS_4pairINS_12basic_stringIcNS_11char_traitsIcEENS1_IcEEEEiEEPvEEEEE6secondB7v160006Ev, symObjAddr: 0x8FB0, symBinAddr: 0x10000CE30, symSize: 0x20 }
  - { offsetInCU: 0x29460, offset: 0x29460, size: 0x8, addend: 0x0, symName: __ZNKSt3__122__compressed_pair_elemINS_9allocatorINS_11__list_nodeINS_4pairINS_12basic_stringIcNS_11char_traitsIcEENS1_IcEEEEiEEPvEEEELi1ELb1EE5__getB7v160006Ev, symObjAddr: 0x8FD0, symBinAddr: 0x10000CE50, symSize: 0x10 }
  - { offsetInCU: 0x29486, offset: 0x29486, size: 0x8, addend: 0x0, symName: __ZNSt3__116__list_node_baseINS_4pairINS_12basic_stringIcNS_11char_traitsIcEENS_9allocatorIcEEEEiEEPvEC1B7v160006Ev, symObjAddr: 0x8FE0, symBinAddr: 0x10000CE60, symSize: 0x20 }
  - { offsetInCU: 0x294BA, offset: 0x294BA, size: 0x8, addend: 0x0, symName: __ZNSt3__117__compressed_pairImNS_9allocatorINS_11__list_nodeINS_4pairINS_12basic_stringIcNS_11char_traitsIcEENS1_IcEEEEiEEPvEEEEEC1B7v160006IiSC_EEOT_OT0_, symObjAddr: 0x9010, symBinAddr: 0x10000CE90, symSize: 0x30 }
  - { offsetInCU: 0x29512, offset: 0x29512, size: 0x8, addend: 0x0, symName: __ZNSt3__116__list_node_baseINS_4pairINS_12basic_stringIcNS_11char_traitsIcEENS_9allocatorIcEEEEiEEPvEC2B7v160006Ev, symObjAddr: 0x9040, symBinAddr: 0x10000CEC0, symSize: 0x50 }
  - { offsetInCU: 0x2953C, offset: 0x2953C, size: 0x8, addend: 0x0, symName: __ZNSt3__126__list_node_pointer_traitsINS_4pairINS_12basic_stringIcNS_11char_traitsIcEENS_9allocatorIcEEEEiEEPvE26__unsafe_link_pointer_castB7v160006EPNS_16__list_node_baseIS8_S9_EE, symObjAddr: 0x9090, symBinAddr: 0x10000CF10, symSize: 0x10 }
  - { offsetInCU: 0x29560, offset: 0x29560, size: 0x8, addend: 0x0, symName: __ZNSt3__116__list_node_baseINS_4pairINS_12basic_stringIcNS_11char_traitsIcEENS_9allocatorIcEEEEiEEPvE6__selfB7v160006Ev, symObjAddr: 0x90A0, symBinAddr: 0x10000CF20, symSize: 0x20 }
  - { offsetInCU: 0x2958B, offset: 0x2958B, size: 0x8, addend: 0x0, symName: __ZNSt3__114pointer_traitsIPNS_16__list_node_baseINS_4pairINS_12basic_stringIcNS_11char_traitsIcEENS_9allocatorIcEEEEiEEPvEEE10pointer_toB7v160006ERSB_, symObjAddr: 0x90C0, symBinAddr: 0x10000CF40, symSize: 0x10 }
  - { offsetInCU: 0x295AE, offset: 0x295AE, size: 0x8, addend: 0x0, symName: __ZNSt3__117__compressed_pairImNS_9allocatorINS_11__list_nodeINS_4pairINS_12basic_stringIcNS_11char_traitsIcEENS1_IcEEEEiEEPvEEEEEC2B7v160006IiSC_EEOT_OT0_, symObjAddr: 0x90D0, symBinAddr: 0x10000CF50, symSize: 0x40 }
  - { offsetInCU: 0x29606, offset: 0x29606, size: 0x8, addend: 0x0, symName: __ZNSt3__122__compressed_pair_elemImLi0ELb0EEC2B7v160006IivEEOT_, symObjAddr: 0x9110, symBinAddr: 0x10000CF90, symSize: 0x20 }
  - { offsetInCU: 0x29648, offset: 0x29648, size: 0x8, addend: 0x0, symName: __ZNSt3__122__compressed_pair_elemINS_9allocatorINS_11__list_nodeINS_4pairINS_12basic_stringIcNS_11char_traitsIcEENS1_IcEEEEiEEPvEEEELi1ELb1EEC2B7v160006ISC_vEEOT_, symObjAddr: 0x9130, symBinAddr: 0x10000CFB0, symSize: 0x10 }
  - { offsetInCU: 0x2968A, offset: 0x2968A, size: 0x8, addend: 0x0, symName: __ZNKSt3__110__list_impINS_4pairINS_12basic_stringIcNS_11char_traitsIcEENS_9allocatorIcEEEEiEENS5_IS8_EEE5beginB7v160006Ev, symObjAddr: 0x9140, symBinAddr: 0x10000CFC0, symSize: 0x30 }
  - { offsetInCU: 0x296B0, offset: 0x296B0, size: 0x8, addend: 0x0, symName: __ZNSt3__121__list_const_iteratorINS_4pairINS_12basic_stringIcNS_11char_traitsIcEENS_9allocatorIcEEEEiEEPvEC1B7v160006EPNS_16__list_node_baseIS8_S9_EEPKv, symObjAddr: 0x9170, symBinAddr: 0x10000CFF0, symSize: 0x30 }
  - { offsetInCU: 0x296F8, offset: 0x296F8, size: 0x8, addend: 0x0, symName: __ZNSt3__121__list_const_iteratorINS_4pairINS_12basic_stringIcNS_11char_traitsIcEENS_9allocatorIcEEEEiEEPvEC2B7v160006EPNS_16__list_node_baseIS8_S9_EEPKv, symObjAddr: 0x91A0, symBinAddr: 0x10000D020, symSize: 0x20 }
  - { offsetInCU: 0x29740, offset: 0x29740, size: 0x8, addend: 0x0, symName: __ZNKSt3__110__list_impINS_4pairINS_12basic_stringIcNS_11char_traitsIcEENS_9allocatorIcEEEEiEENS5_IS8_EEE3endB7v160006Ev, symObjAddr: 0x91C0, symBinAddr: 0x10000D040, symSize: 0x40 }
  - { offsetInCU: 0x29766, offset: 0x29766, size: 0x8, addend: 0x0, symName: __ZNKSt3__110__list_impINS_4pairINS_12basic_stringIcNS_11char_traitsIcEENS_9allocatorIcEEEEiEENS5_IS8_EEE13__end_as_linkB7v160006Ev, symObjAddr: 0x9200, symBinAddr: 0x10000D080, symSize: 0x30 }
  - { offsetInCU: 0x2978C, offset: 0x2978C, size: 0x8, addend: 0x0, symName: __ZNSt3__110__list_impINS_4pairINS_12basic_stringIcNS_11char_traitsIcEENS_9allocatorIcEEEEiEENS5_IS8_EEE12__node_allocB7v160006Ev, symObjAddr: 0x9260, symBinAddr: 0x10000D0E0, symSize: 0x20 }
  - { offsetInCU: 0x297B2, offset: 0x297B2, size: 0x8, addend: 0x0, symName: __ZNSt3__14listINS_4pairINS_12basic_stringIcNS_11char_traitsIcEENS_9allocatorIcEEEEiEENS5_IS8_EEE15__allocate_nodeB7v160006ERNS5_INS_11__list_nodeIS8_PvEEEE, symObjAddr: 0x9280, symBinAddr: 0x10000D100, symSize: 0x80 }
  - { offsetInCU: 0x297F6, offset: 0x297F6, size: 0x8, addend: 0x0, symName: __ZNSt3__116allocator_traitsINS_9allocatorINS_11__list_nodeINS_4pairINS_12basic_stringIcNS_11char_traitsIcEENS1_IcEEEEiEEPvEEEEE9constructB7v160006IS9_JRKS9_EvEEvRSC_PT_DpOT0_, symObjAddr: 0x9300, symBinAddr: 0x10000D180, symSize: 0x30 }
  - { offsetInCU: 0x2984D, offset: 0x2984D, size: 0x8, addend: 0x0, symName: __ZNKSt3__110unique_ptrINS_11__list_nodeINS_4pairINS_12basic_stringIcNS_11char_traitsIcEENS_9allocatorIcEEEEiEEPvEENS_22__allocator_destructorINS6_ISB_EEEEEptB7v160006Ev, symObjAddr: 0x9330, symBinAddr: 0x10000D1B0, symSize: 0x20 }
  - { offsetInCU: 0x29873, offset: 0x29873, size: 0x8, addend: 0x0, symName: __ZNSt3__14listINS_4pairINS_12basic_stringIcNS_11char_traitsIcEENS_9allocatorIcEEEEiEENS5_IS8_EEE20__link_nodes_at_backEPNS_16__list_node_baseIS8_PvEESE_, symObjAddr: 0x9350, symBinAddr: 0x10000D1D0, symSize: 0x60 }
  - { offsetInCU: 0x298B9, offset: 0x298B9, size: 0x8, addend: 0x0, symName: __ZNKSt3__110unique_ptrINS_11__list_nodeINS_4pairINS_12basic_stringIcNS_11char_traitsIcEENS_9allocatorIcEEEEiEEPvEENS_22__allocator_destructorINS6_ISB_EEEEE3getB7v160006Ev, symObjAddr: 0x93B0, symBinAddr: 0x10000D230, symSize: 0x20 }
  - { offsetInCU: 0x298DF, offset: 0x298DF, size: 0x8, addend: 0x0, symName: __ZNSt3__111__list_nodeINS_4pairINS_12basic_stringIcNS_11char_traitsIcEENS_9allocatorIcEEEEiEEPvE9__as_linkB7v160006Ev, symObjAddr: 0x93D0, symBinAddr: 0x10000D250, symSize: 0x20 }
  - { offsetInCU: 0x29905, offset: 0x29905, size: 0x8, addend: 0x0, symName: __ZNSt3__110__list_impINS_4pairINS_12basic_stringIcNS_11char_traitsIcEENS_9allocatorIcEEEEiEENS5_IS8_EEE4__szB7v160006Ev, symObjAddr: 0x93F0, symBinAddr: 0x10000D270, symSize: 0x20 }
  - { offsetInCU: 0x2992B, offset: 0x2992B, size: 0x8, addend: 0x0, symName: __ZNSt3__110unique_ptrINS_11__list_nodeINS_4pairINS_12basic_stringIcNS_11char_traitsIcEENS_9allocatorIcEEEEiEEPvEENS_22__allocator_destructorINS6_ISB_EEEEE7releaseB7v160006Ev, symObjAddr: 0x9410, symBinAddr: 0x10000D290, symSize: 0x40 }
  - { offsetInCU: 0x29960, offset: 0x29960, size: 0x8, addend: 0x0, symName: __ZNSt3__110unique_ptrINS_11__list_nodeINS_4pairINS_12basic_stringIcNS_11char_traitsIcEENS_9allocatorIcEEEEiEEPvEENS_22__allocator_destructorINS6_ISB_EEEEED1B7v160006Ev, symObjAddr: 0x9450, symBinAddr: 0x10000D2D0, symSize: 0x20 }
  - { offsetInCU: 0x2998A, offset: 0x2998A, size: 0x8, addend: 0x0, symName: __ZNSt3__117__compressed_pairImNS_9allocatorINS_11__list_nodeINS_4pairINS_12basic_stringIcNS_11char_traitsIcEENS1_IcEEEEiEEPvEEEEE6secondB7v160006Ev, symObjAddr: 0x9470, symBinAddr: 0x10000D2F0, symSize: 0x20 }
  - { offsetInCU: 0x299B0, offset: 0x299B0, size: 0x8, addend: 0x0, symName: __ZNSt3__122__compressed_pair_elemINS_9allocatorINS_11__list_nodeINS_4pairINS_12basic_stringIcNS_11char_traitsIcEENS1_IcEEEEiEEPvEEEELi1ELb1EE5__getB7v160006Ev, symObjAddr: 0x9490, symBinAddr: 0x10000D310, symSize: 0x10 }
  - { offsetInCU: 0x299D6, offset: 0x299D6, size: 0x8, addend: 0x0, symName: __ZNSt3__116allocator_traitsINS_9allocatorINS_11__list_nodeINS_4pairINS_12basic_stringIcNS_11char_traitsIcEENS1_IcEEEEiEEPvEEEEE8allocateB7v160006ERSC_m, symObjAddr: 0x94A0, symBinAddr: 0x10000D320, symSize: 0x30 }
  - { offsetInCU: 0x29A09, offset: 0x29A09, size: 0x8, addend: 0x0, symName: __ZNSt3__122__allocator_destructorINS_9allocatorINS_11__list_nodeINS_4pairINS_12basic_stringIcNS_11char_traitsIcEENS1_IcEEEEiEEPvEEEEEC1B7v160006ERSC_m, symObjAddr: 0x94D0, symBinAddr: 0x10000D350, symSize: 0x30 }
  - { offsetInCU: 0x29A54, offset: 0x29A54, size: 0x8, addend: 0x0, symName: __ZNSt3__110unique_ptrINS_11__list_nodeINS_4pairINS_12basic_stringIcNS_11char_traitsIcEENS_9allocatorIcEEEEiEEPvEENS_22__allocator_destructorINS6_ISB_EEEEEC1B7v160006ILb1EvEEPSB_NS_16__dependent_typeINS_27__unique_ptr_deleter_sfinaeISE_EEXT_EE20__good_rval_ref_typeE, symObjAddr: 0x9500, symBinAddr: 0x10000D380, symSize: 0x30 }
  - { offsetInCU: 0x29AA5, offset: 0x29AA5, size: 0x8, addend: 0x0, symName: __ZNSt3__19allocatorINS_11__list_nodeINS_4pairINS_12basic_stringIcNS_11char_traitsIcEENS0_IcEEEEiEEPvEEE8allocateB7v160006Em, symObjAddr: 0x9530, symBinAddr: 0x10000D3B0, symSize: 0x50 }
  - { offsetInCU: 0x29AD9, offset: 0x29AD9, size: 0x8, addend: 0x0, symName: __ZNSt3__116allocator_traitsINS_9allocatorINS_11__list_nodeINS_4pairINS_12basic_stringIcNS_11char_traitsIcEENS1_IcEEEEiEEPvEEEEE8max_sizeB7v160006ISC_vEEmRKSC_, symObjAddr: 0x9580, symBinAddr: 0x10000D400, symSize: 0x20 }
  - { offsetInCU: 0x29B07, offset: 0x29B07, size: 0x8, addend: 0x0, symName: __ZNKSt3__19allocatorINS_11__list_nodeINS_4pairINS_12basic_stringIcNS_11char_traitsIcEENS0_IcEEEEiEEPvEEE8max_sizeB7v160006Ev, symObjAddr: 0x9600, symBinAddr: 0x10000D480, symSize: 0x20 }
  - { offsetInCU: 0x29B2D, offset: 0x29B2D, size: 0x8, addend: 0x0, symName: __ZNSt3__122__allocator_destructorINS_9allocatorINS_11__list_nodeINS_4pairINS_12basic_stringIcNS_11char_traitsIcEENS1_IcEEEEiEEPvEEEEEC2B7v160006ERSC_m, symObjAddr: 0x9640, symBinAddr: 0x10000D4C0, symSize: 0x30 }
  - { offsetInCU: 0x29B73, offset: 0x29B73, size: 0x8, addend: 0x0, symName: __ZNSt3__110unique_ptrINS_11__list_nodeINS_4pairINS_12basic_stringIcNS_11char_traitsIcEENS_9allocatorIcEEEEiEEPvEENS_22__allocator_destructorINS6_ISB_EEEEEC2B7v160006ILb1EvEEPSB_NS_16__dependent_typeINS_27__unique_ptr_deleter_sfinaeISE_EEXT_EE20__good_rval_ref_typeE, symObjAddr: 0x9670, symBinAddr: 0x10000D4F0, symSize: 0x40 }
  - { offsetInCU: 0x29BC4, offset: 0x29BC4, size: 0x8, addend: 0x0, symName: __ZNSt3__117__compressed_pairIPNS_11__list_nodeINS_4pairINS_12basic_stringIcNS_11char_traitsIcEENS_9allocatorIcEEEEiEEPvEENS_22__allocator_destructorINS6_ISB_EEEEEC1B7v160006IRSC_SF_EEOT_OT0_, symObjAddr: 0x96B0, symBinAddr: 0x10000D530, symSize: 0x30 }
  - { offsetInCU: 0x29C1C, offset: 0x29C1C, size: 0x8, addend: 0x0, symName: __ZNSt3__117__compressed_pairIPNS_11__list_nodeINS_4pairINS_12basic_stringIcNS_11char_traitsIcEENS_9allocatorIcEEEEiEEPvEENS_22__allocator_destructorINS6_ISB_EEEEEC2B7v160006IRSC_SF_EEOT_OT0_, symObjAddr: 0x96E0, symBinAddr: 0x10000D560, symSize: 0x40 }
  - { offsetInCU: 0x29C74, offset: 0x29C74, size: 0x8, addend: 0x0, symName: __ZNSt3__122__compressed_pair_elemIPNS_11__list_nodeINS_4pairINS_12basic_stringIcNS_11char_traitsIcEENS_9allocatorIcEEEEiEEPvEELi0ELb0EEC2B7v160006IRSC_vEEOT_, symObjAddr: 0x9720, symBinAddr: 0x10000D5A0, symSize: 0x20 }
  - { offsetInCU: 0x29CB6, offset: 0x29CB6, size: 0x8, addend: 0x0, symName: __ZNSt3__122__compressed_pair_elemINS_22__allocator_destructorINS_9allocatorINS_11__list_nodeINS_4pairINS_12basic_stringIcNS_11char_traitsIcEENS2_IcEEEEiEEPvEEEEEELi1ELb0EEC2B7v160006ISE_vEEOT_, symObjAddr: 0x9740, symBinAddr: 0x10000D5C0, symSize: 0x30 }
  - { offsetInCU: 0x29CF8, offset: 0x29CF8, size: 0x8, addend: 0x0, symName: __ZNSt3__19allocatorINS_11__list_nodeINS_4pairINS_12basic_stringIcNS_11char_traitsIcEENS0_IcEEEEiEEPvEEE9constructB7v160006IS8_JRKS8_EEEvPT_DpOT0_, symObjAddr: 0x9770, symBinAddr: 0x10000D5F0, symSize: 0x30 }
  - { offsetInCU: 0x29D4E, offset: 0x29D4E, size: 0x8, addend: 0x0, symName: __ZNKSt3__117__compressed_pairIPNS_11__list_nodeINS_4pairINS_12basic_stringIcNS_11char_traitsIcEENS_9allocatorIcEEEEiEEPvEENS_22__allocator_destructorINS6_ISB_EEEEE5firstB7v160006Ev, symObjAddr: 0x97A0, symBinAddr: 0x10000D620, symSize: 0x20 }
  - { offsetInCU: 0x29D74, offset: 0x29D74, size: 0x8, addend: 0x0, symName: __ZNKSt3__122__compressed_pair_elemIPNS_11__list_nodeINS_4pairINS_12basic_stringIcNS_11char_traitsIcEENS_9allocatorIcEEEEiEEPvEELi0ELb0EE5__getB7v160006Ev, symObjAddr: 0x97C0, symBinAddr: 0x10000D640, symSize: 0x10 }
  - { offsetInCU: 0x29D9A, offset: 0x29D9A, size: 0x8, addend: 0x0, symName: __ZNSt3__117__compressed_pairImNS_9allocatorINS_11__list_nodeINS_4pairINS_12basic_stringIcNS_11char_traitsIcEENS1_IcEEEEiEEPvEEEEE5firstB7v160006Ev, symObjAddr: 0x97D0, symBinAddr: 0x10000D650, symSize: 0x20 }
  - { offsetInCU: 0x29DC0, offset: 0x29DC0, size: 0x8, addend: 0x0, symName: __ZNSt3__122__compressed_pair_elemImLi0ELb0EE5__getB7v160006Ev, symObjAddr: 0x97F0, symBinAddr: 0x10000D670, symSize: 0x10 }
  - { offsetInCU: 0x29DE6, offset: 0x29DE6, size: 0x8, addend: 0x0, symName: __ZNSt3__117__compressed_pairIPNS_11__list_nodeINS_4pairINS_12basic_stringIcNS_11char_traitsIcEENS_9allocatorIcEEEEiEEPvEENS_22__allocator_destructorINS6_ISB_EEEEE5firstB7v160006Ev, symObjAddr: 0x9800, symBinAddr: 0x10000D680, symSize: 0x20 }
  - { offsetInCU: 0x29E0C, offset: 0x29E0C, size: 0x8, addend: 0x0, symName: __ZNSt3__122__compressed_pair_elemIPNS_11__list_nodeINS_4pairINS_12basic_stringIcNS_11char_traitsIcEENS_9allocatorIcEEEEiEEPvEELi0ELb0EE5__getB7v160006Ev, symObjAddr: 0x9820, symBinAddr: 0x10000D6A0, symSize: 0x10 }
  - { offsetInCU: 0x29E32, offset: 0x29E32, size: 0x8, addend: 0x0, symName: __ZNSt3__110unique_ptrINS_11__list_nodeINS_4pairINS_12basic_stringIcNS_11char_traitsIcEENS_9allocatorIcEEEEiEEPvEENS_22__allocator_destructorINS6_ISB_EEEEED2B7v160006Ev, symObjAddr: 0x9830, symBinAddr: 0x10000D6B0, symSize: 0x20 }
  - { offsetInCU: 0x29E5C, offset: 0x29E5C, size: 0x8, addend: 0x0, symName: __ZNSt3__110unique_ptrINS_11__list_nodeINS_4pairINS_12basic_stringIcNS_11char_traitsIcEENS_9allocatorIcEEEEiEEPvEENS_22__allocator_destructorINS6_ISB_EEEEE5resetB7v160006EPSB_, symObjAddr: 0x9850, symBinAddr: 0x10000D6D0, symSize: 0x70 }
  - { offsetInCU: 0x29EA0, offset: 0x29EA0, size: 0x8, addend: 0x0, symName: __ZNSt3__117__compressed_pairIPNS_11__list_nodeINS_4pairINS_12basic_stringIcNS_11char_traitsIcEENS_9allocatorIcEEEEiEEPvEENS_22__allocator_destructorINS6_ISB_EEEEE6secondB7v160006Ev, symObjAddr: 0x98C0, symBinAddr: 0x10000D740, symSize: 0x20 }
  - { offsetInCU: 0x29EC6, offset: 0x29EC6, size: 0x8, addend: 0x0, symName: __ZNSt3__122__allocator_destructorINS_9allocatorINS_11__list_nodeINS_4pairINS_12basic_stringIcNS_11char_traitsIcEENS1_IcEEEEiEEPvEEEEEclB7v160006EPSB_, symObjAddr: 0x98E0, symBinAddr: 0x10000D760, symSize: 0x30 }
  - { offsetInCU: 0x29EFA, offset: 0x29EFA, size: 0x8, addend: 0x0, symName: __ZNSt3__122__compressed_pair_elemINS_22__allocator_destructorINS_9allocatorINS_11__list_nodeINS_4pairINS_12basic_stringIcNS_11char_traitsIcEENS2_IcEEEEiEEPvEEEEEELi1ELb0EE5__getB7v160006Ev, symObjAddr: 0x9910, symBinAddr: 0x10000D790, symSize: 0x10 }
  - { offsetInCU: 0x29F20, offset: 0x29F20, size: 0x8, addend: 0x0, symName: __ZNSt3__116allocator_traitsINS_9allocatorINS_11__list_nodeINS_4pairINS_12basic_stringIcNS_11char_traitsIcEENS1_IcEEEEiEEPvEEEEE10deallocateB7v160006ERSC_PSB_m, symObjAddr: 0x9920, symBinAddr: 0x10000D7A0, symSize: 0x30 }
  - { offsetInCU: 0x29F62, offset: 0x29F62, size: 0x8, addend: 0x0, symName: __ZNSt3__19allocatorINS_11__list_nodeINS_4pairINS_12basic_stringIcNS_11char_traitsIcEENS0_IcEEEEiEEPvEEE10deallocateB7v160006EPSA_m, symObjAddr: 0x9950, symBinAddr: 0x10000D7D0, symSize: 0x50 }
  - { offsetInCU: 0x29FA4, offset: 0x29FA4, size: 0x8, addend: 0x0, symName: __ZNSt3__116__list_node_baseINS_4pairINS_12basic_stringIcNS_11char_traitsIcEENS_9allocatorIcEEEEiEEPvE9__as_nodeB7v160006Ev, symObjAddr: 0x9A10, symBinAddr: 0x10000D890, symSize: 0x20 }
  - { offsetInCU: 0x29FCA, offset: 0x29FCA, size: 0x8, addend: 0x0, symName: __ZNSt3__110__list_impINS_4pairINS_12basic_stringIcNS_11char_traitsIcEENS_9allocatorIcEEEEiEENS5_IS8_EEE5clearEv, symObjAddr: 0x9A30, symBinAddr: 0x10000D8B0, symSize: 0xE0 }
  - { offsetInCU: 0x2A03A, offset: 0x2A03A, size: 0x8, addend: 0x0, symName: __ZNKSt3__110__list_impINS_4pairINS_12basic_stringIcNS_11char_traitsIcEENS_9allocatorIcEEEEiEENS5_IS8_EEE5emptyB7v160006Ev, symObjAddr: 0x9B20, symBinAddr: 0x10000D9A0, symSize: 0x30 }
  - { offsetInCU: 0x2A060, offset: 0x2A060, size: 0x8, addend: 0x0, symName: __ZNSt3__110__list_impINS_4pairINS_12basic_stringIcNS_11char_traitsIcEENS_9allocatorIcEEEEiEENS5_IS8_EEE14__unlink_nodesEPNS_16__list_node_baseIS8_PvEESE_, symObjAddr: 0x9B50, symBinAddr: 0x10000D9D0, symSize: 0x40 }
  - { offsetInCU: 0x2A095, offset: 0x2A095, size: 0x8, addend: 0x0, symName: __ZNSt3__116allocator_traitsINS_9allocatorINS_11__list_nodeINS_4pairINS_12basic_stringIcNS_11char_traitsIcEENS1_IcEEEEiEEPvEEEEE7destroyB7v160006IS9_vvEEvRSC_PT_, symObjAddr: 0x9B90, symBinAddr: 0x10000DA10, symSize: 0x20 }
  - { offsetInCU: 0x2A0D0, offset: 0x2A0D0, size: 0x8, addend: 0x0, symName: __ZNKSt3__110__list_impINS_4pairINS_12basic_stringIcNS_11char_traitsIcEENS_9allocatorIcEEEEiEENS5_IS8_EEE4__szB7v160006Ev, symObjAddr: 0x9BC0, symBinAddr: 0x10000DA40, symSize: 0x20 }
  - { offsetInCU: 0x2A0F6, offset: 0x2A0F6, size: 0x8, addend: 0x0, symName: __ZNKSt3__117__compressed_pairImNS_9allocatorINS_11__list_nodeINS_4pairINS_12basic_stringIcNS_11char_traitsIcEENS1_IcEEEEiEEPvEEEEE5firstB7v160006Ev, symObjAddr: 0x9BE0, symBinAddr: 0x10000DA60, symSize: 0x20 }
  - { offsetInCU: 0x2A11C, offset: 0x2A11C, size: 0x8, addend: 0x0, symName: __ZNKSt3__122__compressed_pair_elemImLi0ELb0EE5__getB7v160006Ev, symObjAddr: 0x9C00, symBinAddr: 0x10000DA80, symSize: 0x10 }
  - { offsetInCU: 0x2A142, offset: 0x2A142, size: 0x8, addend: 0x0, symName: __ZNSt3__14pairIKNS_12basic_stringIcNS_11char_traitsIcEENS_9allocatorIcEEEENS_4listINS0_IS6_iEENS4_IS9_EEEEED2Ev, symObjAddr: 0x9C10, symBinAddr: 0x10000DA90, symSize: 0x30 }
  - { offsetInCU: 0x2A16E, offset: 0x2A16E, size: 0x8, addend: 0x0, symName: __ZNSt3__14listINS_4pairINS_12basic_stringIcNS_11char_traitsIcEENS_9allocatorIcEEEEiEENS5_IS8_EEED1Ev, symObjAddr: 0x9C40, symBinAddr: 0x10000DAC0, symSize: 0x20 }
  - { offsetInCU: 0x2A19B, offset: 0x2A19B, size: 0x8, addend: 0x0, symName: __ZNSt3__14listINS_4pairINS_12basic_stringIcNS_11char_traitsIcEENS_9allocatorIcEEEEiEENS5_IS8_EEED2Ev, symObjAddr: 0x9C60, symBinAddr: 0x10000DAE0, symSize: 0x20 }
  - { offsetInCU: 0x2A1C8, offset: 0x2A1C8, size: 0x8, addend: 0x0, symName: __ZNSt3__14pairIiNS_12basic_stringIcNS_11char_traitsIcEENS_9allocatorIcEEEEEC1B7v160006IiRS6_LPv0EEEOT_OT0_, symObjAddr: 0x9C80, symBinAddr: 0x10000DB00, symSize: 0x30 }
  - { offsetInCU: 0x2A226, offset: 0x2A226, size: 0x8, addend: 0x0, symName: __ZNSt3__14pairIiNS_12basic_stringIcNS_11char_traitsIcEENS_9allocatorIcEEEEEC2B7v160006IiRS6_LPv0EEEOT_OT0_, symObjAddr: 0x9CB0, symBinAddr: 0x10000DB30, symSize: 0x40 }
  - { offsetInCU: 0x2A284, offset: 0x2A284, size: 0x8, addend: 0x0, symName: __ZNSt3__14pairIiNS_12basic_stringIcNS_11char_traitsIcEENS_9allocatorIcEEEEED2Ev, symObjAddr: 0x9CF0, symBinAddr: 0x10000DB70, symSize: 0x20 }
  - { offsetInCU: 0x2A2B0, offset: 0x2A2B0, size: 0x8, addend: 0x0, symName: __ZNSt3__14pairIiNS_12basic_stringIcNS_11char_traitsIcEENS_9allocatorIcEEEEEC2ERKS7_, symObjAddr: 0x9D10, symBinAddr: 0x10000DB90, symSize: 0x40 }
  - { offsetInCU: 0x2A2E5, offset: 0x2A2E5, size: 0x8, addend: 0x0, symName: __ZNSt3__14pairINS_12basic_stringIcNS_11char_traitsIcEENS_9allocatorIcEEEEiEC2ERKS7_, symObjAddr: 0x9D50, symBinAddr: 0x10000DBD0, symSize: 0x40 }
  - { offsetInCU: 0x2A31A, offset: 0x2A31A, size: 0x8, addend: 0x0, symName: __ZNSt3__14pairIiNS_12basic_stringIcNS_11char_traitsIcEENS_9allocatorIcEEEEEC1B7v160006IRiRS6_LPv0EEEOT_OT0_, symObjAddr: 0x9D90, symBinAddr: 0x10000DC10, symSize: 0x30 }
  - { offsetInCU: 0x2A378, offset: 0x2A378, size: 0x8, addend: 0x0, symName: __ZNSt3__14pairIiNS_12basic_stringIcNS_11char_traitsIcEENS_9allocatorIcEEEEEC2B7v160006IRiRS6_LPv0EEEOT_OT0_, symObjAddr: 0x9DC0, symBinAddr: 0x10000DC40, symSize: 0x40 }
  - { offsetInCU: 0x2A3D6, offset: 0x2A3D6, size: 0x8, addend: 0x0, symName: __ZNSt3__14pairINS_12basic_stringIcNS_11char_traitsIcEENS_9allocatorIcEEEEiED2Ev, symObjAddr: 0x9E00, symBinAddr: 0x10000DC80, symSize: 0x20 }
  - { offsetInCU: 0x2A402, offset: 0x2A402, size: 0x8, addend: 0x0, symName: __ZNSt3__14pairIKNS_12basic_stringIcNS_11char_traitsIcEENS_9allocatorIcEEEENS_4listINS0_IS6_fEENS4_IS9_EEEEEC2ERKSC_, symObjAddr: 0x9E20, symBinAddr: 0x10000DCA0, symSize: 0x60 }
  - { offsetInCU: 0x2A437, offset: 0x2A437, size: 0x8, addend: 0x0, symName: __ZNSt3__14listINS_4pairINS_12basic_stringIcNS_11char_traitsIcEENS_9allocatorIcEEEEfEENS5_IS8_EEEC1ERKSA_, symObjAddr: 0x9E80, symBinAddr: 0x10000DD00, symSize: 0x30 }
  - { offsetInCU: 0x2A472, offset: 0x2A472, size: 0x8, addend: 0x0, symName: __ZNSt3__14listINS_4pairINS_12basic_stringIcNS_11char_traitsIcEENS_9allocatorIcEEEEfEENS5_IS8_EEEC2ERKSA_, symObjAddr: 0x9EB0, symBinAddr: 0x10000DD30, symSize: 0xF0 }
  - { offsetInCU: 0x2A4E3, offset: 0x2A4E3, size: 0x8, addend: 0x0, symName: __ZNSt3__116allocator_traitsINS_9allocatorINS_11__list_nodeINS_4pairINS_12basic_stringIcNS_11char_traitsIcEENS1_IcEEEEfEEPvEEEEE37select_on_container_copy_constructionB7v160006ISC_vvEESC_RKSC_, symObjAddr: 0x9FA0, symBinAddr: 0x10000DE20, symSize: 0x10 }
  - { offsetInCU: 0x2A512, offset: 0x2A512, size: 0x8, addend: 0x0, symName: __ZNKSt3__110__list_impINS_4pairINS_12basic_stringIcNS_11char_traitsIcEENS_9allocatorIcEEEEfEENS5_IS8_EEE12__node_allocB7v160006Ev, symObjAddr: 0x9FB0, symBinAddr: 0x10000DE30, symSize: 0x20 }
  - { offsetInCU: 0x2A538, offset: 0x2A538, size: 0x8, addend: 0x0, symName: __ZNSt3__110__list_impINS_4pairINS_12basic_stringIcNS_11char_traitsIcEENS_9allocatorIcEEEEfEENS5_IS8_EEEC2EONS5_INS_11__list_nodeIS8_PvEEEE, symObjAddr: 0x9FD0, symBinAddr: 0x10000DE50, symSize: 0x60 }
  - { offsetInCU: 0x2A573, offset: 0x2A573, size: 0x8, addend: 0x0, symName: __ZNKSt3__14listINS_4pairINS_12basic_stringIcNS_11char_traitsIcEENS_9allocatorIcEEEEfEENS5_IS8_EEE5beginB7v160006Ev, symObjAddr: 0xA040, symBinAddr: 0x10000DEC0, symSize: 0x30 }
  - { offsetInCU: 0x2A599, offset: 0x2A599, size: 0x8, addend: 0x0, symName: __ZNKSt3__14listINS_4pairINS_12basic_stringIcNS_11char_traitsIcEENS_9allocatorIcEEEEfEENS5_IS8_EEE3endB7v160006Ev, symObjAddr: 0xA070, symBinAddr: 0x10000DEF0, symSize: 0x30 }
  - { offsetInCU: 0x2A5BF, offset: 0x2A5BF, size: 0x8, addend: 0x0, symName: __ZNSt3__14listINS_4pairINS_12basic_stringIcNS_11char_traitsIcEENS_9allocatorIcEEEEfEENS5_IS8_EEE9push_backERKS8_, symObjAddr: 0xA0D0, symBinAddr: 0x10000DF50, symSize: 0x100 }
  - { offsetInCU: 0x2A614, offset: 0x2A614, size: 0x8, addend: 0x0, symName: __ZNKSt3__121__list_const_iteratorINS_4pairINS_12basic_stringIcNS_11char_traitsIcEENS_9allocatorIcEEEEfEEPvEdeB7v160006Ev, symObjAddr: 0xA1D0, symBinAddr: 0x10000E050, symSize: 0x30 }
  - { offsetInCU: 0x2A63A, offset: 0x2A63A, size: 0x8, addend: 0x0, symName: __ZNSt3__121__list_const_iteratorINS_4pairINS_12basic_stringIcNS_11char_traitsIcEENS_9allocatorIcEEEEfEEPvEppB7v160006Ev, symObjAddr: 0xA200, symBinAddr: 0x10000E080, symSize: 0x20 }
  - { offsetInCU: 0x2A660, offset: 0x2A660, size: 0x8, addend: 0x0, symName: __ZNSt3__110__list_impINS_4pairINS_12basic_stringIcNS_11char_traitsIcEENS_9allocatorIcEEEEfEENS5_IS8_EEED2Ev, symObjAddr: 0xA220, symBinAddr: 0x10000E0A0, symSize: 0x40 }
  - { offsetInCU: 0x2A68C, offset: 0x2A68C, size: 0x8, addend: 0x0, symName: __ZNKSt3__117__compressed_pairImNS_9allocatorINS_11__list_nodeINS_4pairINS_12basic_stringIcNS_11char_traitsIcEENS1_IcEEEEfEEPvEEEEE6secondB7v160006Ev, symObjAddr: 0xA260, symBinAddr: 0x10000E0E0, symSize: 0x20 }
  - { offsetInCU: 0x2A6B2, offset: 0x2A6B2, size: 0x8, addend: 0x0, symName: __ZNKSt3__122__compressed_pair_elemINS_9allocatorINS_11__list_nodeINS_4pairINS_12basic_stringIcNS_11char_traitsIcEENS1_IcEEEEfEEPvEEEELi1ELb1EE5__getB7v160006Ev, symObjAddr: 0xA280, symBinAddr: 0x10000E100, symSize: 0x10 }
  - { offsetInCU: 0x2A6D8, offset: 0x2A6D8, size: 0x8, addend: 0x0, symName: __ZNSt3__116__list_node_baseINS_4pairINS_12basic_stringIcNS_11char_traitsIcEENS_9allocatorIcEEEEfEEPvEC1B7v160006Ev, symObjAddr: 0xA290, symBinAddr: 0x10000E110, symSize: 0x20 }
  - { offsetInCU: 0x2A707, offset: 0x2A707, size: 0x8, addend: 0x0, symName: __ZNSt3__117__compressed_pairImNS_9allocatorINS_11__list_nodeINS_4pairINS_12basic_stringIcNS_11char_traitsIcEENS1_IcEEEEfEEPvEEEEEC1B7v160006IiSC_EEOT_OT0_, symObjAddr: 0xA2B0, symBinAddr: 0x10000E130, symSize: 0x30 }
  - { offsetInCU: 0x2A75F, offset: 0x2A75F, size: 0x8, addend: 0x0, symName: __ZNSt3__116__list_node_baseINS_4pairINS_12basic_stringIcNS_11char_traitsIcEENS_9allocatorIcEEEEfEEPvEC2B7v160006Ev, symObjAddr: 0xA2E0, symBinAddr: 0x10000E160, symSize: 0x50 }
  - { offsetInCU: 0x2A789, offset: 0x2A789, size: 0x8, addend: 0x0, symName: __ZNSt3__126__list_node_pointer_traitsINS_4pairINS_12basic_stringIcNS_11char_traitsIcEENS_9allocatorIcEEEEfEEPvE26__unsafe_link_pointer_castB7v160006EPNS_16__list_node_baseIS8_S9_EE, symObjAddr: 0xA330, symBinAddr: 0x10000E1B0, symSize: 0x10 }
  - { offsetInCU: 0x2A7AD, offset: 0x2A7AD, size: 0x8, addend: 0x0, symName: __ZNSt3__116__list_node_baseINS_4pairINS_12basic_stringIcNS_11char_traitsIcEENS_9allocatorIcEEEEfEEPvE6__selfB7v160006Ev, symObjAddr: 0xA340, symBinAddr: 0x10000E1C0, symSize: 0x20 }
  - { offsetInCU: 0x2A7D8, offset: 0x2A7D8, size: 0x8, addend: 0x0, symName: __ZNSt3__114pointer_traitsIPNS_16__list_node_baseINS_4pairINS_12basic_stringIcNS_11char_traitsIcEENS_9allocatorIcEEEEfEEPvEEE10pointer_toB7v160006ERSB_, symObjAddr: 0xA360, symBinAddr: 0x10000E1E0, symSize: 0x10 }
  - { offsetInCU: 0x2A7FB, offset: 0x2A7FB, size: 0x8, addend: 0x0, symName: __ZNSt3__117__compressed_pairImNS_9allocatorINS_11__list_nodeINS_4pairINS_12basic_stringIcNS_11char_traitsIcEENS1_IcEEEEfEEPvEEEEEC2B7v160006IiSC_EEOT_OT0_, symObjAddr: 0xA370, symBinAddr: 0x10000E1F0, symSize: 0x40 }
  - { offsetInCU: 0x2A853, offset: 0x2A853, size: 0x8, addend: 0x0, symName: __ZNSt3__122__compressed_pair_elemINS_9allocatorINS_11__list_nodeINS_4pairINS_12basic_stringIcNS_11char_traitsIcEENS1_IcEEEEfEEPvEEEELi1ELb1EEC2B7v160006ISC_vEEOT_, symObjAddr: 0xA3B0, symBinAddr: 0x10000E230, symSize: 0x10 }
  - { offsetInCU: 0x2A895, offset: 0x2A895, size: 0x8, addend: 0x0, symName: __ZNKSt3__110__list_impINS_4pairINS_12basic_stringIcNS_11char_traitsIcEENS_9allocatorIcEEEEfEENS5_IS8_EEE5beginB7v160006Ev, symObjAddr: 0xA3C0, symBinAddr: 0x10000E240, symSize: 0x30 }
  - { offsetInCU: 0x2A8BB, offset: 0x2A8BB, size: 0x8, addend: 0x0, symName: __ZNSt3__121__list_const_iteratorINS_4pairINS_12basic_stringIcNS_11char_traitsIcEENS_9allocatorIcEEEEfEEPvEC1B7v160006EPNS_16__list_node_baseIS8_S9_EEPKv, symObjAddr: 0xA3F0, symBinAddr: 0x10000E270, symSize: 0x30 }
  - { offsetInCU: 0x2A903, offset: 0x2A903, size: 0x8, addend: 0x0, symName: __ZNSt3__121__list_const_iteratorINS_4pairINS_12basic_stringIcNS_11char_traitsIcEENS_9allocatorIcEEEEfEEPvEC2B7v160006EPNS_16__list_node_baseIS8_S9_EEPKv, symObjAddr: 0xA420, symBinAddr: 0x10000E2A0, symSize: 0x20 }
  - { offsetInCU: 0x2A94B, offset: 0x2A94B, size: 0x8, addend: 0x0, symName: __ZNKSt3__110__list_impINS_4pairINS_12basic_stringIcNS_11char_traitsIcEENS_9allocatorIcEEEEfEENS5_IS8_EEE3endB7v160006Ev, symObjAddr: 0xA440, symBinAddr: 0x10000E2C0, symSize: 0x40 }
  - { offsetInCU: 0x2A971, offset: 0x2A971, size: 0x8, addend: 0x0, symName: __ZNKSt3__110__list_impINS_4pairINS_12basic_stringIcNS_11char_traitsIcEENS_9allocatorIcEEEEfEENS5_IS8_EEE13__end_as_linkB7v160006Ev, symObjAddr: 0xA480, symBinAddr: 0x10000E300, symSize: 0x30 }
  - { offsetInCU: 0x2A997, offset: 0x2A997, size: 0x8, addend: 0x0, symName: __ZNSt3__110__list_impINS_4pairINS_12basic_stringIcNS_11char_traitsIcEENS_9allocatorIcEEEEfEENS5_IS8_EEE12__node_allocB7v160006Ev, symObjAddr: 0xA4E0, symBinAddr: 0x10000E360, symSize: 0x20 }
  - { offsetInCU: 0x2A9BD, offset: 0x2A9BD, size: 0x8, addend: 0x0, symName: __ZNSt3__14listINS_4pairINS_12basic_stringIcNS_11char_traitsIcEENS_9allocatorIcEEEEfEENS5_IS8_EEE15__allocate_nodeB7v160006ERNS5_INS_11__list_nodeIS8_PvEEEE, symObjAddr: 0xA500, symBinAddr: 0x10000E380, symSize: 0x80 }
  - { offsetInCU: 0x2AA01, offset: 0x2AA01, size: 0x8, addend: 0x0, symName: __ZNSt3__116allocator_traitsINS_9allocatorINS_11__list_nodeINS_4pairINS_12basic_stringIcNS_11char_traitsIcEENS1_IcEEEEfEEPvEEEEE9constructB7v160006IS9_JRKS9_EvEEvRSC_PT_DpOT0_, symObjAddr: 0xA580, symBinAddr: 0x10000E400, symSize: 0x30 }
  - { offsetInCU: 0x2AA58, offset: 0x2AA58, size: 0x8, addend: 0x0, symName: __ZNKSt3__110unique_ptrINS_11__list_nodeINS_4pairINS_12basic_stringIcNS_11char_traitsIcEENS_9allocatorIcEEEEfEEPvEENS_22__allocator_destructorINS6_ISB_EEEEEptB7v160006Ev, symObjAddr: 0xA5B0, symBinAddr: 0x10000E430, symSize: 0x20 }
  - { offsetInCU: 0x2AA7E, offset: 0x2AA7E, size: 0x8, addend: 0x0, symName: __ZNSt3__14listINS_4pairINS_12basic_stringIcNS_11char_traitsIcEENS_9allocatorIcEEEEfEENS5_IS8_EEE20__link_nodes_at_backEPNS_16__list_node_baseIS8_PvEESE_, symObjAddr: 0xA5D0, symBinAddr: 0x10000E450, symSize: 0x60 }
  - { offsetInCU: 0x2AAC4, offset: 0x2AAC4, size: 0x8, addend: 0x0, symName: __ZNKSt3__110unique_ptrINS_11__list_nodeINS_4pairINS_12basic_stringIcNS_11char_traitsIcEENS_9allocatorIcEEEEfEEPvEENS_22__allocator_destructorINS6_ISB_EEEEE3getB7v160006Ev, symObjAddr: 0xA630, symBinAddr: 0x10000E4B0, symSize: 0x20 }
  - { offsetInCU: 0x2AAEA, offset: 0x2AAEA, size: 0x8, addend: 0x0, symName: __ZNSt3__111__list_nodeINS_4pairINS_12basic_stringIcNS_11char_traitsIcEENS_9allocatorIcEEEEfEEPvE9__as_linkB7v160006Ev, symObjAddr: 0xA650, symBinAddr: 0x10000E4D0, symSize: 0x20 }
  - { offsetInCU: 0x2AB10, offset: 0x2AB10, size: 0x8, addend: 0x0, symName: __ZNSt3__110__list_impINS_4pairINS_12basic_stringIcNS_11char_traitsIcEENS_9allocatorIcEEEEfEENS5_IS8_EEE4__szB7v160006Ev, symObjAddr: 0xA670, symBinAddr: 0x10000E4F0, symSize: 0x20 }
  - { offsetInCU: 0x2AB36, offset: 0x2AB36, size: 0x8, addend: 0x0, symName: __ZNSt3__110unique_ptrINS_11__list_nodeINS_4pairINS_12basic_stringIcNS_11char_traitsIcEENS_9allocatorIcEEEEfEEPvEENS_22__allocator_destructorINS6_ISB_EEEEE7releaseB7v160006Ev, symObjAddr: 0xA690, symBinAddr: 0x10000E510, symSize: 0x40 }
  - { offsetInCU: 0x2AB6B, offset: 0x2AB6B, size: 0x8, addend: 0x0, symName: __ZNSt3__110unique_ptrINS_11__list_nodeINS_4pairINS_12basic_stringIcNS_11char_traitsIcEENS_9allocatorIcEEEEfEEPvEENS_22__allocator_destructorINS6_ISB_EEEEED1B7v160006Ev, symObjAddr: 0xA6D0, symBinAddr: 0x10000E550, symSize: 0x20 }
  - { offsetInCU: 0x2AB95, offset: 0x2AB95, size: 0x8, addend: 0x0, symName: __ZNSt3__117__compressed_pairImNS_9allocatorINS_11__list_nodeINS_4pairINS_12basic_stringIcNS_11char_traitsIcEENS1_IcEEEEfEEPvEEEEE6secondB7v160006Ev, symObjAddr: 0xA6F0, symBinAddr: 0x10000E570, symSize: 0x20 }
  - { offsetInCU: 0x2ABBB, offset: 0x2ABBB, size: 0x8, addend: 0x0, symName: __ZNSt3__122__compressed_pair_elemINS_9allocatorINS_11__list_nodeINS_4pairINS_12basic_stringIcNS_11char_traitsIcEENS1_IcEEEEfEEPvEEEELi1ELb1EE5__getB7v160006Ev, symObjAddr: 0xA710, symBinAddr: 0x10000E590, symSize: 0x10 }
  - { offsetInCU: 0x2ABE1, offset: 0x2ABE1, size: 0x8, addend: 0x0, symName: __ZNSt3__116allocator_traitsINS_9allocatorINS_11__list_nodeINS_4pairINS_12basic_stringIcNS_11char_traitsIcEENS1_IcEEEEfEEPvEEEEE8allocateB7v160006ERSC_m, symObjAddr: 0xA720, symBinAddr: 0x10000E5A0, symSize: 0x30 }
  - { offsetInCU: 0x2AC14, offset: 0x2AC14, size: 0x8, addend: 0x0, symName: __ZNSt3__122__allocator_destructorINS_9allocatorINS_11__list_nodeINS_4pairINS_12basic_stringIcNS_11char_traitsIcEENS1_IcEEEEfEEPvEEEEEC1B7v160006ERSC_m, symObjAddr: 0xA750, symBinAddr: 0x10000E5D0, symSize: 0x30 }
  - { offsetInCU: 0x2AC5F, offset: 0x2AC5F, size: 0x8, addend: 0x0, symName: __ZNSt3__110unique_ptrINS_11__list_nodeINS_4pairINS_12basic_stringIcNS_11char_traitsIcEENS_9allocatorIcEEEEfEEPvEENS_22__allocator_destructorINS6_ISB_EEEEEC1B7v160006ILb1EvEEPSB_NS_16__dependent_typeINS_27__unique_ptr_deleter_sfinaeISE_EEXT_EE20__good_rval_ref_typeE, symObjAddr: 0xA780, symBinAddr: 0x10000E600, symSize: 0x30 }
  - { offsetInCU: 0x2ACB0, offset: 0x2ACB0, size: 0x8, addend: 0x0, symName: __ZNSt3__19allocatorINS_11__list_nodeINS_4pairINS_12basic_stringIcNS_11char_traitsIcEENS0_IcEEEEfEEPvEEE8allocateB7v160006Em, symObjAddr: 0xA7B0, symBinAddr: 0x10000E630, symSize: 0x50 }
  - { offsetInCU: 0x2ACE4, offset: 0x2ACE4, size: 0x8, addend: 0x0, symName: __ZNSt3__116allocator_traitsINS_9allocatorINS_11__list_nodeINS_4pairINS_12basic_stringIcNS_11char_traitsIcEENS1_IcEEEEfEEPvEEEEE8max_sizeB7v160006ISC_vEEmRKSC_, symObjAddr: 0xA800, symBinAddr: 0x10000E680, symSize: 0x20 }
  - { offsetInCU: 0x2AD12, offset: 0x2AD12, size: 0x8, addend: 0x0, symName: __ZNKSt3__19allocatorINS_11__list_nodeINS_4pairINS_12basic_stringIcNS_11char_traitsIcEENS0_IcEEEEfEEPvEEE8max_sizeB7v160006Ev, symObjAddr: 0xA820, symBinAddr: 0x10000E6A0, symSize: 0x20 }
  - { offsetInCU: 0x2AD38, offset: 0x2AD38, size: 0x8, addend: 0x0, symName: __ZNSt3__122__allocator_destructorINS_9allocatorINS_11__list_nodeINS_4pairINS_12basic_stringIcNS_11char_traitsIcEENS1_IcEEEEfEEPvEEEEEC2B7v160006ERSC_m, symObjAddr: 0xA840, symBinAddr: 0x10000E6C0, symSize: 0x30 }
  - { offsetInCU: 0x2AD7E, offset: 0x2AD7E, size: 0x8, addend: 0x0, symName: __ZNSt3__110unique_ptrINS_11__list_nodeINS_4pairINS_12basic_stringIcNS_11char_traitsIcEENS_9allocatorIcEEEEfEEPvEENS_22__allocator_destructorINS6_ISB_EEEEEC2B7v160006ILb1EvEEPSB_NS_16__dependent_typeINS_27__unique_ptr_deleter_sfinaeISE_EEXT_EE20__good_rval_ref_typeE, symObjAddr: 0xA870, symBinAddr: 0x10000E6F0, symSize: 0x40 }
  - { offsetInCU: 0x2ADCF, offset: 0x2ADCF, size: 0x8, addend: 0x0, symName: __ZNSt3__117__compressed_pairIPNS_11__list_nodeINS_4pairINS_12basic_stringIcNS_11char_traitsIcEENS_9allocatorIcEEEEfEEPvEENS_22__allocator_destructorINS6_ISB_EEEEEC1B7v160006IRSC_SF_EEOT_OT0_, symObjAddr: 0xA8B0, symBinAddr: 0x10000E730, symSize: 0x30 }
  - { offsetInCU: 0x2AE27, offset: 0x2AE27, size: 0x8, addend: 0x0, symName: __ZNSt3__117__compressed_pairIPNS_11__list_nodeINS_4pairINS_12basic_stringIcNS_11char_traitsIcEENS_9allocatorIcEEEEfEEPvEENS_22__allocator_destructorINS6_ISB_EEEEEC2B7v160006IRSC_SF_EEOT_OT0_, symObjAddr: 0xA8E0, symBinAddr: 0x10000E760, symSize: 0x40 }
  - { offsetInCU: 0x2AE7F, offset: 0x2AE7F, size: 0x8, addend: 0x0, symName: __ZNSt3__122__compressed_pair_elemIPNS_11__list_nodeINS_4pairINS_12basic_stringIcNS_11char_traitsIcEENS_9allocatorIcEEEEfEEPvEELi0ELb0EEC2B7v160006IRSC_vEEOT_, symObjAddr: 0xA920, symBinAddr: 0x10000E7A0, symSize: 0x20 }
  - { offsetInCU: 0x2AEC1, offset: 0x2AEC1, size: 0x8, addend: 0x0, symName: __ZNSt3__122__compressed_pair_elemINS_22__allocator_destructorINS_9allocatorINS_11__list_nodeINS_4pairINS_12basic_stringIcNS_11char_traitsIcEENS2_IcEEEEfEEPvEEEEEELi1ELb0EEC2B7v160006ISE_vEEOT_, symObjAddr: 0xA940, symBinAddr: 0x10000E7C0, symSize: 0x30 }
  - { offsetInCU: 0x2AF03, offset: 0x2AF03, size: 0x8, addend: 0x0, symName: __ZNSt3__19allocatorINS_11__list_nodeINS_4pairINS_12basic_stringIcNS_11char_traitsIcEENS0_IcEEEEfEEPvEEE9constructB7v160006IS8_JRKS8_EEEvPT_DpOT0_, symObjAddr: 0xA970, symBinAddr: 0x10000E7F0, symSize: 0x30 }
  - { offsetInCU: 0x2AF59, offset: 0x2AF59, size: 0x8, addend: 0x0, symName: __ZNKSt3__117__compressed_pairIPNS_11__list_nodeINS_4pairINS_12basic_stringIcNS_11char_traitsIcEENS_9allocatorIcEEEEfEEPvEENS_22__allocator_destructorINS6_ISB_EEEEE5firstB7v160006Ev, symObjAddr: 0xA9A0, symBinAddr: 0x10000E820, symSize: 0x20 }
  - { offsetInCU: 0x2AF7F, offset: 0x2AF7F, size: 0x8, addend: 0x0, symName: __ZNKSt3__122__compressed_pair_elemIPNS_11__list_nodeINS_4pairINS_12basic_stringIcNS_11char_traitsIcEENS_9allocatorIcEEEEfEEPvEELi0ELb0EE5__getB7v160006Ev, symObjAddr: 0xA9C0, symBinAddr: 0x10000E840, symSize: 0x10 }
  - { offsetInCU: 0x2AFA5, offset: 0x2AFA5, size: 0x8, addend: 0x0, symName: __ZNSt3__117__compressed_pairImNS_9allocatorINS_11__list_nodeINS_4pairINS_12basic_stringIcNS_11char_traitsIcEENS1_IcEEEEfEEPvEEEEE5firstB7v160006Ev, symObjAddr: 0xA9D0, symBinAddr: 0x10000E850, symSize: 0x20 }
  - { offsetInCU: 0x2AFCB, offset: 0x2AFCB, size: 0x8, addend: 0x0, symName: __ZNSt3__117__compressed_pairIPNS_11__list_nodeINS_4pairINS_12basic_stringIcNS_11char_traitsIcEENS_9allocatorIcEEEEfEEPvEENS_22__allocator_destructorINS6_ISB_EEEEE5firstB7v160006Ev, symObjAddr: 0xA9F0, symBinAddr: 0x10000E870, symSize: 0x20 }
  - { offsetInCU: 0x2AFF1, offset: 0x2AFF1, size: 0x8, addend: 0x0, symName: __ZNSt3__122__compressed_pair_elemIPNS_11__list_nodeINS_4pairINS_12basic_stringIcNS_11char_traitsIcEENS_9allocatorIcEEEEfEEPvEELi0ELb0EE5__getB7v160006Ev, symObjAddr: 0xAA10, symBinAddr: 0x10000E890, symSize: 0x10 }
  - { offsetInCU: 0x2B017, offset: 0x2B017, size: 0x8, addend: 0x0, symName: __ZNSt3__110unique_ptrINS_11__list_nodeINS_4pairINS_12basic_stringIcNS_11char_traitsIcEENS_9allocatorIcEEEEfEEPvEENS_22__allocator_destructorINS6_ISB_EEEEED2B7v160006Ev, symObjAddr: 0xAA20, symBinAddr: 0x10000E8A0, symSize: 0x20 }
  - { offsetInCU: 0x2B041, offset: 0x2B041, size: 0x8, addend: 0x0, symName: __ZNSt3__110unique_ptrINS_11__list_nodeINS_4pairINS_12basic_stringIcNS_11char_traitsIcEENS_9allocatorIcEEEEfEEPvEENS_22__allocator_destructorINS6_ISB_EEEEE5resetB7v160006EPSB_, symObjAddr: 0xAA40, symBinAddr: 0x10000E8C0, symSize: 0x70 }
  - { offsetInCU: 0x2B085, offset: 0x2B085, size: 0x8, addend: 0x0, symName: __ZNSt3__117__compressed_pairIPNS_11__list_nodeINS_4pairINS_12basic_stringIcNS_11char_traitsIcEENS_9allocatorIcEEEEfEEPvEENS_22__allocator_destructorINS6_ISB_EEEEE6secondB7v160006Ev, symObjAddr: 0xAAB0, symBinAddr: 0x10000E930, symSize: 0x20 }
  - { offsetInCU: 0x2B0AB, offset: 0x2B0AB, size: 0x8, addend: 0x0, symName: __ZNSt3__122__allocator_destructorINS_9allocatorINS_11__list_nodeINS_4pairINS_12basic_stringIcNS_11char_traitsIcEENS1_IcEEEEfEEPvEEEEEclB7v160006EPSB_, symObjAddr: 0xAAD0, symBinAddr: 0x10000E950, symSize: 0x30 }
  - { offsetInCU: 0x2B0DF, offset: 0x2B0DF, size: 0x8, addend: 0x0, symName: __ZNSt3__122__compressed_pair_elemINS_22__allocator_destructorINS_9allocatorINS_11__list_nodeINS_4pairINS_12basic_stringIcNS_11char_traitsIcEENS2_IcEEEEfEEPvEEEEEELi1ELb0EE5__getB7v160006Ev, symObjAddr: 0xAB00, symBinAddr: 0x10000E980, symSize: 0x10 }
  - { offsetInCU: 0x2B105, offset: 0x2B105, size: 0x8, addend: 0x0, symName: __ZNSt3__116allocator_traitsINS_9allocatorINS_11__list_nodeINS_4pairINS_12basic_stringIcNS_11char_traitsIcEENS1_IcEEEEfEEPvEEEEE10deallocateB7v160006ERSC_PSB_m, symObjAddr: 0xAB10, symBinAddr: 0x10000E990, symSize: 0x30 }
  - { offsetInCU: 0x2B147, offset: 0x2B147, size: 0x8, addend: 0x0, symName: __ZNSt3__19allocatorINS_11__list_nodeINS_4pairINS_12basic_stringIcNS_11char_traitsIcEENS0_IcEEEEfEEPvEEE10deallocateB7v160006EPSA_m, symObjAddr: 0xAB40, symBinAddr: 0x10000E9C0, symSize: 0x50 }
  - { offsetInCU: 0x2B189, offset: 0x2B189, size: 0x8, addend: 0x0, symName: __ZNSt3__116__list_node_baseINS_4pairINS_12basic_stringIcNS_11char_traitsIcEENS_9allocatorIcEEEEfEEPvE9__as_nodeB7v160006Ev, symObjAddr: 0xAB90, symBinAddr: 0x10000EA10, symSize: 0x20 }
  - { offsetInCU: 0x2B1AF, offset: 0x2B1AF, size: 0x8, addend: 0x0, symName: __ZNSt3__110__list_impINS_4pairINS_12basic_stringIcNS_11char_traitsIcEENS_9allocatorIcEEEEfEENS5_IS8_EEE5clearEv, symObjAddr: 0xABB0, symBinAddr: 0x10000EA30, symSize: 0xE0 }
  - { offsetInCU: 0x2B21F, offset: 0x2B21F, size: 0x8, addend: 0x0, symName: __ZNKSt3__110__list_impINS_4pairINS_12basic_stringIcNS_11char_traitsIcEENS_9allocatorIcEEEEfEENS5_IS8_EEE5emptyB7v160006Ev, symObjAddr: 0xACA0, symBinAddr: 0x10000EB20, symSize: 0x30 }
  - { offsetInCU: 0x2B245, offset: 0x2B245, size: 0x8, addend: 0x0, symName: __ZNSt3__110__list_impINS_4pairINS_12basic_stringIcNS_11char_traitsIcEENS_9allocatorIcEEEEfEENS5_IS8_EEE14__unlink_nodesEPNS_16__list_node_baseIS8_PvEESE_, symObjAddr: 0xACD0, symBinAddr: 0x10000EB50, symSize: 0x40 }
  - { offsetInCU: 0x2B27A, offset: 0x2B27A, size: 0x8, addend: 0x0, symName: __ZNSt3__116allocator_traitsINS_9allocatorINS_11__list_nodeINS_4pairINS_12basic_stringIcNS_11char_traitsIcEENS1_IcEEEEfEEPvEEEEE7destroyB7v160006IS9_vvEEvRSC_PT_, symObjAddr: 0xAD10, symBinAddr: 0x10000EB90, symSize: 0x20 }
  - { offsetInCU: 0x2B2B5, offset: 0x2B2B5, size: 0x8, addend: 0x0, symName: __ZNKSt3__110__list_impINS_4pairINS_12basic_stringIcNS_11char_traitsIcEENS_9allocatorIcEEEEfEENS5_IS8_EEE4__szB7v160006Ev, symObjAddr: 0xAD40, symBinAddr: 0x10000EBC0, symSize: 0x20 }
  - { offsetInCU: 0x2B2DB, offset: 0x2B2DB, size: 0x8, addend: 0x0, symName: __ZNKSt3__117__compressed_pairImNS_9allocatorINS_11__list_nodeINS_4pairINS_12basic_stringIcNS_11char_traitsIcEENS1_IcEEEEfEEPvEEEEE5firstB7v160006Ev, symObjAddr: 0xAD60, symBinAddr: 0x10000EBE0, symSize: 0x20 }
  - { offsetInCU: 0x2B301, offset: 0x2B301, size: 0x8, addend: 0x0, symName: __ZNSt3__14pairIKNS_12basic_stringIcNS_11char_traitsIcEENS_9allocatorIcEEEENS_4listINS0_IS6_fEENS4_IS9_EEEEED2Ev, symObjAddr: 0xAD80, symBinAddr: 0x10000EC00, symSize: 0x30 }
  - { offsetInCU: 0x2B32D, offset: 0x2B32D, size: 0x8, addend: 0x0, symName: __ZNSt3__14listINS_4pairINS_12basic_stringIcNS_11char_traitsIcEENS_9allocatorIcEEEEfEENS5_IS8_EEED1Ev, symObjAddr: 0xADB0, symBinAddr: 0x10000EC30, symSize: 0x20 }
  - { offsetInCU: 0x2B35A, offset: 0x2B35A, size: 0x8, addend: 0x0, symName: __ZNSt3__14listINS_4pairINS_12basic_stringIcNS_11char_traitsIcEENS_9allocatorIcEEEEfEENS5_IS8_EEED2Ev, symObjAddr: 0xADD0, symBinAddr: 0x10000EC50, symSize: 0x20 }
  - { offsetInCU: 0x2B38C, offset: 0x2B38C, size: 0x8, addend: 0x0, symName: __ZNSt3__14pairIdNS_12basic_stringIcNS_11char_traitsIcEENS_9allocatorIcEEEEEC1B7v160006IdRS6_LPv0EEEOT_OT0_, symObjAddr: 0xADF0, symBinAddr: 0x10000EC70, symSize: 0x30 }
  - { offsetInCU: 0x2B3EA, offset: 0x2B3EA, size: 0x8, addend: 0x0, symName: __ZNSt3__14pairIdNS_12basic_stringIcNS_11char_traitsIcEENS_9allocatorIcEEEEEC2B7v160006IdRS6_LPv0EEEOT_OT0_, symObjAddr: 0xAE20, symBinAddr: 0x10000ECA0, symSize: 0x40 }
  - { offsetInCU: 0x2B448, offset: 0x2B448, size: 0x8, addend: 0x0, symName: __ZNSt3__14pairIfNS_12basic_stringIcNS_11char_traitsIcEENS_9allocatorIcEEEEEC2B7v160006IdS6_LPv0EEEONS0_IT_T0_EE, symObjAddr: 0xAE60, symBinAddr: 0x10000ECE0, symSize: 0x40 }
  - { offsetInCU: 0x2B499, offset: 0x2B499, size: 0x8, addend: 0x0, symName: __ZNSt3__112basic_stringIcNS_11char_traitsIcEENS_9allocatorIcEEEC1B7v160006EOS5_, symObjAddr: 0xAEA0, symBinAddr: 0x10000ED20, symSize: 0x30 }
  - { offsetInCU: 0x2B4D2, offset: 0x2B4D2, size: 0x8, addend: 0x0, symName: __ZNSt3__112basic_stringIcNS_11char_traitsIcEENS_9allocatorIcEEEC2B7v160006EOS5_, symObjAddr: 0xAED0, symBinAddr: 0x10000ED50, symSize: 0x90 }
  - { offsetInCU: 0x2B50B, offset: 0x2B50B, size: 0x8, addend: 0x0, symName: __ZNSt3__112basic_stringIcNS_11char_traitsIcEENS_9allocatorIcEEE14__default_initB7v160006Ev, symObjAddr: 0xAF60, symBinAddr: 0x10000EDE0, symSize: 0x50 }
  - { offsetInCU: 0x2B531, offset: 0x2B531, size: 0x8, addend: 0x0, symName: __ZNKSt3__112basic_stringIcNS_11char_traitsIcEENS_9allocatorIcEEE9__is_longB7v160006Ev, symObjAddr: 0xAFC0, symBinAddr: 0x10000EE40, symSize: 0x30 }
  - { offsetInCU: 0x2B557, offset: 0x2B557, size: 0x8, addend: 0x0, symName: __ZNSt3__117__compressed_pairINS_12basic_stringIcNS_11char_traitsIcEENS_9allocatorIcEEE5__repES5_E5firstB7v160006Ev, symObjAddr: 0xB000, symBinAddr: 0x10000EE80, symSize: 0x20 }
  - { offsetInCU: 0x2B57D, offset: 0x2B57D, size: 0x8, addend: 0x0, symName: __ZNSt3__122__compressed_pair_elemINS_12basic_stringIcNS_11char_traitsIcEENS_9allocatorIcEEE5__repELi0ELb0EE5__getB7v160006Ev, symObjAddr: 0xB020, symBinAddr: 0x10000EEA0, symSize: 0x10 }
  - { offsetInCU: 0x2B5A3, offset: 0x2B5A3, size: 0x8, addend: 0x0, symName: __ZNKSt3__117__compressed_pairINS_12basic_stringIcNS_11char_traitsIcEENS_9allocatorIcEEE5__repES5_E5firstB7v160006Ev, symObjAddr: 0xB030, symBinAddr: 0x10000EEB0, symSize: 0x20 }
  - { offsetInCU: 0x2B5C9, offset: 0x2B5C9, size: 0x8, addend: 0x0, symName: __ZNKSt3__122__compressed_pair_elemINS_12basic_stringIcNS_11char_traitsIcEENS_9allocatorIcEEE5__repELi0ELb0EE5__getB7v160006Ev, symObjAddr: 0xB050, symBinAddr: 0x10000EED0, symSize: 0x10 }
  - { offsetInCU: 0x2B5EF, offset: 0x2B5EF, size: 0x8, addend: 0x0, symName: __ZNSt3__14pairIfNS_12basic_stringIcNS_11char_traitsIcEENS_9allocatorIcEEEEED2Ev, symObjAddr: 0xB060, symBinAddr: 0x10000EEE0, symSize: 0x20 }
  - { offsetInCU: 0x2B61B, offset: 0x2B61B, size: 0x8, addend: 0x0, symName: __ZNSt3__14pairIdNS_12basic_stringIcNS_11char_traitsIcEENS_9allocatorIcEEEEED2Ev, symObjAddr: 0xB080, symBinAddr: 0x10000EF00, symSize: 0x20 }
  - { offsetInCU: 0x2B647, offset: 0x2B647, size: 0x8, addend: 0x0, symName: __ZNSt3__14pairIfNS_12basic_stringIcNS_11char_traitsIcEENS_9allocatorIcEEEEEC2ERKS7_, symObjAddr: 0xB0A0, symBinAddr: 0x10000EF20, symSize: 0x40 }
  - { offsetInCU: 0x2B67C, offset: 0x2B67C, size: 0x8, addend: 0x0, symName: __ZNSt3__14pairINS_12basic_stringIcNS_11char_traitsIcEENS_9allocatorIcEEEEfEC2ERKS7_, symObjAddr: 0xB0E0, symBinAddr: 0x10000EF60, symSize: 0x40 }
  - { offsetInCU: 0x2B6B1, offset: 0x2B6B1, size: 0x8, addend: 0x0, symName: __ZNSt3__14pairIfNS_12basic_stringIcNS_11char_traitsIcEENS_9allocatorIcEEEEEC1B7v160006IRfRS6_LPv0EEEOT_OT0_, symObjAddr: 0xB120, symBinAddr: 0x10000EFA0, symSize: 0x30 }
  - { offsetInCU: 0x2B70F, offset: 0x2B70F, size: 0x8, addend: 0x0, symName: __ZNSt3__14pairIfNS_12basic_stringIcNS_11char_traitsIcEENS_9allocatorIcEEEEEC2B7v160006IRfRS6_LPv0EEEOT_OT0_, symObjAddr: 0xB150, symBinAddr: 0x10000EFD0, symSize: 0x40 }
  - { offsetInCU: 0x2B76D, offset: 0x2B76D, size: 0x8, addend: 0x0, symName: __ZNSt3__14pairINS_12basic_stringIcNS_11char_traitsIcEENS_9allocatorIcEEEEfED2Ev, symObjAddr: 0xB190, symBinAddr: 0x10000F010, symSize: 0x20 }
  - { offsetInCU: 0x2B799, offset: 0x2B799, size: 0x8, addend: 0x0, symName: __ZN8CustomerC2Ev, symObjAddr: 0xB1B0, symBinAddr: 0x10000F030, symSize: 0x140 }
  - { offsetInCU: 0x2B7C3, offset: 0x2B7C3, size: 0x8, addend: 0x0, symName: __ZNSt3__112basic_stringIcNS_11char_traitsIcEENS_9allocatorIcEEEixB7v160006Em, symObjAddr: 0xB2F0, symBinAddr: 0x10000F170, symSize: 0x30 }
  - { offsetInCU: 0x2B7F8, offset: 0x2B7F8, size: 0x8, addend: 0x0, symName: __ZNKSt3__113unordered_mapIcP9trie_nodeNS_4hashIcEENS_8equal_toIcEENS_9allocatorINS_4pairIKcS2_EEEEE5countB7v160006ERS9_, symObjAddr: 0xB320, symBinAddr: 0x10000F1A0, symSize: 0x30 }
  - { offsetInCU: 0x2B82D, offset: 0x2B82D, size: 0x8, addend: 0x0, symName: __ZNSt3__113unordered_mapIcP9trie_nodeNS_4hashIcEENS_8equal_toIcEENS_9allocatorINS_4pairIKcS2_EEEEEixERS9_, symObjAddr: 0xB350, symBinAddr: 0x10000F1D0, symSize: 0x70 }
  - { offsetInCU: 0x2B864, offset: 0x2B864, size: 0x8, addend: 0x0, symName: __ZN9trie_nodeC1Ec, symObjAddr: 0xB3C0, symBinAddr: 0x10000F240, symSize: 0x30 }
  - { offsetInCU: 0x2B89C, offset: 0x2B89C, size: 0x8, addend: 0x0, symName: __ZNSt3__112basic_stringIcNS_11char_traitsIcEENS_9allocatorIcEEE13__get_pointerB7v160006Ev, symObjAddr: 0xB3F0, symBinAddr: 0x10000F270, symSize: 0x50 }
  - { offsetInCU: 0x2B8C2, offset: 0x2B8C2, size: 0x8, addend: 0x0, symName: __ZNSt3__112basic_stringIcNS_11char_traitsIcEENS_9allocatorIcEEE18__get_long_pointerB7v160006Ev, symObjAddr: 0xB440, symBinAddr: 0x10000F2C0, symSize: 0x20 }
  - { offsetInCU: 0x2B8E8, offset: 0x2B8E8, size: 0x8, addend: 0x0, symName: __ZNSt3__112basic_stringIcNS_11char_traitsIcEENS_9allocatorIcEEE19__get_short_pointerB7v160006Ev, symObjAddr: 0xB460, symBinAddr: 0x10000F2E0, symSize: 0x30 }
  - { offsetInCU: 0x2B90E, offset: 0x2B90E, size: 0x8, addend: 0x0, symName: __ZNSt3__114pointer_traitsIPcE10pointer_toB7v160006ERc, symObjAddr: 0xB490, symBinAddr: 0x10000F310, symSize: 0x10 }
  - { offsetInCU: 0x2B931, offset: 0x2B931, size: 0x8, addend: 0x0, symName: __ZNKSt3__112__hash_tableINS_17__hash_value_typeIcP9trie_nodeEENS_22__unordered_map_hasherIcS4_NS_4hashIcEENS_8equal_toIcEELb1EEENS_21__unordered_map_equalIcS4_S9_S7_Lb1EEENS_9allocatorIS4_EEE14__count_uniqueIcEEmRKT_, symObjAddr: 0xB4A0, symBinAddr: 0x10000F320, symSize: 0x50 }
  - { offsetInCU: 0x2B971, offset: 0x2B971, size: 0x8, addend: 0x0, symName: __ZNKSt3__112__hash_tableINS_17__hash_value_typeIcP9trie_nodeEENS_22__unordered_map_hasherIcS4_NS_4hashIcEENS_8equal_toIcEELb1EEENS_21__unordered_map_equalIcS4_S9_S7_Lb1EEENS_9allocatorIS4_EEE4findIcEENS_21__hash_const_iteratorIPNS_11__hash_nodeIS4_PvEEEERKT_, symObjAddr: 0xB520, symBinAddr: 0x10000F3A0, symSize: 0x190 }
  - { offsetInCU: 0x2B9FB, offset: 0x2B9FB, size: 0x8, addend: 0x0, symName: __ZNKSt3__112__hash_tableINS_17__hash_value_typeIcP9trie_nodeEENS_22__unordered_map_hasherIcS4_NS_4hashIcEENS_8equal_toIcEELb1EEENS_21__unordered_map_equalIcS4_S9_S7_Lb1EEENS_9allocatorIS4_EEE3endEv, symObjAddr: 0xB6B0, symBinAddr: 0x10000F530, symSize: 0x30 }
  - { offsetInCU: 0x2BA23, offset: 0x2BA23, size: 0x8, addend: 0x0, symName: __ZNKSt3__112__hash_tableINS_17__hash_value_typeIcP9trie_nodeEENS_22__unordered_map_hasherIcS4_NS_4hashIcEENS_8equal_toIcEELb1EEENS_21__unordered_map_equalIcS4_S9_S7_Lb1EEENS_9allocatorIS4_EEE13hash_functionB7v160006Ev, symObjAddr: 0xB710, symBinAddr: 0x10000F590, symSize: 0x20 }
  - { offsetInCU: 0x2BA49, offset: 0x2BA49, size: 0x8, addend: 0x0, symName: __ZNKSt3__122__unordered_map_hasherIcNS_17__hash_value_typeIcP9trie_nodeEENS_4hashIcEENS_8equal_toIcEELb1EEclB7v160006ERKc, symObjAddr: 0xB730, symBinAddr: 0x10000F5B0, symSize: 0x30 }
  - { offsetInCU: 0x2BA7E, offset: 0x2BA7E, size: 0x8, addend: 0x0, symName: __ZNKSt3__112__hash_tableINS_17__hash_value_typeIcP9trie_nodeEENS_22__unordered_map_hasherIcS4_NS_4hashIcEENS_8equal_toIcEELb1EEENS_21__unordered_map_equalIcS4_S9_S7_Lb1EEENS_9allocatorIS4_EEE12bucket_countB7v160006Ev, symObjAddr: 0xB760, symBinAddr: 0x10000F5E0, symSize: 0x30 }
  - { offsetInCU: 0x2BAA4, offset: 0x2BAA4, size: 0x8, addend: 0x0, symName: __ZNKSt3__110unique_ptrIA_PNS_16__hash_node_baseIPNS_11__hash_nodeINS_17__hash_value_typeIcP9trie_nodeEEPvEEEENS_25__bucket_list_deallocatorINS_9allocatorISB_EEEEEixB7v160006Em, symObjAddr: 0xB810, symBinAddr: 0x10000F690, symSize: 0x30 }
  - { offsetInCU: 0x2BAD9, offset: 0x2BAD9, size: 0x8, addend: 0x0, symName: __ZNKSt3__116__hash_node_baseIPNS_11__hash_nodeINS_17__hash_value_typeIcP9trie_nodeEEPvEEE6__hashB7v160006Ev, symObjAddr: 0xB840, symBinAddr: 0x10000F6C0, symSize: 0x20 }
  - { offsetInCU: 0x2BAFF, offset: 0x2BAFF, size: 0x8, addend: 0x0, symName: __ZNKSt3__112__hash_tableINS_17__hash_value_typeIcP9trie_nodeEENS_22__unordered_map_hasherIcS4_NS_4hashIcEENS_8equal_toIcEELb1EEENS_21__unordered_map_equalIcS4_S9_S7_Lb1EEENS_9allocatorIS4_EEE6key_eqB7v160006Ev, symObjAddr: 0xB860, symBinAddr: 0x10000F6E0, symSize: 0x20 }
  - { offsetInCU: 0x2BB25, offset: 0x2BB25, size: 0x8, addend: 0x0, symName: __ZNKSt3__121__unordered_map_equalIcNS_17__hash_value_typeIcP9trie_nodeEENS_8equal_toIcEENS_4hashIcEELb1EEclB7v160006ERKS4_RKc, symObjAddr: 0xB880, symBinAddr: 0x10000F700, symSize: 0x40 }
  - { offsetInCU: 0x2BB69, offset: 0x2BB69, size: 0x8, addend: 0x0, symName: __ZNSt3__116__hash_node_baseIPNS_11__hash_nodeINS_17__hash_value_typeIcP9trie_nodeEEPvEEE8__upcastB7v160006Ev, symObjAddr: 0xB8C0, symBinAddr: 0x10000F740, symSize: 0x20 }
  - { offsetInCU: 0x2BB8F, offset: 0x2BB8F, size: 0x8, addend: 0x0, symName: __ZNSt3__121__hash_const_iteratorIPNS_11__hash_nodeINS_17__hash_value_typeIcP9trie_nodeEEPvEEEC1B7v160006EPNS_16__hash_node_baseIS8_EEPKv, symObjAddr: 0xB8E0, symBinAddr: 0x10000F760, symSize: 0x30 }
  - { offsetInCU: 0x2BBD7, offset: 0x2BBD7, size: 0x8, addend: 0x0, symName: __ZNKSt3__117__compressed_pairImNS_22__unordered_map_hasherIcNS_17__hash_value_typeIcP9trie_nodeEENS_4hashIcEENS_8equal_toIcEELb1EEEE6secondB7v160006Ev, symObjAddr: 0xB910, symBinAddr: 0x10000F790, symSize: 0x20 }
  - { offsetInCU: 0x2BBFD, offset: 0x2BBFD, size: 0x8, addend: 0x0, symName: __ZNKSt3__122__compressed_pair_elemINS_22__unordered_map_hasherIcNS_17__hash_value_typeIcP9trie_nodeEENS_4hashIcEENS_8equal_toIcEELb1EEELi1ELb1EE5__getB7v160006Ev, symObjAddr: 0xB930, symBinAddr: 0x10000F7B0, symSize: 0x10 }
  - { offsetInCU: 0x2BC23, offset: 0x2BC23, size: 0x8, addend: 0x0, symName: __ZNKSt3__14hashIcEclB7v160006Ec, symObjAddr: 0xB940, symBinAddr: 0x10000F7C0, symSize: 0x20 }
  - { offsetInCU: 0x2BC58, offset: 0x2BC58, size: 0x8, addend: 0x0, symName: __ZNKSt3__110unique_ptrIA_PNS_16__hash_node_baseIPNS_11__hash_nodeINS_17__hash_value_typeIcP9trie_nodeEEPvEEEENS_25__bucket_list_deallocatorINS_9allocatorISB_EEEEE11get_deleterB7v160006Ev, symObjAddr: 0xB960, symBinAddr: 0x10000F7E0, symSize: 0x20 }
  - { offsetInCU: 0x2BC7E, offset: 0x2BC7E, size: 0x8, addend: 0x0, symName: __ZNKSt3__125__bucket_list_deallocatorINS_9allocatorIPNS_16__hash_node_baseIPNS_11__hash_nodeINS_17__hash_value_typeIcP9trie_nodeEEPvEEEEEEE4sizeB7v160006Ev, symObjAddr: 0xB980, symBinAddr: 0x10000F800, symSize: 0x20 }
  - { offsetInCU: 0x2BCA4, offset: 0x2BCA4, size: 0x8, addend: 0x0, symName: __ZNKSt3__117__compressed_pairIPPNS_16__hash_node_baseIPNS_11__hash_nodeINS_17__hash_value_typeIcP9trie_nodeEEPvEEEENS_25__bucket_list_deallocatorINS_9allocatorISB_EEEEE6secondB7v160006Ev, symObjAddr: 0xB9A0, symBinAddr: 0x10000F820, symSize: 0x20 }
  - { offsetInCU: 0x2BCCA, offset: 0x2BCCA, size: 0x8, addend: 0x0, symName: __ZNKSt3__122__compressed_pair_elemINS_25__bucket_list_deallocatorINS_9allocatorIPNS_16__hash_node_baseIPNS_11__hash_nodeINS_17__hash_value_typeIcP9trie_nodeEEPvEEEEEEEELi1ELb0EE5__getB7v160006Ev, symObjAddr: 0xB9C0, symBinAddr: 0x10000F840, symSize: 0x10 }
  - { offsetInCU: 0x2BCF0, offset: 0x2BCF0, size: 0x8, addend: 0x0, symName: __ZNKSt3__117__compressed_pairImNS_9allocatorIPNS_16__hash_node_baseIPNS_11__hash_nodeINS_17__hash_value_typeIcP9trie_nodeEEPvEEEEEEE5firstB7v160006Ev, symObjAddr: 0xB9D0, symBinAddr: 0x10000F850, symSize: 0x20 }
  - { offsetInCU: 0x2BD16, offset: 0x2BD16, size: 0x8, addend: 0x0, symName: __ZNKSt3__117__compressed_pairIPPNS_16__hash_node_baseIPNS_11__hash_nodeINS_17__hash_value_typeIcP9trie_nodeEEPvEEEENS_25__bucket_list_deallocatorINS_9allocatorISB_EEEEE5firstB7v160006Ev, symObjAddr: 0xB9F0, symBinAddr: 0x10000F870, symSize: 0x20 }
  - { offsetInCU: 0x2BD3C, offset: 0x2BD3C, size: 0x8, addend: 0x0, symName: __ZNKSt3__122__compressed_pair_elemIPPNS_16__hash_node_baseIPNS_11__hash_nodeINS_17__hash_value_typeIcP9trie_nodeEEPvEEEELi0ELb0EE5__getB7v160006Ev, symObjAddr: 0xBA10, symBinAddr: 0x10000F890, symSize: 0x10 }
  - { offsetInCU: 0x2BD62, offset: 0x2BD62, size: 0x8, addend: 0x0, symName: __ZNKSt3__117__compressed_pairIfNS_21__unordered_map_equalIcNS_17__hash_value_typeIcP9trie_nodeEENS_8equal_toIcEENS_4hashIcEELb1EEEE6secondB7v160006Ev, symObjAddr: 0xBA20, symBinAddr: 0x10000F8A0, symSize: 0x20 }
  - { offsetInCU: 0x2BD88, offset: 0x2BD88, size: 0x8, addend: 0x0, symName: __ZNKSt3__122__compressed_pair_elemINS_21__unordered_map_equalIcNS_17__hash_value_typeIcP9trie_nodeEENS_8equal_toIcEENS_4hashIcEELb1EEELi1ELb1EE5__getB7v160006Ev, symObjAddr: 0xBA40, symBinAddr: 0x10000F8C0, symSize: 0x10 }
  - { offsetInCU: 0x2BDAE, offset: 0x2BDAE, size: 0x8, addend: 0x0, symName: __ZNKSt3__18equal_toIcEclB7v160006ERKcS3_, symObjAddr: 0xBA50, symBinAddr: 0x10000F8D0, symSize: 0x30 }
  - { offsetInCU: 0x2BDF2, offset: 0x2BDF2, size: 0x8, addend: 0x0, symName: __ZNKSt3__117__hash_value_typeIcP9trie_nodeE11__get_valueB7v160006Ev, symObjAddr: 0xBA80, symBinAddr: 0x10000F900, symSize: 0x10 }
  - { offsetInCU: 0x2BE18, offset: 0x2BE18, size: 0x8, addend: 0x0, symName: __ZNSt3__114pointer_traitsIPNS_16__hash_node_baseIPNS_11__hash_nodeINS_17__hash_value_typeIcP9trie_nodeEEPvEEEEE10pointer_toB7v160006ERSA_, symObjAddr: 0xBA90, symBinAddr: 0x10000F910, symSize: 0x10 }
  - { offsetInCU: 0x2BE3B, offset: 0x2BE3B, size: 0x8, addend: 0x0, symName: __ZNSt3__121__hash_const_iteratorIPNS_11__hash_nodeINS_17__hash_value_typeIcP9trie_nodeEEPvEEEC2B7v160006EPNS_16__hash_node_baseIS8_EEPKv, symObjAddr: 0xBAA0, symBinAddr: 0x10000F920, symSize: 0x20 }
  - { offsetInCU: 0x2BE97, offset: 0x2BE97, size: 0x8, addend: 0x0, symName: __ZNSt3__112__hash_tableINS_17__hash_value_typeIcP9trie_nodeEENS_22__unordered_map_hasherIcS4_NS_4hashIcEENS_8equal_toIcEELb1EEENS_21__unordered_map_equalIcS4_S9_S7_Lb1EEENS_9allocatorIS4_EEE25__emplace_unique_key_argsIcJRKNS_21piecewise_construct_tENS_5tupleIJRKcEEENSK_IJEEEEEENS_4pairINS_15__hash_iteratorIPNS_11__hash_nodeIS4_PvEEEEbEERKT_DpOT0_, symObjAddr: 0xBAC0, symBinAddr: 0x10000F940, symSize: 0x5D0 }
  - { offsetInCU: 0x2BF9F, offset: 0x2BF9F, size: 0x8, addend: 0x0, symName: __ZNKSt3__115__hash_iteratorIPNS_11__hash_nodeINS_17__hash_value_typeIcP9trie_nodeEEPvEEEptB7v160006Ev, symObjAddr: 0xC0D0, symBinAddr: 0x10000FF50, symSize: 0x30 }
  - { offsetInCU: 0x2BFC5, offset: 0x2BFC5, size: 0x8, addend: 0x0, symName: __ZNSt3__117__hash_value_typeIcP9trie_nodeE11__get_valueB7v160006Ev, symObjAddr: 0xC100, symBinAddr: 0x10000FF80, symSize: 0x10 }
  - { offsetInCU: 0x2BFEB, offset: 0x2BFEB, size: 0x8, addend: 0x0, symName: __ZNSt3__112__hash_tableINS_17__hash_value_typeIcP9trie_nodeEENS_22__unordered_map_hasherIcS4_NS_4hashIcEENS_8equal_toIcEELb1EEENS_21__unordered_map_equalIcS4_S9_S7_Lb1EEENS_9allocatorIS4_EEE13hash_functionB7v160006Ev, symObjAddr: 0xC110, symBinAddr: 0x10000FF90, symSize: 0x20 }
  - { offsetInCU: 0x2C011, offset: 0x2C011, size: 0x8, addend: 0x0, symName: __ZNSt3__112__hash_tableINS_17__hash_value_typeIcP9trie_nodeEENS_22__unordered_map_hasherIcS4_NS_4hashIcEENS_8equal_toIcEELb1EEENS_21__unordered_map_equalIcS4_S9_S7_Lb1EEENS_9allocatorIS4_EEE6key_eqB7v160006Ev, symObjAddr: 0xC130, symBinAddr: 0x10000FFB0, symSize: 0x20 }
  - { offsetInCU: 0x2C037, offset: 0x2C037, size: 0x8, addend: 0x0, symName: __ZNSt3__112__hash_tableINS_17__hash_value_typeIcP9trie_nodeEENS_22__unordered_map_hasherIcS4_NS_4hashIcEENS_8equal_toIcEELb1EEENS_21__unordered_map_equalIcS4_S9_S7_Lb1EEENS_9allocatorIS4_EEE21__construct_node_hashIRKNS_21piecewise_construct_tEJNS_5tupleIJRKcEEENSK_IJEEEEEENS_10unique_ptrINS_11__hash_nodeIS4_PvEENS_22__hash_node_destructorINSD_ISS_EEEEEEmOT_DpOT0_, symObjAddr: 0xC150, symBinAddr: 0x10000FFD0, symSize: 0x150 }
  - { offsetInCU: 0x2C0D3, offset: 0x2C0D3, size: 0x8, addend: 0x0, symName: __ZNSt3__112__hash_tableINS_17__hash_value_typeIcP9trie_nodeEENS_22__unordered_map_hasherIcS4_NS_4hashIcEENS_8equal_toIcEELb1EEENS_21__unordered_map_equalIcS4_S9_S7_Lb1EEENS_9allocatorIS4_EEE4sizeB7v160006Ev, symObjAddr: 0xC2A0, symBinAddr: 0x100010120, symSize: 0x20 }
  - { offsetInCU: 0x2C0F9, offset: 0x2C0F9, size: 0x8, addend: 0x0, symName: __ZNSt3__112__hash_tableINS_17__hash_value_typeIcP9trie_nodeEENS_22__unordered_map_hasherIcS4_NS_4hashIcEENS_8equal_toIcEELb1EEENS_21__unordered_map_equalIcS4_S9_S7_Lb1EEENS_9allocatorIS4_EEE15max_load_factorB7v160006Ev, symObjAddr: 0xC2C0, symBinAddr: 0x100010140, symSize: 0x20 }
  - { offsetInCU: 0x2C11F, offset: 0x2C11F, size: 0x8, addend: 0x0, symName: __ZNSt3__112__hash_tableINS_17__hash_value_typeIcP9trie_nodeEENS_22__unordered_map_hasherIcS4_NS_4hashIcEENS_8equal_toIcEELb1EEENS_21__unordered_map_equalIcS4_S9_S7_Lb1EEENS_9allocatorIS4_EEE15__rehash_uniqueB7v160006Em, symObjAddr: 0xC2E0, symBinAddr: 0x100010160, symSize: 0x30 }
  - { offsetInCU: 0x2C153, offset: 0x2C153, size: 0x8, addend: 0x0, symName: __Z4ceilB7v160006f, symObjAddr: 0xC380, symBinAddr: 0x100010200, symSize: 0x20 }
  - { offsetInCU: 0x2C182, offset: 0x2C182, size: 0x8, addend: 0x0, symName: __ZNSt3__117__compressed_pairINS_16__hash_node_baseIPNS_11__hash_nodeINS_17__hash_value_typeIcP9trie_nodeEEPvEEEENS_9allocatorIS8_EEE5firstB7v160006Ev, symObjAddr: 0xC3A0, symBinAddr: 0x100010220, symSize: 0x20 }
  - { offsetInCU: 0x2C1A8, offset: 0x2C1A8, size: 0x8, addend: 0x0, symName: __ZNSt3__116__hash_node_baseIPNS_11__hash_nodeINS_17__hash_value_typeIcP9trie_nodeEEPvEEE5__ptrB7v160006Ev, symObjAddr: 0xC3C0, symBinAddr: 0x100010240, symSize: 0x20 }
  - { offsetInCU: 0x2C1CE, offset: 0x2C1CE, size: 0x8, addend: 0x0, symName: __ZNKSt3__110unique_ptrINS_11__hash_nodeINS_17__hash_value_typeIcP9trie_nodeEEPvEENS_22__hash_node_destructorINS_9allocatorIS7_EEEEEptB7v160006Ev, symObjAddr: 0xC3E0, symBinAddr: 0x100010260, symSize: 0x20 }
  - { offsetInCU: 0x2C1F4, offset: 0x2C1F4, size: 0x8, addend: 0x0, symName: __ZNKSt3__110unique_ptrINS_11__hash_nodeINS_17__hash_value_typeIcP9trie_nodeEEPvEENS_22__hash_node_destructorINS_9allocatorIS7_EEEEE3getB7v160006Ev, symObjAddr: 0xC400, symBinAddr: 0x100010280, symSize: 0x20 }
  - { offsetInCU: 0x2C21A, offset: 0x2C21A, size: 0x8, addend: 0x0, symName: __ZNSt3__110unique_ptrINS_11__hash_nodeINS_17__hash_value_typeIcP9trie_nodeEEPvEENS_22__hash_node_destructorINS_9allocatorIS7_EEEEE7releaseB7v160006Ev, symObjAddr: 0xC420, symBinAddr: 0x1000102A0, symSize: 0x40 }
  - { offsetInCU: 0x2C24F, offset: 0x2C24F, size: 0x8, addend: 0x0, symName: __ZNSt3__110unique_ptrINS_11__hash_nodeINS_17__hash_value_typeIcP9trie_nodeEEPvEENS_22__hash_node_destructorINS_9allocatorIS7_EEEEED1B7v160006Ev, symObjAddr: 0xC460, symBinAddr: 0x1000102E0, symSize: 0x20 }
  - { offsetInCU: 0x2C279, offset: 0x2C279, size: 0x8, addend: 0x0, symName: __ZNSt3__115__hash_iteratorIPNS_11__hash_nodeINS_17__hash_value_typeIcP9trie_nodeEEPvEEEC1B7v160006EPNS_16__hash_node_baseIS8_EEPKv, symObjAddr: 0xC480, symBinAddr: 0x100010300, symSize: 0x30 }
  - { offsetInCU: 0x2C2C6, offset: 0x2C2C6, size: 0x8, addend: 0x0, symName: __ZNSt3__14pairINS_15__hash_iteratorIPNS_11__hash_nodeINS_17__hash_value_typeIcP9trie_nodeEEPvEEEEbEC1B7v160006ISA_RbLS7_0EEEOT_OT0_, symObjAddr: 0xC4B0, symBinAddr: 0x100010330, symSize: 0x30 }
  - { offsetInCU: 0x2C324, offset: 0x2C324, size: 0x8, addend: 0x0, symName: __ZNSt3__117__compressed_pairImNS_22__unordered_map_hasherIcNS_17__hash_value_typeIcP9trie_nodeEENS_4hashIcEENS_8equal_toIcEELb1EEEE6secondB7v160006Ev, symObjAddr: 0xC4E0, symBinAddr: 0x100010360, symSize: 0x20 }
  - { offsetInCU: 0x2C34A, offset: 0x2C34A, size: 0x8, addend: 0x0, symName: __ZNSt3__122__compressed_pair_elemINS_22__unordered_map_hasherIcNS_17__hash_value_typeIcP9trie_nodeEENS_4hashIcEENS_8equal_toIcEELb1EEELi1ELb1EE5__getB7v160006Ev, symObjAddr: 0xC500, symBinAddr: 0x100010380, symSize: 0x10 }
  - { offsetInCU: 0x2C370, offset: 0x2C370, size: 0x8, addend: 0x0, symName: __ZNSt3__117__compressed_pairIfNS_21__unordered_map_equalIcNS_17__hash_value_typeIcP9trie_nodeEENS_8equal_toIcEENS_4hashIcEELb1EEEE6secondB7v160006Ev, symObjAddr: 0xC510, symBinAddr: 0x100010390, symSize: 0x20 }
  - { offsetInCU: 0x2C396, offset: 0x2C396, size: 0x8, addend: 0x0, symName: __ZNSt3__122__compressed_pair_elemINS_21__unordered_map_equalIcNS_17__hash_value_typeIcP9trie_nodeEENS_8equal_toIcEENS_4hashIcEELb1EEELi1ELb1EE5__getB7v160006Ev, symObjAddr: 0xC530, symBinAddr: 0x1000103B0, symSize: 0x10 }
  - { offsetInCU: 0x2C3BC, offset: 0x2C3BC, size: 0x8, addend: 0x0, symName: __ZNSt3__112__hash_tableINS_17__hash_value_typeIcP9trie_nodeEENS_22__unordered_map_hasherIcS4_NS_4hashIcEENS_8equal_toIcEELb1EEENS_21__unordered_map_equalIcS4_S9_S7_Lb1EEENS_9allocatorIS4_EEE12__node_allocB7v160006Ev, symObjAddr: 0xC540, symBinAddr: 0x1000103C0, symSize: 0x20 }
  - { offsetInCU: 0x2C3E2, offset: 0x2C3E2, size: 0x8, addend: 0x0, symName: __ZNSt3__116allocator_traitsINS_9allocatorINS_11__hash_nodeINS_17__hash_value_typeIcP9trie_nodeEEPvEEEEE8allocateB7v160006ERS9_m, symObjAddr: 0xC560, symBinAddr: 0x1000103E0, symSize: 0x30 }
  - { offsetInCU: 0x2C415, offset: 0x2C415, size: 0x8, addend: 0x0, symName: __ZNSt3__122__hash_node_destructorINS_9allocatorINS_11__hash_nodeINS_17__hash_value_typeIcP9trie_nodeEEPvEEEEEC1B7v160006ERS9_b, symObjAddr: 0xC590, symBinAddr: 0x100010410, symSize: 0x40 }
  - { offsetInCU: 0x2C462, offset: 0x2C462, size: 0x8, addend: 0x0, symName: __ZNSt3__110unique_ptrINS_11__hash_nodeINS_17__hash_value_typeIcP9trie_nodeEEPvEENS_22__hash_node_destructorINS_9allocatorIS7_EEEEEC1B7v160006ILb1EvEEPS7_NS_16__dependent_typeINS_27__unique_ptr_deleter_sfinaeISB_EEXT_EE20__good_rval_ref_typeE, symObjAddr: 0xC5D0, symBinAddr: 0x100010450, symSize: 0x30 }
  - { offsetInCU: 0x2C4B3, offset: 0x2C4B3, size: 0x8, addend: 0x0, symName: __ZNSt3__116allocator_traitsINS_9allocatorINS_11__hash_nodeINS_17__hash_value_typeIcP9trie_nodeEEPvEEEEE9constructB7v160006INS_4pairIKcS5_EEJRKNS_21piecewise_construct_tENS_5tupleIJRSD_EEENSI_IJEEEEvEEvRS9_PT_DpOT0_, symObjAddr: 0xC600, symBinAddr: 0x100010480, symSize: 0x40 }
  - { offsetInCU: 0x2C532, offset: 0x2C532, size: 0x8, addend: 0x0, symName: __ZNSt3__122__hash_key_value_typesINS_17__hash_value_typeIcP9trie_nodeEEE9__get_ptrB7v160006ERS4_, symObjAddr: 0xC640, symBinAddr: 0x1000104C0, symSize: 0x20 }
  - { offsetInCU: 0x2C555, offset: 0x2C555, size: 0x8, addend: 0x0, symName: __ZNSt3__110unique_ptrINS_11__hash_nodeINS_17__hash_value_typeIcP9trie_nodeEEPvEENS_22__hash_node_destructorINS_9allocatorIS7_EEEEE11get_deleterB7v160006Ev, symObjAddr: 0xC660, symBinAddr: 0x1000104E0, symSize: 0x20 }
  - { offsetInCU: 0x2C57B, offset: 0x2C57B, size: 0x8, addend: 0x0, symName: __ZNSt3__117__compressed_pairINS_16__hash_node_baseIPNS_11__hash_nodeINS_17__hash_value_typeIcP9trie_nodeEEPvEEEENS_9allocatorIS8_EEE6secondB7v160006Ev, symObjAddr: 0xC680, symBinAddr: 0x100010500, symSize: 0x20 }
  - { offsetInCU: 0x2C5A1, offset: 0x2C5A1, size: 0x8, addend: 0x0, symName: __ZNSt3__122__compressed_pair_elemINS_9allocatorINS_11__hash_nodeINS_17__hash_value_typeIcP9trie_nodeEEPvEEEELi1ELb1EE5__getB7v160006Ev, symObjAddr: 0xC6A0, symBinAddr: 0x100010520, symSize: 0x10 }
  - { offsetInCU: 0x2C5C7, offset: 0x2C5C7, size: 0x8, addend: 0x0, symName: __ZNSt3__19allocatorINS_11__hash_nodeINS_17__hash_value_typeIcP9trie_nodeEEPvEEE8allocateB7v160006Em, symObjAddr: 0xC6B0, symBinAddr: 0x100010530, symSize: 0x50 }
  - { offsetInCU: 0x2C605, offset: 0x2C605, size: 0x8, addend: 0x0, symName: __ZNSt3__116allocator_traitsINS_9allocatorINS_11__hash_nodeINS_17__hash_value_typeIcP9trie_nodeEEPvEEEEE8max_sizeB7v160006IS9_vEEmRKS9_, symObjAddr: 0xC700, symBinAddr: 0x100010580, symSize: 0x20 }
  - { offsetInCU: 0x2C633, offset: 0x2C633, size: 0x8, addend: 0x0, symName: __ZNKSt3__19allocatorINS_11__hash_nodeINS_17__hash_value_typeIcP9trie_nodeEEPvEEE8max_sizeB7v160006Ev, symObjAddr: 0xC720, symBinAddr: 0x1000105A0, symSize: 0x20 }
  - { offsetInCU: 0x2C659, offset: 0x2C659, size: 0x8, addend: 0x0, symName: __ZNSt3__122__hash_node_destructorINS_9allocatorINS_11__hash_nodeINS_17__hash_value_typeIcP9trie_nodeEEPvEEEEEC2B7v160006ERS9_b, symObjAddr: 0xC740, symBinAddr: 0x1000105C0, symSize: 0x30 }
  - { offsetInCU: 0x2C6A1, offset: 0x2C6A1, size: 0x8, addend: 0x0, symName: __ZNSt3__110unique_ptrINS_11__hash_nodeINS_17__hash_value_typeIcP9trie_nodeEEPvEENS_22__hash_node_destructorINS_9allocatorIS7_EEEEEC2B7v160006ILb1EvEEPS7_NS_16__dependent_typeINS_27__unique_ptr_deleter_sfinaeISB_EEXT_EE20__good_rval_ref_typeE, symObjAddr: 0xC770, symBinAddr: 0x1000105F0, symSize: 0x40 }
  - { offsetInCU: 0x2C6F2, offset: 0x2C6F2, size: 0x8, addend: 0x0, symName: __ZNSt3__117__compressed_pairIPNS_11__hash_nodeINS_17__hash_value_typeIcP9trie_nodeEEPvEENS_22__hash_node_destructorINS_9allocatorIS7_EEEEEC1B7v160006IRS8_SC_EEOT_OT0_, symObjAddr: 0xC7B0, symBinAddr: 0x100010630, symSize: 0x30 }
  - { offsetInCU: 0x2C74A, offset: 0x2C74A, size: 0x8, addend: 0x0, symName: __ZNSt3__117__compressed_pairIPNS_11__hash_nodeINS_17__hash_value_typeIcP9trie_nodeEEPvEENS_22__hash_node_destructorINS_9allocatorIS7_EEEEEC2B7v160006IRS8_SC_EEOT_OT0_, symObjAddr: 0xC7E0, symBinAddr: 0x100010660, symSize: 0x40 }
  - { offsetInCU: 0x2C7A2, offset: 0x2C7A2, size: 0x8, addend: 0x0, symName: __ZNSt3__122__compressed_pair_elemIPNS_11__hash_nodeINS_17__hash_value_typeIcP9trie_nodeEEPvEELi0ELb0EEC2B7v160006IRS8_vEEOT_, symObjAddr: 0xC820, symBinAddr: 0x1000106A0, symSize: 0x20 }
  - { offsetInCU: 0x2C7E4, offset: 0x2C7E4, size: 0x8, addend: 0x0, symName: __ZNSt3__122__compressed_pair_elemINS_22__hash_node_destructorINS_9allocatorINS_11__hash_nodeINS_17__hash_value_typeIcP9trie_nodeEEPvEEEEEELi1ELb0EEC2B7v160006ISB_vEEOT_, symObjAddr: 0xC840, symBinAddr: 0x1000106C0, symSize: 0x30 }
  - { offsetInCU: 0x2C826, offset: 0x2C826, size: 0x8, addend: 0x0, symName: __ZNSt3__19allocatorINS_11__hash_nodeINS_17__hash_value_typeIcP9trie_nodeEEPvEEE9constructB7v160006INS_4pairIKcS4_EEJRKNS_21piecewise_construct_tENS_5tupleIJRSB_EEENSG_IJEEEEEEvPT_DpOT0_, symObjAddr: 0xC870, symBinAddr: 0x1000106F0, symSize: 0x40 }
  - { offsetInCU: 0x2C8A2, offset: 0x2C8A2, size: 0x8, addend: 0x0, symName: __ZNSt3__14pairIKcP9trie_nodeEC1B7v160006IJRS1_EJEEENS_21piecewise_construct_tENS_5tupleIJDpT_EEENS8_IJDpT0_EEE, symObjAddr: 0xC8B0, symBinAddr: 0x100010730, symSize: 0x40 }
  - { offsetInCU: 0x2C909, offset: 0x2C909, size: 0x8, addend: 0x0, symName: __ZNSt3__14pairIKcP9trie_nodeEC1B7v160006IJRS1_EJEJLm0EEJEEENS_21piecewise_construct_tERNS_5tupleIJDpT_EEERNS8_IJDpT0_EEENS_15__tuple_indicesIJXspT1_EEEENSH_IJXspT2_EEEE, symObjAddr: 0xC8F0, symBinAddr: 0x100010770, symSize: 0x30 }
  - { offsetInCU: 0x2C999, offset: 0x2C999, size: 0x8, addend: 0x0, symName: __ZNSt3__14pairIKcP9trie_nodeEC2B7v160006IJRS1_EJEJLm0EEJEEENS_21piecewise_construct_tERNS_5tupleIJDpT_EEERNS8_IJDpT0_EEENS_15__tuple_indicesIJXspT1_EEEENSH_IJXspT2_EEEE, symObjAddr: 0xC920, symBinAddr: 0x1000107A0, symSize: 0x40 }
  - { offsetInCU: 0x2CA29, offset: 0x2CA29, size: 0x8, addend: 0x0, symName: __ZNSt3__112__tuple_leafILm0ERKcLb0EE3getB7v160006Ev, symObjAddr: 0xC980, symBinAddr: 0x100010800, symSize: 0x20 }
  - { offsetInCU: 0x2CA4F, offset: 0x2CA4F, size: 0x8, addend: 0x0, symName: __ZNSt3__117__compressed_pairIPNS_11__hash_nodeINS_17__hash_value_typeIcP9trie_nodeEEPvEENS_22__hash_node_destructorINS_9allocatorIS7_EEEEE6secondB7v160006Ev, symObjAddr: 0xC9A0, symBinAddr: 0x100010820, symSize: 0x20 }
  - { offsetInCU: 0x2CA75, offset: 0x2CA75, size: 0x8, addend: 0x0, symName: __ZNSt3__122__compressed_pair_elemINS_22__hash_node_destructorINS_9allocatorINS_11__hash_nodeINS_17__hash_value_typeIcP9trie_nodeEEPvEEEEEELi1ELb0EE5__getB7v160006Ev, symObjAddr: 0xC9C0, symBinAddr: 0x100010840, symSize: 0x10 }
  - { offsetInCU: 0x2CA9B, offset: 0x2CA9B, size: 0x8, addend: 0x0, symName: __ZNSt3__117__compressed_pairImNS_22__unordered_map_hasherIcNS_17__hash_value_typeIcP9trie_nodeEENS_4hashIcEENS_8equal_toIcEELb1EEEE5firstB7v160006Ev, symObjAddr: 0xC9D0, symBinAddr: 0x100010850, symSize: 0x20 }
  - { offsetInCU: 0x2CAC1, offset: 0x2CAC1, size: 0x8, addend: 0x0, symName: __ZNSt3__117__compressed_pairIfNS_21__unordered_map_equalIcNS_17__hash_value_typeIcP9trie_nodeEENS_8equal_toIcEENS_4hashIcEELb1EEEE5firstB7v160006Ev, symObjAddr: 0xC9F0, symBinAddr: 0x100010870, symSize: 0x20 }
  - { offsetInCU: 0x2CAE7, offset: 0x2CAE7, size: 0x8, addend: 0x0, symName: __ZNSt3__122__compressed_pair_elemIfLi0ELb0EE5__getB7v160006Ev, symObjAddr: 0xCA10, symBinAddr: 0x100010890, symSize: 0x10 }
  - { offsetInCU: 0x2CB0D, offset: 0x2CB0D, size: 0x8, addend: 0x0, symName: __ZNSt3__112__hash_tableINS_17__hash_value_typeIcP9trie_nodeEENS_22__unordered_map_hasherIcS4_NS_4hashIcEENS_8equal_toIcEELb1EEENS_21__unordered_map_equalIcS4_S9_S7_Lb1EEENS_9allocatorIS4_EEE8__rehashILb1EEEvm, symObjAddr: 0xCA20, symBinAddr: 0x1000108A0, symSize: 0x230 }
  - { offsetInCU: 0x2CB5D, offset: 0x2CB5D, size: 0x8, addend: 0x0, symName: __ZNSt3__112__hash_tableINS_17__hash_value_typeIcP9trie_nodeEENS_22__unordered_map_hasherIcS4_NS_4hashIcEENS_8equal_toIcEELb1EEENS_21__unordered_map_equalIcS4_S9_S7_Lb1EEENS_9allocatorIS4_EEE11__do_rehashILb1EEEvm, symObjAddr: 0xCC50, symBinAddr: 0x100010AD0, symSize: 0x260 }
  - { offsetInCU: 0x2CC40, offset: 0x2CC40, size: 0x8, addend: 0x0, symName: __ZNSt3__110unique_ptrIA_PNS_16__hash_node_baseIPNS_11__hash_nodeINS_17__hash_value_typeIcP9trie_nodeEEPvEEEENS_25__bucket_list_deallocatorINS_9allocatorISB_EEEEE11get_deleterB7v160006Ev, symObjAddr: 0xCF20, symBinAddr: 0x100010DA0, symSize: 0x20 }
  - { offsetInCU: 0x2CC66, offset: 0x2CC66, size: 0x8, addend: 0x0, symName: __ZNSt3__125__bucket_list_deallocatorINS_9allocatorIPNS_16__hash_node_baseIPNS_11__hash_nodeINS_17__hash_value_typeIcP9trie_nodeEEPvEEEEEEE7__allocB7v160006Ev, symObjAddr: 0xCF40, symBinAddr: 0x100010DC0, symSize: 0x20 }
  - { offsetInCU: 0x2CC8C, offset: 0x2CC8C, size: 0x8, addend: 0x0, symName: __ZNSt3__110unique_ptrIA_PNS_16__hash_node_baseIPNS_11__hash_nodeINS_17__hash_value_typeIcP9trie_nodeEEPvEEEENS_25__bucket_list_deallocatorINS_9allocatorISB_EEEEE5resetB7v160006IPSB_EENS_9enable_ifIXsr28_CheckArrayPointerConversionIT_EE5valueEvE4typeESL_, symObjAddr: 0xCF60, symBinAddr: 0x100010DE0, symSize: 0x70 }
  - { offsetInCU: 0x2CCD9, offset: 0x2CCD9, size: 0x8, addend: 0x0, symName: __ZNSt3__116allocator_traitsINS_9allocatorIPNS_16__hash_node_baseIPNS_11__hash_nodeINS_17__hash_value_typeIcP9trie_nodeEEPvEEEEEEE8allocateB7v160006ERSD_m, symObjAddr: 0xCFD0, symBinAddr: 0x100010E50, symSize: 0x30 }
  - { offsetInCU: 0x2CD0C, offset: 0x2CD0C, size: 0x8, addend: 0x0, symName: __ZNSt3__125__bucket_list_deallocatorINS_9allocatorIPNS_16__hash_node_baseIPNS_11__hash_nodeINS_17__hash_value_typeIcP9trie_nodeEEPvEEEEEEE4sizeB7v160006Ev, symObjAddr: 0xD000, symBinAddr: 0x100010E80, symSize: 0x20 }
  - { offsetInCU: 0x2CD32, offset: 0x2CD32, size: 0x8, addend: 0x0, symName: __ZNSt3__117__compressed_pairIPPNS_16__hash_node_baseIPNS_11__hash_nodeINS_17__hash_value_typeIcP9trie_nodeEEPvEEEENS_25__bucket_list_deallocatorINS_9allocatorISB_EEEEE6secondB7v160006Ev, symObjAddr: 0xD020, symBinAddr: 0x100010EA0, symSize: 0x20 }
  - { offsetInCU: 0x2CD58, offset: 0x2CD58, size: 0x8, addend: 0x0, symName: __ZNSt3__122__compressed_pair_elemINS_25__bucket_list_deallocatorINS_9allocatorIPNS_16__hash_node_baseIPNS_11__hash_nodeINS_17__hash_value_typeIcP9trie_nodeEEPvEEEEEEEELi1ELb0EE5__getB7v160006Ev, symObjAddr: 0xD040, symBinAddr: 0x100010EC0, symSize: 0x10 }
  - { offsetInCU: 0x2CD7E, offset: 0x2CD7E, size: 0x8, addend: 0x0, symName: __ZNSt3__117__compressed_pairImNS_9allocatorIPNS_16__hash_node_baseIPNS_11__hash_nodeINS_17__hash_value_typeIcP9trie_nodeEEPvEEEEEEE6secondB7v160006Ev, symObjAddr: 0xD050, symBinAddr: 0x100010ED0, symSize: 0x20 }
  - { offsetInCU: 0x2CDA4, offset: 0x2CDA4, size: 0x8, addend: 0x0, symName: __ZNSt3__122__compressed_pair_elemINS_9allocatorIPNS_16__hash_node_baseIPNS_11__hash_nodeINS_17__hash_value_typeIcP9trie_nodeEEPvEEEEEELi1ELb1EE5__getB7v160006Ev, symObjAddr: 0xD070, symBinAddr: 0x100010EF0, symSize: 0x10 }
  - { offsetInCU: 0x2CDCA, offset: 0x2CDCA, size: 0x8, addend: 0x0, symName: __ZNSt3__117__compressed_pairIPPNS_16__hash_node_baseIPNS_11__hash_nodeINS_17__hash_value_typeIcP9trie_nodeEEPvEEEENS_25__bucket_list_deallocatorINS_9allocatorISB_EEEEE5firstB7v160006Ev, symObjAddr: 0xD080, symBinAddr: 0x100010F00, symSize: 0x20 }
  - { offsetInCU: 0x2CDF0, offset: 0x2CDF0, size: 0x8, addend: 0x0, symName: __ZNSt3__125__bucket_list_deallocatorINS_9allocatorIPNS_16__hash_node_baseIPNS_11__hash_nodeINS_17__hash_value_typeIcP9trie_nodeEEPvEEEEEEEclB7v160006EPSC_, symObjAddr: 0xD0A0, symBinAddr: 0x100010F20, symSize: 0x50 }
  - { offsetInCU: 0x2CE25, offset: 0x2CE25, size: 0x8, addend: 0x0, symName: __ZNSt3__122__compressed_pair_elemIPPNS_16__hash_node_baseIPNS_11__hash_nodeINS_17__hash_value_typeIcP9trie_nodeEEPvEEEELi0ELb0EE5__getB7v160006Ev, symObjAddr: 0xD0F0, symBinAddr: 0x100010F70, symSize: 0x10 }
  - { offsetInCU: 0x2CE4B, offset: 0x2CE4B, size: 0x8, addend: 0x0, symName: __ZNSt3__116allocator_traitsINS_9allocatorIPNS_16__hash_node_baseIPNS_11__hash_nodeINS_17__hash_value_typeIcP9trie_nodeEEPvEEEEEEE10deallocateB7v160006ERSD_PSC_m, symObjAddr: 0xD100, symBinAddr: 0x100010F80, symSize: 0x30 }
  - { offsetInCU: 0x2CE8D, offset: 0x2CE8D, size: 0x8, addend: 0x0, symName: __ZNSt3__19allocatorIPNS_16__hash_node_baseIPNS_11__hash_nodeINS_17__hash_value_typeIcP9trie_nodeEEPvEEEEE10deallocateB7v160006EPSB_m, symObjAddr: 0xD130, symBinAddr: 0x100010FB0, symSize: 0x40 }
  - { offsetInCU: 0x2CECF, offset: 0x2CECF, size: 0x8, addend: 0x0, symName: __ZNSt3__19allocatorIPNS_16__hash_node_baseIPNS_11__hash_nodeINS_17__hash_value_typeIcP9trie_nodeEEPvEEEEE8allocateB7v160006Em, symObjAddr: 0xD170, symBinAddr: 0x100010FF0, symSize: 0x50 }
  - { offsetInCU: 0x2CF0D, offset: 0x2CF0D, size: 0x8, addend: 0x0, symName: __ZNSt3__116allocator_traitsINS_9allocatorIPNS_16__hash_node_baseIPNS_11__hash_nodeINS_17__hash_value_typeIcP9trie_nodeEEPvEEEEEEE8max_sizeB7v160006ISD_vEEmRKSD_, symObjAddr: 0xD1C0, symBinAddr: 0x100011040, symSize: 0x20 }
  - { offsetInCU: 0x2CF3B, offset: 0x2CF3B, size: 0x8, addend: 0x0, symName: __ZNKSt3__19allocatorIPNS_16__hash_node_baseIPNS_11__hash_nodeINS_17__hash_value_typeIcP9trie_nodeEEPvEEEEE8max_sizeB7v160006Ev, symObjAddr: 0xD1E0, symBinAddr: 0x100011060, symSize: 0x20 }
  - { offsetInCU: 0x2CF61, offset: 0x2CF61, size: 0x8, addend: 0x0, symName: __ZNSt3__117__compressed_pairImNS_9allocatorIPNS_16__hash_node_baseIPNS_11__hash_nodeINS_17__hash_value_typeIcP9trie_nodeEEPvEEEEEEE5firstB7v160006Ev, symObjAddr: 0xD200, symBinAddr: 0x100011080, symSize: 0x20 }
  - { offsetInCU: 0x2CF91, offset: 0x2CF91, size: 0x8, addend: 0x0, symName: __ZNKSt3__16__lessImmEclB7v160006ERKmS3_, symObjAddr: 0xD290, symBinAddr: 0x100011110, symSize: 0x30 }
  - { offsetInCU: 0x2CFD3, offset: 0x2CFD3, size: 0x8, addend: 0x0, symName: __ZNSt3__122__compressed_pair_elemINS_16__hash_node_baseIPNS_11__hash_nodeINS_17__hash_value_typeIcP9trie_nodeEEPvEEEELi0ELb0EE5__getB7v160006Ev, symObjAddr: 0xD2C0, symBinAddr: 0x100011140, symSize: 0x10 }
  - { offsetInCU: 0x2CFF9, offset: 0x2CFF9, size: 0x8, addend: 0x0, symName: __ZNKSt3__117__compressed_pairIPNS_11__hash_nodeINS_17__hash_value_typeIcP9trie_nodeEEPvEENS_22__hash_node_destructorINS_9allocatorIS7_EEEEE5firstB7v160006Ev, symObjAddr: 0xD2D0, symBinAddr: 0x100011150, symSize: 0x20 }
  - { offsetInCU: 0x2D01F, offset: 0x2D01F, size: 0x8, addend: 0x0, symName: __ZNKSt3__122__compressed_pair_elemIPNS_11__hash_nodeINS_17__hash_value_typeIcP9trie_nodeEEPvEELi0ELb0EE5__getB7v160006Ev, symObjAddr: 0xD2F0, symBinAddr: 0x100011170, symSize: 0x10 }
  - { offsetInCU: 0x2D045, offset: 0x2D045, size: 0x8, addend: 0x0, symName: __ZNSt3__117__compressed_pairIPNS_11__hash_nodeINS_17__hash_value_typeIcP9trie_nodeEEPvEENS_22__hash_node_destructorINS_9allocatorIS7_EEEEE5firstB7v160006Ev, symObjAddr: 0xD300, symBinAddr: 0x100011180, symSize: 0x20 }
  - { offsetInCU: 0x2D06B, offset: 0x2D06B, size: 0x8, addend: 0x0, symName: __ZNSt3__122__compressed_pair_elemIPNS_11__hash_nodeINS_17__hash_value_typeIcP9trie_nodeEEPvEELi0ELb0EE5__getB7v160006Ev, symObjAddr: 0xD320, symBinAddr: 0x1000111A0, symSize: 0x10 }
  - { offsetInCU: 0x2D091, offset: 0x2D091, size: 0x8, addend: 0x0, symName: __ZNSt3__110unique_ptrINS_11__hash_nodeINS_17__hash_value_typeIcP9trie_nodeEEPvEENS_22__hash_node_destructorINS_9allocatorIS7_EEEEED2B7v160006Ev, symObjAddr: 0xD330, symBinAddr: 0x1000111B0, symSize: 0x20 }
  - { offsetInCU: 0x2D0BB, offset: 0x2D0BB, size: 0x8, addend: 0x0, symName: __ZNSt3__110unique_ptrINS_11__hash_nodeINS_17__hash_value_typeIcP9trie_nodeEEPvEENS_22__hash_node_destructorINS_9allocatorIS7_EEEEE5resetB7v160006EPS7_, symObjAddr: 0xD350, symBinAddr: 0x1000111D0, symSize: 0x70 }
  - { offsetInCU: 0x2D0FF, offset: 0x2D0FF, size: 0x8, addend: 0x0, symName: __ZNSt3__122__hash_node_destructorINS_9allocatorINS_11__hash_nodeINS_17__hash_value_typeIcP9trie_nodeEEPvEEEEEclB7v160006EPS8_, symObjAddr: 0xD3C0, symBinAddr: 0x100011240, symSize: 0x90 }
  - { offsetInCU: 0x2D134, offset: 0x2D134, size: 0x8, addend: 0x0, symName: __ZNSt3__116allocator_traitsINS_9allocatorINS_11__hash_nodeINS_17__hash_value_typeIcP9trie_nodeEEPvEEEEE7destroyB7v160006INS_4pairIKcS5_EEvvEEvRS9_PT_, symObjAddr: 0xD450, symBinAddr: 0x1000112D0, symSize: 0x10 }
  - { offsetInCU: 0x2D16F, offset: 0x2D16F, size: 0x8, addend: 0x0, symName: __ZNSt3__116allocator_traitsINS_9allocatorINS_11__hash_nodeINS_17__hash_value_typeIcP9trie_nodeEEPvEEEEE10deallocateB7v160006ERS9_PS8_m, symObjAddr: 0xD460, symBinAddr: 0x1000112E0, symSize: 0x30 }
  - { offsetInCU: 0x2D1B1, offset: 0x2D1B1, size: 0x8, addend: 0x0, symName: __ZNSt3__19allocatorINS_11__hash_nodeINS_17__hash_value_typeIcP9trie_nodeEEPvEEE10deallocateB7v160006EPS7_m, symObjAddr: 0xD490, symBinAddr: 0x100011310, symSize: 0x40 }
  - { offsetInCU: 0x2D1F3, offset: 0x2D1F3, size: 0x8, addend: 0x0, symName: __ZNSt3__115__hash_iteratorIPNS_11__hash_nodeINS_17__hash_value_typeIcP9trie_nodeEEPvEEEC2B7v160006EPNS_16__hash_node_baseIS8_EEPKv, symObjAddr: 0xD4D0, symBinAddr: 0x100011350, symSize: 0x20 }
  - { offsetInCU: 0x2D23B, offset: 0x2D23B, size: 0x8, addend: 0x0, symName: __ZNSt3__14pairINS_15__hash_iteratorIPNS_11__hash_nodeINS_17__hash_value_typeIcP9trie_nodeEEPvEEEEbEC2B7v160006ISA_RbLS7_0EEEOT_OT0_, symObjAddr: 0xD4F0, symBinAddr: 0x100011370, symSize: 0x30 }
  - { offsetInCU: 0x2D299, offset: 0x2D299, size: 0x8, addend: 0x0, symName: __ZNSt3__15tupleIJRKcEEC1B7v160006INS_4_AndELi0EEES2_, symObjAddr: 0xD520, symBinAddr: 0x1000113A0, symSize: 0x30 }
  - { offsetInCU: 0x2D2E1, offset: 0x2D2E1, size: 0x8, addend: 0x0, symName: __ZNSt3__15tupleIJRKcEEC2B7v160006INS_4_AndELi0EEES2_, symObjAddr: 0xD550, symBinAddr: 0x1000113D0, symSize: 0x30 }
  - { offsetInCU: 0x2D329, offset: 0x2D329, size: 0x8, addend: 0x0, symName: __ZNSt3__112__tuple_implINS_15__tuple_indicesIJLm0EEEEJRKcEEC1B7v160006IJLm0EEJS4_EJEJEJS4_EEENS1_IJXspT_EEEENS_13__tuple_typesIJDpT0_EEENS1_IJXspT1_EEEENS8_IJDpT2_EEEDpOT3_, symObjAddr: 0xD580, symBinAddr: 0x100011400, symSize: 0x30 }
  - { offsetInCU: 0x2D3BE, offset: 0x2D3BE, size: 0x8, addend: 0x0, symName: __ZNSt3__112__tuple_implINS_15__tuple_indicesIJLm0EEEEJRKcEEC2B7v160006IJLm0EEJS4_EJEJEJS4_EEENS1_IJXspT_EEEENS_13__tuple_typesIJDpT0_EEENS1_IJXspT1_EEEENS8_IJDpT2_EEEDpOT3_, symObjAddr: 0xD5B0, symBinAddr: 0x100011430, symSize: 0x30 }
  - { offsetInCU: 0x2D453, offset: 0x2D453, size: 0x8, addend: 0x0, symName: __ZNSt3__112__tuple_leafILm0ERKcLb0EEC2B7v160006IS2_vEEOT_, symObjAddr: 0xD5E0, symBinAddr: 0x100011460, symSize: 0x20 }
  - { offsetInCU: 0x2D496, offset: 0x2D496, size: 0x8, addend: 0x0, symName: __ZNSt3__114pointer_traitsIPNS_17__hash_value_typeIcP9trie_nodeEEE10pointer_toB7v160006ERS4_, symObjAddr: 0xD600, symBinAddr: 0x100011480, symSize: 0x10 }
  - { offsetInCU: 0x2D4B9, offset: 0x2D4B9, size: 0x8, addend: 0x0, symName: __ZN9trie_nodeC2Ec, symObjAddr: 0xD610, symBinAddr: 0x100011490, symSize: 0x40 }
  - { offsetInCU: 0x2D4F1, offset: 0x2D4F1, size: 0x8, addend: 0x0, symName: __ZNSt3__113unordered_mapIcP9trie_nodeNS_4hashIcEENS_8equal_toIcEENS_9allocatorINS_4pairIKcS2_EEEEEC1B7v160006Ev, symObjAddr: 0xD650, symBinAddr: 0x1000114D0, symSize: 0x20 }
  - { offsetInCU: 0x2D51B, offset: 0x2D51B, size: 0x8, addend: 0x0, symName: __ZNSt3__113unordered_mapIcP9trie_nodeNS_4hashIcEENS_8equal_toIcEENS_9allocatorINS_4pairIKcS2_EEEEEC2B7v160006Ev, symObjAddr: 0xD670, symBinAddr: 0x1000114F0, symSize: 0x40 }
  - { offsetInCU: 0x2D545, offset: 0x2D545, size: 0x8, addend: 0x0, symName: __ZNSt3__112__hash_tableINS_17__hash_value_typeIcP9trie_nodeEENS_22__unordered_map_hasherIcS4_NS_4hashIcEENS_8equal_toIcEELb1EEENS_21__unordered_map_equalIcS4_S9_S7_Lb1EEENS_9allocatorIS4_EEEC1Ev, symObjAddr: 0xD6B0, symBinAddr: 0x100011530, symSize: 0x20 }
  - { offsetInCU: 0x2D571, offset: 0x2D571, size: 0x8, addend: 0x0, symName: __ZNSt3__112__hash_tableINS_17__hash_value_typeIcP9trie_nodeEENS_22__unordered_map_hasherIcS4_NS_4hashIcEENS_8equal_toIcEELb1EEENS_21__unordered_map_equalIcS4_S9_S7_Lb1EEENS_9allocatorIS4_EEEC2Ev, symObjAddr: 0xD6E0, symBinAddr: 0x100011560, symSize: 0x80 }
  - { offsetInCU: 0x2D59D, offset: 0x2D59D, size: 0x8, addend: 0x0, symName: __ZNSt3__110unique_ptrIA_PNS_16__hash_node_baseIPNS_11__hash_nodeINS_17__hash_value_typeIcP9trie_nodeEEPvEEEENS_25__bucket_list_deallocatorINS_9allocatorISB_EEEEEC1B7v160006ILb1EvEEv, symObjAddr: 0xD760, symBinAddr: 0x1000115E0, symSize: 0x20 }
  - { offsetInCU: 0x2D5D2, offset: 0x2D5D2, size: 0x8, addend: 0x0, symName: __ZNSt3__117__compressed_pairINS_16__hash_node_baseIPNS_11__hash_nodeINS_17__hash_value_typeIcP9trie_nodeEEPvEEEENS_9allocatorIS8_EEEC1B7v160006ILb1EvEEv, symObjAddr: 0xD780, symBinAddr: 0x100011600, symSize: 0x20 }
  - { offsetInCU: 0x2D60C, offset: 0x2D60C, size: 0x8, addend: 0x0, symName: __ZNSt3__117__compressed_pairImNS_22__unordered_map_hasherIcNS_17__hash_value_typeIcP9trie_nodeEENS_4hashIcEENS_8equal_toIcEELb1EEEEC1B7v160006IiNS_18__default_init_tagEEEOT_OT0_, symObjAddr: 0xD7A0, symBinAddr: 0x100011620, symSize: 0x30 }
  - { offsetInCU: 0x2D669, offset: 0x2D669, size: 0x8, addend: 0x0, symName: __ZNSt3__117__compressed_pairIfNS_21__unordered_map_equalIcNS_17__hash_value_typeIcP9trie_nodeEENS_8equal_toIcEENS_4hashIcEELb1EEEEC1B7v160006IfNS_18__default_init_tagEEEOT_OT0_, symObjAddr: 0xD7D0, symBinAddr: 0x100011650, symSize: 0x30 }
  - { offsetInCU: 0x2D6C1, offset: 0x2D6C1, size: 0x8, addend: 0x0, symName: __ZNSt3__110unique_ptrIA_PNS_16__hash_node_baseIPNS_11__hash_nodeINS_17__hash_value_typeIcP9trie_nodeEEPvEEEENS_25__bucket_list_deallocatorINS_9allocatorISB_EEEEEC2B7v160006ILb1EvEEv, symObjAddr: 0xD800, symBinAddr: 0x100011680, symSize: 0x30 }
  - { offsetInCU: 0x2D6FB, offset: 0x2D6FB, size: 0x8, addend: 0x0, symName: __ZNSt3__117__compressed_pairIPPNS_16__hash_node_baseIPNS_11__hash_nodeINS_17__hash_value_typeIcP9trie_nodeEEPvEEEENS_25__bucket_list_deallocatorINS_9allocatorISB_EEEEEC1B7v160006INS_16__value_init_tagESJ_EEOT_OT0_, symObjAddr: 0xD830, symBinAddr: 0x1000116B0, symSize: 0x30 }
  - { offsetInCU: 0x2D753, offset: 0x2D753, size: 0x8, addend: 0x0, symName: __ZNSt3__117__compressed_pairIPPNS_16__hash_node_baseIPNS_11__hash_nodeINS_17__hash_value_typeIcP9trie_nodeEEPvEEEENS_25__bucket_list_deallocatorINS_9allocatorISB_EEEEEC2B7v160006INS_16__value_init_tagESJ_EEOT_OT0_, symObjAddr: 0xD860, symBinAddr: 0x1000116E0, symSize: 0x40 }
  - { offsetInCU: 0x2D7AB, offset: 0x2D7AB, size: 0x8, addend: 0x0, symName: __ZNSt3__122__compressed_pair_elemIPPNS_16__hash_node_baseIPNS_11__hash_nodeINS_17__hash_value_typeIcP9trie_nodeEEPvEEEELi0ELb0EEC2B7v160006ENS_16__value_init_tagE, symObjAddr: 0xD8A0, symBinAddr: 0x100011720, symSize: 0x20 }
  - { offsetInCU: 0x2D7E0, offset: 0x2D7E0, size: 0x8, addend: 0x0, symName: __ZNSt3__122__compressed_pair_elemINS_25__bucket_list_deallocatorINS_9allocatorIPNS_16__hash_node_baseIPNS_11__hash_nodeINS_17__hash_value_typeIcP9trie_nodeEEPvEEEEEEEELi1ELb0EEC2B7v160006ENS_16__value_init_tagE, symObjAddr: 0xD8C0, symBinAddr: 0x100011740, symSize: 0x20 }
  - { offsetInCU: 0x2D815, offset: 0x2D815, size: 0x8, addend: 0x0, symName: __ZNSt3__125__bucket_list_deallocatorINS_9allocatorIPNS_16__hash_node_baseIPNS_11__hash_nodeINS_17__hash_value_typeIcP9trie_nodeEEPvEEEEEEEC1B7v160006Ev, symObjAddr: 0xD8E0, symBinAddr: 0x100011760, symSize: 0x20 }
  - { offsetInCU: 0x2D83F, offset: 0x2D83F, size: 0x8, addend: 0x0, symName: __ZNSt3__125__bucket_list_deallocatorINS_9allocatorIPNS_16__hash_node_baseIPNS_11__hash_nodeINS_17__hash_value_typeIcP9trie_nodeEEPvEEEEEEEC2B7v160006Ev, symObjAddr: 0xD900, symBinAddr: 0x100011780, symSize: 0x40 }
  - { offsetInCU: 0x2D869, offset: 0x2D869, size: 0x8, addend: 0x0, symName: __ZNSt3__117__compressed_pairImNS_9allocatorIPNS_16__hash_node_baseIPNS_11__hash_nodeINS_17__hash_value_typeIcP9trie_nodeEEPvEEEEEEEC1B7v160006IiNS_18__default_init_tagEEEOT_OT0_, symObjAddr: 0xD940, symBinAddr: 0x1000117C0, symSize: 0x30 }
  - { offsetInCU: 0x2D8C1, offset: 0x2D8C1, size: 0x8, addend: 0x0, symName: __ZNSt3__117__compressed_pairImNS_9allocatorIPNS_16__hash_node_baseIPNS_11__hash_nodeINS_17__hash_value_typeIcP9trie_nodeEEPvEEEEEEEC2B7v160006IiNS_18__default_init_tagEEEOT_OT0_, symObjAddr: 0xD970, symBinAddr: 0x1000117F0, symSize: 0x40 }
  - { offsetInCU: 0x2D919, offset: 0x2D919, size: 0x8, addend: 0x0, symName: __ZNSt3__122__compressed_pair_elemINS_9allocatorIPNS_16__hash_node_baseIPNS_11__hash_nodeINS_17__hash_value_typeIcP9trie_nodeEEPvEEEEEELi1ELb1EEC2B7v160006ENS_18__default_init_tagE, symObjAddr: 0xD9B0, symBinAddr: 0x100011830, symSize: 0x20 }
  - { offsetInCU: 0x2D94E, offset: 0x2D94E, size: 0x8, addend: 0x0, symName: __ZNSt3__19allocatorIPNS_16__hash_node_baseIPNS_11__hash_nodeINS_17__hash_value_typeIcP9trie_nodeEEPvEEEEEC2B7v160006Ev, symObjAddr: 0xD9D0, symBinAddr: 0x100011850, symSize: 0x20 }
  - { offsetInCU: 0x2D978, offset: 0x2D978, size: 0x8, addend: 0x0, symName: __ZNSt3__116__non_trivial_ifILb1ENS_9allocatorIPNS_16__hash_node_baseIPNS_11__hash_nodeINS_17__hash_value_typeIcP9trie_nodeEEPvEEEEEEEC2B7v160006Ev, symObjAddr: 0xD9F0, symBinAddr: 0x100011870, symSize: 0x10 }
  - { offsetInCU: 0x2D9A2, offset: 0x2D9A2, size: 0x8, addend: 0x0, symName: __ZNSt3__117__compressed_pairINS_16__hash_node_baseIPNS_11__hash_nodeINS_17__hash_value_typeIcP9trie_nodeEEPvEEEENS_9allocatorIS8_EEEC2B7v160006ILb1EvEEv, symObjAddr: 0xDA00, symBinAddr: 0x100011880, symSize: 0x30 }
  - { offsetInCU: 0x2D9D7, offset: 0x2D9D7, size: 0x8, addend: 0x0, symName: __ZNSt3__122__compressed_pair_elemINS_16__hash_node_baseIPNS_11__hash_nodeINS_17__hash_value_typeIcP9trie_nodeEEPvEEEELi0ELb0EEC2B7v160006ENS_16__value_init_tagE, symObjAddr: 0xDA30, symBinAddr: 0x1000118B0, symSize: 0x20 }
  - { offsetInCU: 0x2DA0C, offset: 0x2DA0C, size: 0x8, addend: 0x0, symName: __ZNSt3__122__compressed_pair_elemINS_9allocatorINS_11__hash_nodeINS_17__hash_value_typeIcP9trie_nodeEEPvEEEELi1ELb1EEC2B7v160006ENS_16__value_init_tagE, symObjAddr: 0xDA50, symBinAddr: 0x1000118D0, symSize: 0x20 }
  - { offsetInCU: 0x2DA41, offset: 0x2DA41, size: 0x8, addend: 0x0, symName: __ZNSt3__116__hash_node_baseIPNS_11__hash_nodeINS_17__hash_value_typeIcP9trie_nodeEEPvEEEC1B7v160006Ev, symObjAddr: 0xDA70, symBinAddr: 0x1000118F0, symSize: 0x20 }
  - { offsetInCU: 0x2DA6B, offset: 0x2DA6B, size: 0x8, addend: 0x0, symName: __ZNSt3__116__hash_node_baseIPNS_11__hash_nodeINS_17__hash_value_typeIcP9trie_nodeEEPvEEEC2B7v160006Ev, symObjAddr: 0xDA90, symBinAddr: 0x100011910, symSize: 0x20 }
  - { offsetInCU: 0x2DA95, offset: 0x2DA95, size: 0x8, addend: 0x0, symName: __ZNSt3__19allocatorINS_11__hash_nodeINS_17__hash_value_typeIcP9trie_nodeEEPvEEEC2B7v160006Ev, symObjAddr: 0xDAB0, symBinAddr: 0x100011930, symSize: 0x20 }
  - { offsetInCU: 0x2DABF, offset: 0x2DABF, size: 0x8, addend: 0x0, symName: __ZNSt3__116__non_trivial_ifILb1ENS_9allocatorINS_11__hash_nodeINS_17__hash_value_typeIcP9trie_nodeEEPvEEEEEC2B7v160006Ev, symObjAddr: 0xDAD0, symBinAddr: 0x100011950, symSize: 0x10 }
  - { offsetInCU: 0x2DAE9, offset: 0x2DAE9, size: 0x8, addend: 0x0, symName: __ZNSt3__117__compressed_pairImNS_22__unordered_map_hasherIcNS_17__hash_value_typeIcP9trie_nodeEENS_4hashIcEENS_8equal_toIcEELb1EEEEC2B7v160006IiNS_18__default_init_tagEEEOT_OT0_, symObjAddr: 0xDAE0, symBinAddr: 0x100011960, symSize: 0x40 }
  - { offsetInCU: 0x2DB41, offset: 0x2DB41, size: 0x8, addend: 0x0, symName: __ZNSt3__122__compressed_pair_elemINS_22__unordered_map_hasherIcNS_17__hash_value_typeIcP9trie_nodeEENS_4hashIcEENS_8equal_toIcEELb1EEELi1ELb1EEC2B7v160006ENS_18__default_init_tagE, symObjAddr: 0xDB20, symBinAddr: 0x1000119A0, symSize: 0x20 }
  - { offsetInCU: 0x2DB76, offset: 0x2DB76, size: 0x8, addend: 0x0, symName: __ZNSt3__122__unordered_map_hasherIcNS_17__hash_value_typeIcP9trie_nodeEENS_4hashIcEENS_8equal_toIcEELb1EEC2B7v160006Ev, symObjAddr: 0xDB40, symBinAddr: 0x1000119C0, symSize: 0x10 }
  - { offsetInCU: 0x2DBA0, offset: 0x2DBA0, size: 0x8, addend: 0x0, symName: __ZNSt3__117__compressed_pairIfNS_21__unordered_map_equalIcNS_17__hash_value_typeIcP9trie_nodeEENS_8equal_toIcEENS_4hashIcEELb1EEEEC2B7v160006IfNS_18__default_init_tagEEEOT_OT0_, symObjAddr: 0xDB50, symBinAddr: 0x1000119D0, symSize: 0x40 }
  - { offsetInCU: 0x2DBF8, offset: 0x2DBF8, size: 0x8, addend: 0x0, symName: __ZNSt3__122__compressed_pair_elemIfLi0ELb0EEC2B7v160006IfvEEOT_, symObjAddr: 0xDB90, symBinAddr: 0x100011A10, symSize: 0x20 }
  - { offsetInCU: 0x2DC3A, offset: 0x2DC3A, size: 0x8, addend: 0x0, symName: __ZNSt3__122__compressed_pair_elemINS_21__unordered_map_equalIcNS_17__hash_value_typeIcP9trie_nodeEENS_8equal_toIcEENS_4hashIcEELb1EEELi1ELb1EEC2B7v160006ENS_18__default_init_tagE, symObjAddr: 0xDBB0, symBinAddr: 0x100011A30, symSize: 0x20 }
  - { offsetInCU: 0x2DC6F, offset: 0x2DC6F, size: 0x8, addend: 0x0, symName: __ZNSt3__121__unordered_map_equalIcNS_17__hash_value_typeIcP9trie_nodeEENS_8equal_toIcEENS_4hashIcEELb1EEC2B7v160006Ev, symObjAddr: 0xDBD0, symBinAddr: 0x100011A50, symSize: 0x10 }
  - { offsetInCU: 0x2DC99, offset: 0x2DC99, size: 0x8, addend: 0x0, symName: __ZNSt3__113basic_fstreamIcNS_11char_traitsIcEEED2Ev, symObjAddr: 0xDBE0, symBinAddr: 0x100011A60, symSize: 0x60 }
  - { offsetInCU: 0x2DCD2, offset: 0x2DCD2, size: 0x8, addend: 0x0, symName: __ZThn16_NSt3__113basic_fstreamIcNS_11char_traitsIcEEED1Ev, symObjAddr: 0xDC40, symBinAddr: 0x100011AC0, symSize: 0x20 }
  - { offsetInCU: 0x2DCE8, offset: 0x2DCE8, size: 0x8, addend: 0x0, symName: __ZTv0_n24_NSt3__113basic_fstreamIcNS_11char_traitsIcEEED1Ev, symObjAddr: 0xDC60, symBinAddr: 0x100011AE0, symSize: 0x20 }
  - { offsetInCU: 0x2DCFE, offset: 0x2DCFE, size: 0x8, addend: 0x0, symName: __ZNSt3__113basic_fstreamIcNS_11char_traitsIcEEED0Ev, symObjAddr: 0xDC80, symBinAddr: 0x100011B00, symSize: 0x30 }
  - { offsetInCU: 0x2DD2A, offset: 0x2DD2A, size: 0x8, addend: 0x0, symName: __ZThn16_NSt3__113basic_fstreamIcNS_11char_traitsIcEEED0Ev, symObjAddr: 0xDCB0, symBinAddr: 0x100011B30, symSize: 0x20 }
  - { offsetInCU: 0x2DD40, offset: 0x2DD40, size: 0x8, addend: 0x0, symName: __ZTv0_n24_NSt3__113basic_fstreamIcNS_11char_traitsIcEEED0Ev, symObjAddr: 0xDCD0, symBinAddr: 0x100011B50, symSize: 0x20 }
  - { offsetInCU: 0x2DD56, offset: 0x2DD56, size: 0x8, addend: 0x0, symName: __ZN8CustomerC2ENSt3__112basic_stringIcNS0_11char_traitsIcEENS0_9allocatorIcEEEES6_S6_S6_S6_, symObjAddr: 0xDCF0, symBinAddr: 0x100011B70, symSize: 0x250 }
  - { offsetInCU: 0x2DDCB, offset: 0x2DDCB, size: 0x8, addend: 0x0, symName: __ZNSt3__114basic_ifstreamIcNS_11char_traitsIcEEED2Ev, symObjAddr: 0xDF40, symBinAddr: 0x100011DC0, symSize: 0x60 }
  - { offsetInCU: 0x2DE05, offset: 0x2DE05, size: 0x8, addend: 0x0, symName: __ZTv0_n24_NSt3__114basic_ifstreamIcNS_11char_traitsIcEEED1Ev, symObjAddr: 0xDFA0, symBinAddr: 0x100011E20, symSize: 0x20 }
  - { offsetInCU: 0x2DE1C, offset: 0x2DE1C, size: 0x8, addend: 0x0, symName: __ZNSt3__18ios_base4setfB7v160006Ejj, symObjAddr: 0xDFC0, symBinAddr: 0x100011E40, symSize: 0x50 }
  - { offsetInCU: 0x2DE71, offset: 0x2DE71, size: 0x8, addend: 0x0, symName: __ZNSt3__18ios_base6unsetfB7v160006Ej, symObjAddr: 0xE010, symBinAddr: 0x100011E90, symSize: 0x20 }
  - { offsetInCU: 0x2DEA8, offset: 0x2DEA8, size: 0x8, addend: 0x0, symName: __ZNSt3__18__iom_t6C1B7v160006Ei, symObjAddr: 0xE030, symBinAddr: 0x100011EB0, symSize: 0x30 }
  - { offsetInCU: 0x2DEE0, offset: 0x2DEE0, size: 0x8, addend: 0x0, symName: __ZNSt3__18__iom_t6C2B7v160006Ei, symObjAddr: 0xE060, symBinAddr: 0x100011EE0, symSize: 0x20 }
  - { offsetInCU: 0x2DF18, offset: 0x2DF18, size: 0x8, addend: 0x0, symName: __ZN7BookingC2Ev, symObjAddr: 0xE080, symBinAddr: 0x100011F00, symSize: 0x30 }
  - { offsetInCU: 0x2DF42, offset: 0x2DF42, size: 0x8, addend: 0x0, symName: __ZN4EdgeC2EPKcS1_if, symObjAddr: 0xE0B0, symBinAddr: 0x100011F30, symSize: 0x60 }
  - { offsetInCU: 0x2DFA4, offset: 0x2DFA4, size: 0x8, addend: 0x0, symName: __ZNSt3__14listINS_4pairINS_12basic_stringIcNS_11char_traitsIcEENS_9allocatorIcEEEEiEENS5_IS8_EEE9push_backEOS8_, symObjAddr: 0xE110, symBinAddr: 0x100011F90, symSize: 0xE0 }
  - { offsetInCU: 0x2DFF9, offset: 0x2DFF9, size: 0x8, addend: 0x0, symName: __ZNSt3__116allocator_traitsINS_9allocatorINS_11__list_nodeINS_4pairINS_12basic_stringIcNS_11char_traitsIcEENS1_IcEEEEiEEPvEEEEE9constructB7v160006IS9_JS9_EvEEvRSC_PT_DpOT0_, symObjAddr: 0xE230, symBinAddr: 0x1000120B0, symSize: 0x30 }
  - { offsetInCU: 0x2E050, offset: 0x2E050, size: 0x8, addend: 0x0, symName: __ZNSt3__19allocatorINS_11__list_nodeINS_4pairINS_12basic_stringIcNS_11char_traitsIcEENS0_IcEEEEiEEPvEEE9constructB7v160006IS8_JS8_EEEvPT_DpOT0_, symObjAddr: 0xE260, symBinAddr: 0x1000120E0, symSize: 0x30 }
  - { offsetInCU: 0x2E0A6, offset: 0x2E0A6, size: 0x8, addend: 0x0, symName: __ZNSt3__14pairINS_12basic_stringIcNS_11char_traitsIcEENS_9allocatorIcEEEEiEC1EOS7_, symObjAddr: 0xE290, symBinAddr: 0x100012110, symSize: 0x30 }
  - { offsetInCU: 0x2E0DB, offset: 0x2E0DB, size: 0x8, addend: 0x0, symName: __ZNSt3__14pairINS_12basic_stringIcNS_11char_traitsIcEENS_9allocatorIcEEEEiEC2EOS7_, symObjAddr: 0xE2C0, symBinAddr: 0x100012140, symSize: 0x40 }
  - { offsetInCU: 0x2E110, offset: 0x2E110, size: 0x8, addend: 0x0, symName: __ZNSt3__14pairINS_12basic_stringIcNS_11char_traitsIcEENS_9allocatorIcEEEEiEC1B7v160006IRS6_RiLPv0EEEOT_OT0_, symObjAddr: 0xE300, symBinAddr: 0x100012180, symSize: 0x30 }
  - { offsetInCU: 0x2E16E, offset: 0x2E16E, size: 0x8, addend: 0x0, symName: __ZNSt3__14pairINS_12basic_stringIcNS_11char_traitsIcEENS_9allocatorIcEEEEiEC2B7v160006IRS6_RiLPv0EEEOT_OT0_, symObjAddr: 0xE330, symBinAddr: 0x1000121B0, symSize: 0x40 }
  - { offsetInCU: 0x2E1CC, offset: 0x2E1CC, size: 0x8, addend: 0x0, symName: __ZNSt3__14listINS_4pairINS_12basic_stringIcNS_11char_traitsIcEENS_9allocatorIcEEEEfEENS5_IS8_EEE9push_backEOS8_, symObjAddr: 0xE370, symBinAddr: 0x1000121F0, symSize: 0xE0 }
  - { offsetInCU: 0x2E221, offset: 0x2E221, size: 0x8, addend: 0x0, symName: __ZNSt3__116allocator_traitsINS_9allocatorINS_11__list_nodeINS_4pairINS_12basic_stringIcNS_11char_traitsIcEENS1_IcEEEEfEEPvEEEEE9constructB7v160006IS9_JS9_EvEEvRSC_PT_DpOT0_, symObjAddr: 0xE490, symBinAddr: 0x100012310, symSize: 0x30 }
  - { offsetInCU: 0x2E278, offset: 0x2E278, size: 0x8, addend: 0x0, symName: __ZNSt3__19allocatorINS_11__list_nodeINS_4pairINS_12basic_stringIcNS_11char_traitsIcEENS0_IcEEEEfEEPvEEE9constructB7v160006IS8_JS8_EEEvPT_DpOT0_, symObjAddr: 0xE4C0, symBinAddr: 0x100012340, symSize: 0x30 }
  - { offsetInCU: 0x2E2CE, offset: 0x2E2CE, size: 0x8, addend: 0x0, symName: __ZNSt3__14pairINS_12basic_stringIcNS_11char_traitsIcEENS_9allocatorIcEEEEfEC1EOS7_, symObjAddr: 0xE4F0, symBinAddr: 0x100012370, symSize: 0x30 }
  - { offsetInCU: 0x2E303, offset: 0x2E303, size: 0x8, addend: 0x0, symName: __ZNSt3__14pairINS_12basic_stringIcNS_11char_traitsIcEENS_9allocatorIcEEEEfEC2EOS7_, symObjAddr: 0xE520, symBinAddr: 0x1000123A0, symSize: 0x40 }
  - { offsetInCU: 0x2E338, offset: 0x2E338, size: 0x8, addend: 0x0, symName: __ZNSt3__14pairINS_12basic_stringIcNS_11char_traitsIcEENS_9allocatorIcEEEEfEC1B7v160006IRS6_RfLPv0EEEOT_OT0_, symObjAddr: 0xE560, symBinAddr: 0x1000123E0, symSize: 0x30 }
  - { offsetInCU: 0x2E396, offset: 0x2E396, size: 0x8, addend: 0x0, symName: __ZNSt3__14pairINS_12basic_stringIcNS_11char_traitsIcEENS_9allocatorIcEEEEfEC2B7v160006IRS6_RfLPv0EEEOT_OT0_, symObjAddr: 0xE590, symBinAddr: 0x100012410, symSize: 0x40 }
  - { offsetInCU: 0x2E3F4, offset: 0x2E3F4, size: 0x8, addend: 0x0, symName: __ZN5AdminC2Ev, symObjAddr: 0xE5D0, symBinAddr: 0x100012450, symSize: 0x50 }
  - { offsetInCU: 0x2E420, offset: 0x2E420, size: 0x8, addend: 0x0, symName: __ZN5AdminD2Ev, symObjAddr: 0xE620, symBinAddr: 0x1000124A0, symSize: 0x50 }
  - { offsetInCU: 0x2E44C, offset: 0x2E44C, size: 0x8, addend: 0x0, symName: __ZN5AgentC2ENSt3__112basic_stringIcNS0_11char_traitsIcEENS0_9allocatorIcEEEES6_S6_, symObjAddr: 0xE670, symBinAddr: 0x1000124F0, symSize: 0xD0 }
  - { offsetInCU: 0x2E4A3, offset: 0x2E4A3, size: 0x8, addend: 0x0, symName: __ZN5AgentD2Ev, symObjAddr: 0xE740, symBinAddr: 0x1000125C0, symSize: 0x40 }
  - { offsetInCU: 0x2E4CF, offset: 0x2E4CF, size: 0x8, addend: 0x0, symName: __ZN4TrieC2Ev, symObjAddr: 0xE780, symBinAddr: 0x100012600, symSize: 0x70 }
  - { offsetInCU: 0x2E4F9, offset: 0x2E4F9, size: 0x8, addend: 0x0, symName: __ZN8GraphIntC2Ev, symObjAddr: 0xE7F0, symBinAddr: 0x100012670, symSize: 0x20 }
  - { offsetInCU: 0x2E525, offset: 0x2E525, size: 0x8, addend: 0x0, symName: __ZNSt3__13mapINS_12basic_stringIcNS_11char_traitsIcEENS_9allocatorIcEEEENS_4listINS_4pairIS6_iEENS4_IS9_EEEENS_4lessIS6_EENS4_INS8_IKS6_SB_EEEEEC1B7v160006Ev, symObjAddr: 0xE810, symBinAddr: 0x100012690, symSize: 0x20 }
  - { offsetInCU: 0x2E54F, offset: 0x2E54F, size: 0x8, addend: 0x0, symName: __ZNSt3__13mapINS_12basic_stringIcNS_11char_traitsIcEENS_9allocatorIcEEEENS_4listINS_4pairIS6_iEENS4_IS9_EEEENS_4lessIS6_EENS4_INS8_IKS6_SB_EEEEEC2B7v160006Ev, symObjAddr: 0xE830, symBinAddr: 0x1000126B0, symSize: 0x30 }
  - { offsetInCU: 0x2E579, offset: 0x2E579, size: 0x8, addend: 0x0, symName: __ZNSt3__119__map_value_compareINS_12basic_stringIcNS_11char_traitsIcEENS_9allocatorIcEEEENS_12__value_typeIS6_NS_4listINS_4pairIS6_iEENS4_ISA_EEEEEENS_4lessIS6_EELb1EEC1B7v160006ESF_, symObjAddr: 0xE860, symBinAddr: 0x1000126E0, symSize: 0x20 }
  - { offsetInCU: 0x2E5B2, offset: 0x2E5B2, size: 0x8, addend: 0x0, symName: __ZNSt3__16__treeINS_12__value_typeINS_12basic_stringIcNS_11char_traitsIcEENS_9allocatorIcEEEENS_4listINS_4pairIS7_iEENS5_ISA_EEEEEENS_19__map_value_compareIS7_SD_NS_4lessIS7_EELb1EEENS5_ISD_EEEC1ERKSH_, symObjAddr: 0xE880, symBinAddr: 0x100012700, symSize: 0x30 }
  - { offsetInCU: 0x2E5ED, offset: 0x2E5ED, size: 0x8, addend: 0x0, symName: __ZNSt3__119__map_value_compareINS_12basic_stringIcNS_11char_traitsIcEENS_9allocatorIcEEEENS_12__value_typeIS6_NS_4listINS_4pairIS6_iEENS4_ISA_EEEEEENS_4lessIS6_EELb1EEC2B7v160006ESF_, symObjAddr: 0xE8B0, symBinAddr: 0x100012730, symSize: 0x10 }
  - { offsetInCU: 0x2E626, offset: 0x2E626, size: 0x8, addend: 0x0, symName: __ZNSt3__16__treeINS_12__value_typeINS_12basic_stringIcNS_11char_traitsIcEENS_9allocatorIcEEEENS_4listINS_4pairIS7_iEENS5_ISA_EEEEEENS_19__map_value_compareIS7_SD_NS_4lessIS7_EELb1EEENS5_ISD_EEEC2ERKSH_, symObjAddr: 0xE8C0, symBinAddr: 0x100012740, symSize: 0x80 }
  - { offsetInCU: 0x2E661, offset: 0x2E661, size: 0x8, addend: 0x0, symName: __ZNSt3__117__compressed_pairINS_15__tree_end_nodeIPNS_16__tree_node_baseIPvEEEENS_9allocatorINS_11__tree_nodeINS_12__value_typeINS_12basic_stringIcNS_11char_traitsIcEENS7_IcEEEENS_4listINS_4pairISE_iEENS7_ISH_EEEEEES3_EEEEEC1B7v160006ILb1EvEEv, symObjAddr: 0xE940, symBinAddr: 0x1000127C0, symSize: 0x20 }
  - { offsetInCU: 0x2E696, offset: 0x2E696, size: 0x8, addend: 0x0, symName: __ZNSt3__117__compressed_pairImNS_19__map_value_compareINS_12basic_stringIcNS_11char_traitsIcEENS_9allocatorIcEEEENS_12__value_typeIS7_NS_4listINS_4pairIS7_iEENS5_ISB_EEEEEENS_4lessIS7_EELb1EEEEC1B7v160006IiRKSH_EEOT_OT0_, symObjAddr: 0xE960, symBinAddr: 0x1000127E0, symSize: 0x30 }
  - { offsetInCU: 0x2E6EE, offset: 0x2E6EE, size: 0x8, addend: 0x0, symName: __ZNSt3__16__treeINS_12__value_typeINS_12basic_stringIcNS_11char_traitsIcEENS_9allocatorIcEEEENS_4listINS_4pairIS7_iEENS5_ISA_EEEEEENS_19__map_value_compareIS7_SD_NS_4lessIS7_EELb1EEENS5_ISD_EEE10__end_nodeB7v160006Ev, symObjAddr: 0xE990, symBinAddr: 0x100012810, symSize: 0x30 }
  - { offsetInCU: 0x2E714, offset: 0x2E714, size: 0x8, addend: 0x0, symName: __ZNSt3__16__treeINS_12__value_typeINS_12basic_stringIcNS_11char_traitsIcEENS_9allocatorIcEEEENS_4listINS_4pairIS7_iEENS5_ISA_EEEEEENS_19__map_value_compareIS7_SD_NS_4lessIS7_EELb1EEENS5_ISD_EEE12__begin_nodeB7v160006Ev, symObjAddr: 0xE9C0, symBinAddr: 0x100012840, symSize: 0x10 }
  - { offsetInCU: 0x2E73A, offset: 0x2E73A, size: 0x8, addend: 0x0, symName: __ZNSt3__117__compressed_pairINS_15__tree_end_nodeIPNS_16__tree_node_baseIPvEEEENS_9allocatorINS_11__tree_nodeINS_12__value_typeINS_12basic_stringIcNS_11char_traitsIcEENS7_IcEEEENS_4listINS_4pairISE_iEENS7_ISH_EEEEEES3_EEEEEC2B7v160006ILb1EvEEv, symObjAddr: 0xE9D0, symBinAddr: 0x100012850, symSize: 0x30 }
  - { offsetInCU: 0x2E76F, offset: 0x2E76F, size: 0x8, addend: 0x0, symName: __ZNSt3__122__compressed_pair_elemINS_15__tree_end_nodeIPNS_16__tree_node_baseIPvEEEELi0ELb0EEC2B7v160006ENS_16__value_init_tagE, symObjAddr: 0xEA00, symBinAddr: 0x100012880, symSize: 0x20 }
  - { offsetInCU: 0x2E7A4, offset: 0x2E7A4, size: 0x8, addend: 0x0, symName: __ZNSt3__122__compressed_pair_elemINS_9allocatorINS_11__tree_nodeINS_12__value_typeINS_12basic_stringIcNS_11char_traitsIcEENS1_IcEEEENS_4listINS_4pairIS8_iEENS1_ISB_EEEEEEPvEEEELi1ELb1EEC2B7v160006ENS_16__value_init_tagE, symObjAddr: 0xEA20, symBinAddr: 0x1000128A0, symSize: 0x20 }
  - { offsetInCU: 0x2E7D9, offset: 0x2E7D9, size: 0x8, addend: 0x0, symName: __ZNSt3__115__tree_end_nodeIPNS_16__tree_node_baseIPvEEEC1B7v160006Ev, symObjAddr: 0xEA40, symBinAddr: 0x1000128C0, symSize: 0x20 }
  - { offsetInCU: 0x2E803, offset: 0x2E803, size: 0x8, addend: 0x0, symName: __ZNSt3__115__tree_end_nodeIPNS_16__tree_node_baseIPvEEEC2B7v160006Ev, symObjAddr: 0xEA60, symBinAddr: 0x1000128E0, symSize: 0x20 }
  - { offsetInCU: 0x2E82D, offset: 0x2E82D, size: 0x8, addend: 0x0, symName: __ZNSt3__19allocatorINS_11__tree_nodeINS_12__value_typeINS_12basic_stringIcNS_11char_traitsIcEENS0_IcEEEENS_4listINS_4pairIS7_iEENS0_ISA_EEEEEEPvEEEC2B7v160006Ev, symObjAddr: 0xEA80, symBinAddr: 0x100012900, symSize: 0x20 }
  - { offsetInCU: 0x2E857, offset: 0x2E857, size: 0x8, addend: 0x0, symName: __ZNSt3__116__non_trivial_ifILb1ENS_9allocatorINS_11__tree_nodeINS_12__value_typeINS_12basic_stringIcNS_11char_traitsIcEENS1_IcEEEENS_4listINS_4pairIS8_iEENS1_ISB_EEEEEEPvEEEEEC2B7v160006Ev, symObjAddr: 0xEAA0, symBinAddr: 0x100012920, symSize: 0x10 }
  - { offsetInCU: 0x2E881, offset: 0x2E881, size: 0x8, addend: 0x0, symName: __ZNSt3__117__compressed_pairImNS_19__map_value_compareINS_12basic_stringIcNS_11char_traitsIcEENS_9allocatorIcEEEENS_12__value_typeIS7_NS_4listINS_4pairIS7_iEENS5_ISB_EEEEEENS_4lessIS7_EELb1EEEEC2B7v160006IiRKSH_EEOT_OT0_, symObjAddr: 0xEAB0, symBinAddr: 0x100012930, symSize: 0x40 }
  - { offsetInCU: 0x2E8D9, offset: 0x2E8D9, size: 0x8, addend: 0x0, symName: __ZNSt3__122__compressed_pair_elemINS_19__map_value_compareINS_12basic_stringIcNS_11char_traitsIcEENS_9allocatorIcEEEENS_12__value_typeIS7_NS_4listINS_4pairIS7_iEENS5_ISB_EEEEEENS_4lessIS7_EELb1EEELi1ELb1EEC2B7v160006IRKSH_vEEOT_, symObjAddr: 0xEAF0, symBinAddr: 0x100012970, symSize: 0x10 }
  - { offsetInCU: 0x2E91B, offset: 0x2E91B, size: 0x8, addend: 0x0, symName: __ZNSt3__114pointer_traitsIPNS_15__tree_end_nodeIPNS_16__tree_node_baseIPvEEEEE10pointer_toB7v160006ERS6_, symObjAddr: 0xEB00, symBinAddr: 0x100012980, symSize: 0x10 }
  - { offsetInCU: 0x2E93E, offset: 0x2E93E, size: 0x8, addend: 0x0, symName: __ZNSt3__117__compressed_pairINS_15__tree_end_nodeIPNS_16__tree_node_baseIPvEEEENS_9allocatorINS_11__tree_nodeINS_12__value_typeINS_12basic_stringIcNS_11char_traitsIcEENS7_IcEEEENS_4listINS_4pairISE_iEENS7_ISH_EEEEEES3_EEEEE5firstB7v160006Ev, symObjAddr: 0xEB10, symBinAddr: 0x100012990, symSize: 0x20 }
  - { offsetInCU: 0x2E964, offset: 0x2E964, size: 0x8, addend: 0x0, symName: __ZNSt3__122__compressed_pair_elemINS_15__tree_end_nodeIPNS_16__tree_node_baseIPvEEEELi0ELb0EE5__getB7v160006Ev, symObjAddr: 0xEB30, symBinAddr: 0x1000129B0, symSize: 0x10 }
  - { offsetInCU: 0x2E98A, offset: 0x2E98A, size: 0x8, addend: 0x0, symName: __ZN8GraphIntD2Ev, symObjAddr: 0xEB40, symBinAddr: 0x1000129C0, symSize: 0x20 }
  - { offsetInCU: 0x2E9B6, offset: 0x2E9B6, size: 0x8, addend: 0x0, symName: __ZNSt3__13mapINS_12basic_stringIcNS_11char_traitsIcEENS_9allocatorIcEEEENS_4listINS_4pairIS6_iEENS4_IS9_EEEENS_4lessIS6_EENS4_INS8_IKS6_SB_EEEEED1B7v160006Ev, symObjAddr: 0xEB60, symBinAddr: 0x1000129E0, symSize: 0x20 }
  - { offsetInCU: 0x2E9E0, offset: 0x2E9E0, size: 0x8, addend: 0x0, symName: __ZNSt3__13mapINS_12basic_stringIcNS_11char_traitsIcEENS_9allocatorIcEEEENS_4listINS_4pairIS6_iEENS4_IS9_EEEENS_4lessIS6_EENS4_INS8_IKS6_SB_EEEEED2B7v160006Ev, symObjAddr: 0xEB80, symBinAddr: 0x100012A00, symSize: 0x20 }
  - { offsetInCU: 0x2EA0A, offset: 0x2EA0A, size: 0x8, addend: 0x0, symName: __ZNSt3__16__treeINS_12__value_typeINS_12basic_stringIcNS_11char_traitsIcEENS_9allocatorIcEEEENS_4listINS_4pairIS7_iEENS5_ISA_EEEEEENS_19__map_value_compareIS7_SD_NS_4lessIS7_EELb1EEENS5_ISD_EEED1Ev, symObjAddr: 0xEBA0, symBinAddr: 0x100012A20, symSize: 0x20 }
  - { offsetInCU: 0x2EA36, offset: 0x2EA36, size: 0x8, addend: 0x0, symName: __ZNSt3__16__treeINS_12__value_typeINS_12basic_stringIcNS_11char_traitsIcEENS_9allocatorIcEEEENS_4listINS_4pairIS7_iEENS5_ISA_EEEEEENS_19__map_value_compareIS7_SD_NS_4lessIS7_EELb1EEENS5_ISD_EEED2Ev, symObjAddr: 0xEBC0, symBinAddr: 0x100012A40, symSize: 0x30 }
  - { offsetInCU: 0x2EA62, offset: 0x2EA62, size: 0x8, addend: 0x0, symName: __ZNSt3__16__treeINS_12__value_typeINS_12basic_stringIcNS_11char_traitsIcEENS_9allocatorIcEEEENS_4listINS_4pairIS7_iEENS5_ISA_EEEEEENS_19__map_value_compareIS7_SD_NS_4lessIS7_EELb1EEENS5_ISD_EEE7destroyEPNS_11__tree_nodeISD_PvEE, symObjAddr: 0xEBF0, symBinAddr: 0x100012A70, symSize: 0xB0 }
  - { offsetInCU: 0x2EAAE, offset: 0x2EAAE, size: 0x8, addend: 0x0, symName: __ZNKSt3__16__treeINS_12__value_typeINS_12basic_stringIcNS_11char_traitsIcEENS_9allocatorIcEEEENS_4listINS_4pairIS7_iEENS5_ISA_EEEEEENS_19__map_value_compareIS7_SD_NS_4lessIS7_EELb1EEENS5_ISD_EEE6__rootB7v160006Ev, symObjAddr: 0xECA0, symBinAddr: 0x100012B20, symSize: 0x20 }
  - { offsetInCU: 0x2EAD4, offset: 0x2EAD4, size: 0x8, addend: 0x0, symName: __ZNSt3__16__treeINS_12__value_typeINS_12basic_stringIcNS_11char_traitsIcEENS_9allocatorIcEEEENS_4listINS_4pairIS7_iEENS5_ISA_EEEEEENS_19__map_value_compareIS7_SD_NS_4lessIS7_EELb1EEENS5_ISD_EEE12__node_allocB7v160006Ev, symObjAddr: 0xECC0, symBinAddr: 0x100012B40, symSize: 0x20 }
  - { offsetInCU: 0x2EAFA, offset: 0x2EAFA, size: 0x8, addend: 0x0, symName: __ZNSt3__116allocator_traitsINS_9allocatorINS_11__tree_nodeINS_12__value_typeINS_12basic_stringIcNS_11char_traitsIcEENS1_IcEEEENS_4listINS_4pairIS8_iEENS1_ISB_EEEEEEPvEEEEE7destroyB7v160006INSA_IKS8_SD_EEvvEEvRSH_PT_, symObjAddr: 0xECE0, symBinAddr: 0x100012B60, symSize: 0x20 }
  - { offsetInCU: 0x2EB35, offset: 0x2EB35, size: 0x8, addend: 0x0, symName: __ZNSt3__122__tree_key_value_typesINS_12__value_typeINS_12basic_stringIcNS_11char_traitsIcEENS_9allocatorIcEEEENS_4listINS_4pairIS7_iEENS5_ISA_EEEEEEE9__get_ptrB7v160006ERSD_, symObjAddr: 0xED00, symBinAddr: 0x100012B80, symSize: 0x20 }
  - { offsetInCU: 0x2EB59, offset: 0x2EB59, size: 0x8, addend: 0x0, symName: __ZNSt3__116allocator_traitsINS_9allocatorINS_11__tree_nodeINS_12__value_typeINS_12basic_stringIcNS_11char_traitsIcEENS1_IcEEEENS_4listINS_4pairIS8_iEENS1_ISB_EEEEEEPvEEEEE10deallocateB7v160006ERSH_PSG_m, symObjAddr: 0xED20, symBinAddr: 0x100012BA0, symSize: 0x30 }
  - { offsetInCU: 0x2EB9B, offset: 0x2EB9B, size: 0x8, addend: 0x0, symName: __ZNSt3__117__compressed_pairINS_15__tree_end_nodeIPNS_16__tree_node_baseIPvEEEENS_9allocatorINS_11__tree_nodeINS_12__value_typeINS_12basic_stringIcNS_11char_traitsIcEENS7_IcEEEENS_4listINS_4pairISE_iEENS7_ISH_EEEEEES3_EEEEE6secondB7v160006Ev, symObjAddr: 0xED50, symBinAddr: 0x100012BD0, symSize: 0x20 }
  - { offsetInCU: 0x2EBC1, offset: 0x2EBC1, size: 0x8, addend: 0x0, symName: __ZNSt3__122__compressed_pair_elemINS_9allocatorINS_11__tree_nodeINS_12__value_typeINS_12basic_stringIcNS_11char_traitsIcEENS1_IcEEEENS_4listINS_4pairIS8_iEENS1_ISB_EEEEEEPvEEEELi1ELb1EE5__getB7v160006Ev, symObjAddr: 0xED70, symBinAddr: 0x100012BF0, symSize: 0x10 }
  - { offsetInCU: 0x2EBE7, offset: 0x2EBE7, size: 0x8, addend: 0x0, symName: __ZNSt3__112__value_typeINS_12basic_stringIcNS_11char_traitsIcEENS_9allocatorIcEEEENS_4listINS_4pairIS6_iEENS4_IS9_EEEEE11__get_valueB7v160006Ev, symObjAddr: 0xED80, symBinAddr: 0x100012C00, symSize: 0x10 }
  - { offsetInCU: 0x2EC0D, offset: 0x2EC0D, size: 0x8, addend: 0x0, symName: __ZNSt3__19allocatorINS_11__tree_nodeINS_12__value_typeINS_12basic_stringIcNS_11char_traitsIcEENS0_IcEEEENS_4listINS_4pairIS7_iEENS0_ISA_EEEEEEPvEEE10deallocateB7v160006EPSF_m, symObjAddr: 0xED90, symBinAddr: 0x100012C10, symSize: 0x50 }
  - { offsetInCU: 0x2EC4F, offset: 0x2EC4F, size: 0x8, addend: 0x0, symName: __ZNKSt3__16__treeINS_12__value_typeINS_12basic_stringIcNS_11char_traitsIcEENS_9allocatorIcEEEENS_4listINS_4pairIS7_iEENS5_ISA_EEEEEENS_19__map_value_compareIS7_SD_NS_4lessIS7_EELb1EEENS5_ISD_EEE10__end_nodeB7v160006Ev, symObjAddr: 0xEDE0, symBinAddr: 0x100012C60, symSize: 0x30 }
  - { offsetInCU: 0x2EC75, offset: 0x2EC75, size: 0x8, addend: 0x0, symName: __ZNKSt3__117__compressed_pairINS_15__tree_end_nodeIPNS_16__tree_node_baseIPvEEEENS_9allocatorINS_11__tree_nodeINS_12__value_typeINS_12basic_stringIcNS_11char_traitsIcEENS7_IcEEEENS_4listINS_4pairISE_iEENS7_ISH_EEEEEES3_EEEEE5firstB7v160006Ev, symObjAddr: 0xEE10, symBinAddr: 0x100012C90, symSize: 0x20 }
  - { offsetInCU: 0x2EC9B, offset: 0x2EC9B, size: 0x8, addend: 0x0, symName: __ZNKSt3__122__compressed_pair_elemINS_15__tree_end_nodeIPNS_16__tree_node_baseIPvEEEELi0ELb0EE5__getB7v160006Ev, symObjAddr: 0xEE30, symBinAddr: 0x100012CB0, symSize: 0x10 }
  - { offsetInCU: 0x2ECC1, offset: 0x2ECC1, size: 0x8, addend: 0x0, symName: __ZN10GraphFloatC2Ev, symObjAddr: 0xEE40, symBinAddr: 0x100012CC0, symSize: 0x20 }
  - { offsetInCU: 0x2ECED, offset: 0x2ECED, size: 0x8, addend: 0x0, symName: __ZNSt3__13mapINS_12basic_stringIcNS_11char_traitsIcEENS_9allocatorIcEEEENS_4listINS_4pairIS6_fEENS4_IS9_EEEENS_4lessIS6_EENS4_INS8_IKS6_SB_EEEEEC1B7v160006Ev, symObjAddr: 0xEE60, symBinAddr: 0x100012CE0, symSize: 0x20 }
  - { offsetInCU: 0x2ED17, offset: 0x2ED17, size: 0x8, addend: 0x0, symName: __ZNSt3__13mapINS_12basic_stringIcNS_11char_traitsIcEENS_9allocatorIcEEEENS_4listINS_4pairIS6_fEENS4_IS9_EEEENS_4lessIS6_EENS4_INS8_IKS6_SB_EEEEEC2B7v160006Ev, symObjAddr: 0xEE80, symBinAddr: 0x100012D00, symSize: 0x30 }
  - { offsetInCU: 0x2ED41, offset: 0x2ED41, size: 0x8, addend: 0x0, symName: __ZNSt3__119__map_value_compareINS_12basic_stringIcNS_11char_traitsIcEENS_9allocatorIcEEEENS_12__value_typeIS6_NS_4listINS_4pairIS6_fEENS4_ISA_EEEEEENS_4lessIS6_EELb1EEC1B7v160006ESF_, symObjAddr: 0xEEB0, symBinAddr: 0x100012D30, symSize: 0x20 }
  - { offsetInCU: 0x2ED7A, offset: 0x2ED7A, size: 0x8, addend: 0x0, symName: __ZNSt3__16__treeINS_12__value_typeINS_12basic_stringIcNS_11char_traitsIcEENS_9allocatorIcEEEENS_4listINS_4pairIS7_fEENS5_ISA_EEEEEENS_19__map_value_compareIS7_SD_NS_4lessIS7_EELb1EEENS5_ISD_EEEC1ERKSH_, symObjAddr: 0xEED0, symBinAddr: 0x100012D50, symSize: 0x30 }
  - { offsetInCU: 0x2EDB5, offset: 0x2EDB5, size: 0x8, addend: 0x0, symName: __ZNSt3__119__map_value_compareINS_12basic_stringIcNS_11char_traitsIcEENS_9allocatorIcEEEENS_12__value_typeIS6_NS_4listINS_4pairIS6_fEENS4_ISA_EEEEEENS_4lessIS6_EELb1EEC2B7v160006ESF_, symObjAddr: 0xEF00, symBinAddr: 0x100012D80, symSize: 0x10 }
  - { offsetInCU: 0x2EDEE, offset: 0x2EDEE, size: 0x8, addend: 0x0, symName: __ZNSt3__16__treeINS_12__value_typeINS_12basic_stringIcNS_11char_traitsIcEENS_9allocatorIcEEEENS_4listINS_4pairIS7_fEENS5_ISA_EEEEEENS_19__map_value_compareIS7_SD_NS_4lessIS7_EELb1EEENS5_ISD_EEEC2ERKSH_, symObjAddr: 0xEF10, symBinAddr: 0x100012D90, symSize: 0x80 }
  - { offsetInCU: 0x2EE29, offset: 0x2EE29, size: 0x8, addend: 0x0, symName: __ZNSt3__117__compressed_pairINS_15__tree_end_nodeIPNS_16__tree_node_baseIPvEEEENS_9allocatorINS_11__tree_nodeINS_12__value_typeINS_12basic_stringIcNS_11char_traitsIcEENS7_IcEEEENS_4listINS_4pairISE_fEENS7_ISH_EEEEEES3_EEEEEC1B7v160006ILb1EvEEv, symObjAddr: 0xEF90, symBinAddr: 0x100012E10, symSize: 0x20 }
  - { offsetInCU: 0x2EE5E, offset: 0x2EE5E, size: 0x8, addend: 0x0, symName: __ZNSt3__117__compressed_pairImNS_19__map_value_compareINS_12basic_stringIcNS_11char_traitsIcEENS_9allocatorIcEEEENS_12__value_typeIS7_NS_4listINS_4pairIS7_fEENS5_ISB_EEEEEENS_4lessIS7_EELb1EEEEC1B7v160006IiRKSH_EEOT_OT0_, symObjAddr: 0xEFB0, symBinAddr: 0x100012E30, symSize: 0x30 }
  - { offsetInCU: 0x2EEB6, offset: 0x2EEB6, size: 0x8, addend: 0x0, symName: __ZNSt3__16__treeINS_12__value_typeINS_12basic_stringIcNS_11char_traitsIcEENS_9allocatorIcEEEENS_4listINS_4pairIS7_fEENS5_ISA_EEEEEENS_19__map_value_compareIS7_SD_NS_4lessIS7_EELb1EEENS5_ISD_EEE10__end_nodeB7v160006Ev, symObjAddr: 0xEFE0, symBinAddr: 0x100012E60, symSize: 0x30 }
  - { offsetInCU: 0x2EEDC, offset: 0x2EEDC, size: 0x8, addend: 0x0, symName: __ZNSt3__16__treeINS_12__value_typeINS_12basic_stringIcNS_11char_traitsIcEENS_9allocatorIcEEEENS_4listINS_4pairIS7_fEENS5_ISA_EEEEEENS_19__map_value_compareIS7_SD_NS_4lessIS7_EELb1EEENS5_ISD_EEE12__begin_nodeB7v160006Ev, symObjAddr: 0xF010, symBinAddr: 0x100012E90, symSize: 0x10 }
  - { offsetInCU: 0x2EF02, offset: 0x2EF02, size: 0x8, addend: 0x0, symName: __ZNSt3__117__compressed_pairINS_15__tree_end_nodeIPNS_16__tree_node_baseIPvEEEENS_9allocatorINS_11__tree_nodeINS_12__value_typeINS_12basic_stringIcNS_11char_traitsIcEENS7_IcEEEENS_4listINS_4pairISE_fEENS7_ISH_EEEEEES3_EEEEEC2B7v160006ILb1EvEEv, symObjAddr: 0xF020, symBinAddr: 0x100012EA0, symSize: 0x30 }
  - { offsetInCU: 0x2EF37, offset: 0x2EF37, size: 0x8, addend: 0x0, symName: __ZNSt3__122__compressed_pair_elemINS_9allocatorINS_11__tree_nodeINS_12__value_typeINS_12basic_stringIcNS_11char_traitsIcEENS1_IcEEEENS_4listINS_4pairIS8_fEENS1_ISB_EEEEEEPvEEEELi1ELb1EEC2B7v160006ENS_16__value_init_tagE, symObjAddr: 0xF050, symBinAddr: 0x100012ED0, symSize: 0x20 }
  - { offsetInCU: 0x2EF6C, offset: 0x2EF6C, size: 0x8, addend: 0x0, symName: __ZNSt3__19allocatorINS_11__tree_nodeINS_12__value_typeINS_12basic_stringIcNS_11char_traitsIcEENS0_IcEEEENS_4listINS_4pairIS7_fEENS0_ISA_EEEEEEPvEEEC2B7v160006Ev, symObjAddr: 0xF070, symBinAddr: 0x100012EF0, symSize: 0x20 }
  - { offsetInCU: 0x2EF96, offset: 0x2EF96, size: 0x8, addend: 0x0, symName: __ZNSt3__116__non_trivial_ifILb1ENS_9allocatorINS_11__tree_nodeINS_12__value_typeINS_12basic_stringIcNS_11char_traitsIcEENS1_IcEEEENS_4listINS_4pairIS8_fEENS1_ISB_EEEEEEPvEEEEEC2B7v160006Ev, symObjAddr: 0xF090, symBinAddr: 0x100012F10, symSize: 0x10 }
  - { offsetInCU: 0x2EFC0, offset: 0x2EFC0, size: 0x8, addend: 0x0, symName: __ZNSt3__117__compressed_pairImNS_19__map_value_compareINS_12basic_stringIcNS_11char_traitsIcEENS_9allocatorIcEEEENS_12__value_typeIS7_NS_4listINS_4pairIS7_fEENS5_ISB_EEEEEENS_4lessIS7_EELb1EEEEC2B7v160006IiRKSH_EEOT_OT0_, symObjAddr: 0xF0A0, symBinAddr: 0x100012F20, symSize: 0x40 }
  - { offsetInCU: 0x2F018, offset: 0x2F018, size: 0x8, addend: 0x0, symName: __ZNSt3__122__compressed_pair_elemINS_19__map_value_compareINS_12basic_stringIcNS_11char_traitsIcEENS_9allocatorIcEEEENS_12__value_typeIS7_NS_4listINS_4pairIS7_fEENS5_ISB_EEEEEENS_4lessIS7_EELb1EEELi1ELb1EEC2B7v160006IRKSH_vEEOT_, symObjAddr: 0xF0E0, symBinAddr: 0x100012F60, symSize: 0x10 }
  - { offsetInCU: 0x2F05A, offset: 0x2F05A, size: 0x8, addend: 0x0, symName: __ZNSt3__117__compressed_pairINS_15__tree_end_nodeIPNS_16__tree_node_baseIPvEEEENS_9allocatorINS_11__tree_nodeINS_12__value_typeINS_12basic_stringIcNS_11char_traitsIcEENS7_IcEEEENS_4listINS_4pairISE_fEENS7_ISH_EEEEEES3_EEEEE5firstB7v160006Ev, symObjAddr: 0xF0F0, symBinAddr: 0x100012F70, symSize: 0x20 }
  - { offsetInCU: 0x2F080, offset: 0x2F080, size: 0x8, addend: 0x0, symName: __ZN10GraphFloatD2Ev, symObjAddr: 0xF110, symBinAddr: 0x100012F90, symSize: 0x20 }
  - { offsetInCU: 0x2F0AC, offset: 0x2F0AC, size: 0x8, addend: 0x0, symName: __ZNSt3__13mapINS_12basic_stringIcNS_11char_traitsIcEENS_9allocatorIcEEEENS_4listINS_4pairIS6_fEENS4_IS9_EEEENS_4lessIS6_EENS4_INS8_IKS6_SB_EEEEED1B7v160006Ev, symObjAddr: 0xF130, symBinAddr: 0x100012FB0, symSize: 0x20 }
  - { offsetInCU: 0x2F0D6, offset: 0x2F0D6, size: 0x8, addend: 0x0, symName: __ZNSt3__13mapINS_12basic_stringIcNS_11char_traitsIcEENS_9allocatorIcEEEENS_4listINS_4pairIS6_fEENS4_IS9_EEEENS_4lessIS6_EENS4_INS8_IKS6_SB_EEEEED2B7v160006Ev, symObjAddr: 0xF150, symBinAddr: 0x100012FD0, symSize: 0x20 }
  - { offsetInCU: 0x2F100, offset: 0x2F100, size: 0x8, addend: 0x0, symName: __ZNSt3__16__treeINS_12__value_typeINS_12basic_stringIcNS_11char_traitsIcEENS_9allocatorIcEEEENS_4listINS_4pairIS7_fEENS5_ISA_EEEEEENS_19__map_value_compareIS7_SD_NS_4lessIS7_EELb1EEENS5_ISD_EEED1Ev, symObjAddr: 0xF170, symBinAddr: 0x100012FF0, symSize: 0x20 }
  - { offsetInCU: 0x2F12C, offset: 0x2F12C, size: 0x8, addend: 0x0, symName: __ZNSt3__16__treeINS_12__value_typeINS_12basic_stringIcNS_11char_traitsIcEENS_9allocatorIcEEEENS_4listINS_4pairIS7_fEENS5_ISA_EEEEEENS_19__map_value_compareIS7_SD_NS_4lessIS7_EELb1EEENS5_ISD_EEED2Ev, symObjAddr: 0xF190, symBinAddr: 0x100013010, symSize: 0x30 }
  - { offsetInCU: 0x2F158, offset: 0x2F158, size: 0x8, addend: 0x0, symName: __ZNSt3__16__treeINS_12__value_typeINS_12basic_stringIcNS_11char_traitsIcEENS_9allocatorIcEEEENS_4listINS_4pairIS7_fEENS5_ISA_EEEEEENS_19__map_value_compareIS7_SD_NS_4lessIS7_EELb1EEENS5_ISD_EEE7destroyEPNS_11__tree_nodeISD_PvEE, symObjAddr: 0xF1C0, symBinAddr: 0x100013040, symSize: 0xB0 }
  - { offsetInCU: 0x2F1A4, offset: 0x2F1A4, size: 0x8, addend: 0x0, symName: __ZNKSt3__16__treeINS_12__value_typeINS_12basic_stringIcNS_11char_traitsIcEENS_9allocatorIcEEEENS_4listINS_4pairIS7_fEENS5_ISA_EEEEEENS_19__map_value_compareIS7_SD_NS_4lessIS7_EELb1EEENS5_ISD_EEE6__rootB7v160006Ev, symObjAddr: 0xF270, symBinAddr: 0x1000130F0, symSize: 0x20 }
  - { offsetInCU: 0x2F1CA, offset: 0x2F1CA, size: 0x8, addend: 0x0, symName: __ZNSt3__16__treeINS_12__value_typeINS_12basic_stringIcNS_11char_traitsIcEENS_9allocatorIcEEEENS_4listINS_4pairIS7_fEENS5_ISA_EEEEEENS_19__map_value_compareIS7_SD_NS_4lessIS7_EELb1EEENS5_ISD_EEE12__node_allocB7v160006Ev, symObjAddr: 0xF290, symBinAddr: 0x100013110, symSize: 0x20 }
  - { offsetInCU: 0x2F1F0, offset: 0x2F1F0, size: 0x8, addend: 0x0, symName: __ZNSt3__116allocator_traitsINS_9allocatorINS_11__tree_nodeINS_12__value_typeINS_12basic_stringIcNS_11char_traitsIcEENS1_IcEEEENS_4listINS_4pairIS8_fEENS1_ISB_EEEEEEPvEEEEE7destroyB7v160006INSA_IKS8_SD_EEvvEEvRSH_PT_, symObjAddr: 0xF2B0, symBinAddr: 0x100013130, symSize: 0x20 }
  - { offsetInCU: 0x2F22B, offset: 0x2F22B, size: 0x8, addend: 0x0, symName: __ZNSt3__122__tree_key_value_typesINS_12__value_typeINS_12basic_stringIcNS_11char_traitsIcEENS_9allocatorIcEEEENS_4listINS_4pairIS7_fEENS5_ISA_EEEEEEE9__get_ptrB7v160006ERSD_, symObjAddr: 0xF2D0, symBinAddr: 0x100013150, symSize: 0x20 }
  - { offsetInCU: 0x2F24F, offset: 0x2F24F, size: 0x8, addend: 0x0, symName: __ZNSt3__116allocator_traitsINS_9allocatorINS_11__tree_nodeINS_12__value_typeINS_12basic_stringIcNS_11char_traitsIcEENS1_IcEEEENS_4listINS_4pairIS8_fEENS1_ISB_EEEEEEPvEEEEE10deallocateB7v160006ERSH_PSG_m, symObjAddr: 0xF2F0, symBinAddr: 0x100013170, symSize: 0x30 }
  - { offsetInCU: 0x2F291, offset: 0x2F291, size: 0x8, addend: 0x0, symName: __ZNSt3__117__compressed_pairINS_15__tree_end_nodeIPNS_16__tree_node_baseIPvEEEENS_9allocatorINS_11__tree_nodeINS_12__value_typeINS_12basic_stringIcNS_11char_traitsIcEENS7_IcEEEENS_4listINS_4pairISE_fEENS7_ISH_EEEEEES3_EEEEE6secondB7v160006Ev, symObjAddr: 0xF320, symBinAddr: 0x1000131A0, symSize: 0x20 }
  - { offsetInCU: 0x2F2B7, offset: 0x2F2B7, size: 0x8, addend: 0x0, symName: __ZNSt3__122__compressed_pair_elemINS_9allocatorINS_11__tree_nodeINS_12__value_typeINS_12basic_stringIcNS_11char_traitsIcEENS1_IcEEEENS_4listINS_4pairIS8_fEENS1_ISB_EEEEEEPvEEEELi1ELb1EE5__getB7v160006Ev, symObjAddr: 0xF340, symBinAddr: 0x1000131C0, symSize: 0x10 }
  - { offsetInCU: 0x2F2DD, offset: 0x2F2DD, size: 0x8, addend: 0x0, symName: __ZNSt3__112__value_typeINS_12basic_stringIcNS_11char_traitsIcEENS_9allocatorIcEEEENS_4listINS_4pairIS6_fEENS4_IS9_EEEEE11__get_valueB7v160006Ev, symObjAddr: 0xF350, symBinAddr: 0x1000131D0, symSize: 0x10 }
  - { offsetInCU: 0x2F303, offset: 0x2F303, size: 0x8, addend: 0x0, symName: __ZNSt3__19allocatorINS_11__tree_nodeINS_12__value_typeINS_12basic_stringIcNS_11char_traitsIcEENS0_IcEEEENS_4listINS_4pairIS7_fEENS0_ISA_EEEEEEPvEEE10deallocateB7v160006EPSF_m, symObjAddr: 0xF360, symBinAddr: 0x1000131E0, symSize: 0x50 }
  - { offsetInCU: 0x2F345, offset: 0x2F345, size: 0x8, addend: 0x0, symName: __ZNKSt3__16__treeINS_12__value_typeINS_12basic_stringIcNS_11char_traitsIcEENS_9allocatorIcEEEENS_4listINS_4pairIS7_fEENS5_ISA_EEEEEENS_19__map_value_compareIS7_SD_NS_4lessIS7_EELb1EEENS5_ISD_EEE10__end_nodeB7v160006Ev, symObjAddr: 0xF3B0, symBinAddr: 0x100013230, symSize: 0x30 }
  - { offsetInCU: 0x2F36B, offset: 0x2F36B, size: 0x8, addend: 0x0, symName: __ZNKSt3__117__compressed_pairINS_15__tree_end_nodeIPNS_16__tree_node_baseIPvEEEENS_9allocatorINS_11__tree_nodeINS_12__value_typeINS_12basic_stringIcNS_11char_traitsIcEENS7_IcEEEENS_4listINS_4pairISE_fEENS7_ISH_EEEEEES3_EEEEE5firstB7v160006Ev, symObjAddr: 0xF3E0, symBinAddr: 0x100013260, symSize: 0x20 }
  - { offsetInCU: 0x2F391, offset: 0x2F391, size: 0x8, addend: 0x0, symName: __ZN4PlanC2Ev, symObjAddr: 0xF400, symBinAddr: 0x100013280, symSize: 0x30 }
  - { offsetInCU: 0x2F3BD, offset: 0x2F3BD, size: 0x8, addend: 0x0, symName: __ZNSt3__14listINS_12basic_stringIcNS_11char_traitsIcEENS_9allocatorIcEEEENS4_IS6_EEEC1B7v160006Ev, symObjAddr: 0xF430, symBinAddr: 0x1000132B0, symSize: 0x20 }
  - { offsetInCU: 0x2F3E7, offset: 0x2F3E7, size: 0x8, addend: 0x0, symName: __ZNSt3__14listINS_12basic_stringIcNS_11char_traitsIcEENS_9allocatorIcEEEENS4_IS6_EEEC2B7v160006Ev, symObjAddr: 0xF450, symBinAddr: 0x1000132D0, symSize: 0x40 }
  - { offsetInCU: 0x2F411, offset: 0x2F411, size: 0x8, addend: 0x0, symName: __ZNSt3__110__list_impINS_12basic_stringIcNS_11char_traitsIcEENS_9allocatorIcEEEENS4_IS6_EEEC2Ev, symObjAddr: 0xF490, symBinAddr: 0x100013310, symSize: 0x50 }
  - { offsetInCU: 0x2F43D, offset: 0x2F43D, size: 0x8, addend: 0x0, symName: __ZNSt3__116__list_node_baseINS_12basic_stringIcNS_11char_traitsIcEENS_9allocatorIcEEEEPvEC1B7v160006Ev, symObjAddr: 0xF4F0, symBinAddr: 0x100013370, symSize: 0x20 }
  - { offsetInCU: 0x2F467, offset: 0x2F467, size: 0x8, addend: 0x0, symName: __ZNSt3__117__compressed_pairImNS_9allocatorINS_11__list_nodeINS_12basic_stringIcNS_11char_traitsIcEENS1_IcEEEEPvEEEEEC1B7v160006IiNS_18__default_init_tagEEEOT_OT0_, symObjAddr: 0xF510, symBinAddr: 0x100013390, symSize: 0x30 }
  - { offsetInCU: 0x2F4BF, offset: 0x2F4BF, size: 0x8, addend: 0x0, symName: __ZNSt3__116__list_node_baseINS_12basic_stringIcNS_11char_traitsIcEENS_9allocatorIcEEEEPvEC2B7v160006Ev, symObjAddr: 0xF540, symBinAddr: 0x1000133C0, symSize: 0x50 }
  - { offsetInCU: 0x2F4E9, offset: 0x2F4E9, size: 0x8, addend: 0x0, symName: __ZNSt3__126__list_node_pointer_traitsINS_12basic_stringIcNS_11char_traitsIcEENS_9allocatorIcEEEEPvE26__unsafe_link_pointer_castB7v160006EPNS_16__list_node_baseIS6_S7_EE, symObjAddr: 0xF590, symBinAddr: 0x100013410, symSize: 0x10 }
  - { offsetInCU: 0x2F50D, offset: 0x2F50D, size: 0x8, addend: 0x0, symName: __ZNSt3__116__list_node_baseINS_12basic_stringIcNS_11char_traitsIcEENS_9allocatorIcEEEEPvE6__selfB7v160006Ev, symObjAddr: 0xF5A0, symBinAddr: 0x100013420, symSize: 0x20 }
  - { offsetInCU: 0x2F538, offset: 0x2F538, size: 0x8, addend: 0x0, symName: __ZNSt3__114pointer_traitsIPNS_16__list_node_baseINS_12basic_stringIcNS_11char_traitsIcEENS_9allocatorIcEEEEPvEEE10pointer_toB7v160006ERS9_, symObjAddr: 0xF5C0, symBinAddr: 0x100013440, symSize: 0x10 }
  - { offsetInCU: 0x2F55B, offset: 0x2F55B, size: 0x8, addend: 0x0, symName: __ZNSt3__117__compressed_pairImNS_9allocatorINS_11__list_nodeINS_12basic_stringIcNS_11char_traitsIcEENS1_IcEEEEPvEEEEEC2B7v160006IiNS_18__default_init_tagEEEOT_OT0_, symObjAddr: 0xF5D0, symBinAddr: 0x100013450, symSize: 0x40 }
  - { offsetInCU: 0x2F5B3, offset: 0x2F5B3, size: 0x8, addend: 0x0, symName: __ZNSt3__122__compressed_pair_elemINS_9allocatorINS_11__list_nodeINS_12basic_stringIcNS_11char_traitsIcEENS1_IcEEEEPvEEEELi1ELb1EEC2B7v160006ENS_18__default_init_tagE, symObjAddr: 0xF610, symBinAddr: 0x100013490, symSize: 0x20 }
  - { offsetInCU: 0x2F5E8, offset: 0x2F5E8, size: 0x8, addend: 0x0, symName: __ZNSt3__19allocatorINS_11__list_nodeINS_12basic_stringIcNS_11char_traitsIcEENS0_IcEEEEPvEEEC2B7v160006Ev, symObjAddr: 0xF630, symBinAddr: 0x1000134B0, symSize: 0x20 }
  - { offsetInCU: 0x2F612, offset: 0x2F612, size: 0x8, addend: 0x0, symName: __ZNSt3__116__non_trivial_ifILb1ENS_9allocatorINS_11__list_nodeINS_12basic_stringIcNS_11char_traitsIcEENS1_IcEEEEPvEEEEEC2B7v160006Ev, symObjAddr: 0xF650, symBinAddr: 0x1000134D0, symSize: 0x10 }
  - { offsetInCU: 0x2F63C, offset: 0x2F63C, size: 0x8, addend: 0x0, symName: __ZN4PlanD2Ev, symObjAddr: 0xF660, symBinAddr: 0x1000134E0, symSize: 0x30 }
  - { offsetInCU: 0x2F668, offset: 0x2F668, size: 0x8, addend: 0x0, symName: __ZNSt3__14listINS_12basic_stringIcNS_11char_traitsIcEENS_9allocatorIcEEEENS4_IS6_EEED1Ev, symObjAddr: 0xF690, symBinAddr: 0x100013510, symSize: 0x20 }
  - { offsetInCU: 0x2F695, offset: 0x2F695, size: 0x8, addend: 0x0, symName: __ZNSt3__14listINS_12basic_stringIcNS_11char_traitsIcEENS_9allocatorIcEEEENS4_IS6_EEED2Ev, symObjAddr: 0xF6B0, symBinAddr: 0x100013530, symSize: 0x20 }
  - { offsetInCU: 0x2F6C2, offset: 0x2F6C2, size: 0x8, addend: 0x0, symName: __ZNSt3__110__list_impINS_12basic_stringIcNS_11char_traitsIcEENS_9allocatorIcEEEENS4_IS6_EEED2Ev, symObjAddr: 0xF6D0, symBinAddr: 0x100013550, symSize: 0x40 }
  - { offsetInCU: 0x2F6EE, offset: 0x2F6EE, size: 0x8, addend: 0x0, symName: __ZNSt3__110__list_impINS_12basic_stringIcNS_11char_traitsIcEENS_9allocatorIcEEEENS4_IS6_EEE5clearEv, symObjAddr: 0xF710, symBinAddr: 0x100013590, symSize: 0xF0 }
  - { offsetInCU: 0x2F75E, offset: 0x2F75E, size: 0x8, addend: 0x0, symName: __ZNKSt3__110__list_impINS_12basic_stringIcNS_11char_traitsIcEENS_9allocatorIcEEEENS4_IS6_EEE5emptyB7v160006Ev, symObjAddr: 0xF810, symBinAddr: 0x100013690, symSize: 0x30 }
  - { offsetInCU: 0x2F784, offset: 0x2F784, size: 0x8, addend: 0x0, symName: __ZNSt3__110__list_impINS_12basic_stringIcNS_11char_traitsIcEENS_9allocatorIcEEEENS4_IS6_EEE12__node_allocB7v160006Ev, symObjAddr: 0xF840, symBinAddr: 0x1000136C0, symSize: 0x20 }
  - { offsetInCU: 0x2F7AA, offset: 0x2F7AA, size: 0x8, addend: 0x0, symName: __ZNKSt3__110__list_impINS_12basic_stringIcNS_11char_traitsIcEENS_9allocatorIcEEEENS4_IS6_EEE13__end_as_linkB7v160006Ev, symObjAddr: 0xF860, symBinAddr: 0x1000136E0, symSize: 0x30 }
  - { offsetInCU: 0x2F7D0, offset: 0x2F7D0, size: 0x8, addend: 0x0, symName: __ZNSt3__110__list_impINS_12basic_stringIcNS_11char_traitsIcEENS_9allocatorIcEEEENS4_IS6_EEE14__unlink_nodesEPNS_16__list_node_baseIS6_PvEESC_, symObjAddr: 0xF890, symBinAddr: 0x100013710, symSize: 0x40 }
  - { offsetInCU: 0x2F805, offset: 0x2F805, size: 0x8, addend: 0x0, symName: __ZNSt3__110__list_impINS_12basic_stringIcNS_11char_traitsIcEENS_9allocatorIcEEEENS4_IS6_EEE4__szB7v160006Ev, symObjAddr: 0xF8D0, symBinAddr: 0x100013750, symSize: 0x20 }
  - { offsetInCU: 0x2F82B, offset: 0x2F82B, size: 0x8, addend: 0x0, symName: __ZNSt3__116__list_node_baseINS_12basic_stringIcNS_11char_traitsIcEENS_9allocatorIcEEEEPvE9__as_nodeB7v160006Ev, symObjAddr: 0xF8F0, symBinAddr: 0x100013770, symSize: 0x20 }
  - { offsetInCU: 0x2F851, offset: 0x2F851, size: 0x8, addend: 0x0, symName: __ZNSt3__116allocator_traitsINS_9allocatorINS_11__list_nodeINS_12basic_stringIcNS_11char_traitsIcEENS1_IcEEEEPvEEEEE7destroyB7v160006IS7_vvEEvRSA_PT_, symObjAddr: 0xF910, symBinAddr: 0x100013790, symSize: 0x20 }
  - { offsetInCU: 0x2F88C, offset: 0x2F88C, size: 0x8, addend: 0x0, symName: __ZNSt3__116allocator_traitsINS_9allocatorINS_11__list_nodeINS_12basic_stringIcNS_11char_traitsIcEENS1_IcEEEEPvEEEEE10deallocateB7v160006ERSA_PS9_m, symObjAddr: 0xF930, symBinAddr: 0x1000137B0, symSize: 0x30 }
  - { offsetInCU: 0x2F8CE, offset: 0x2F8CE, size: 0x8, addend: 0x0, symName: __ZNKSt3__110__list_impINS_12basic_stringIcNS_11char_traitsIcEENS_9allocatorIcEEEENS4_IS6_EEE4__szB7v160006Ev, symObjAddr: 0xF970, symBinAddr: 0x1000137F0, symSize: 0x20 }
  - { offsetInCU: 0x2F8F4, offset: 0x2F8F4, size: 0x8, addend: 0x0, symName: __ZNKSt3__117__compressed_pairImNS_9allocatorINS_11__list_nodeINS_12basic_stringIcNS_11char_traitsIcEENS1_IcEEEEPvEEEEE5firstB7v160006Ev, symObjAddr: 0xF990, symBinAddr: 0x100013810, symSize: 0x20 }
  - { offsetInCU: 0x2F91A, offset: 0x2F91A, size: 0x8, addend: 0x0, symName: __ZNSt3__117__compressed_pairImNS_9allocatorINS_11__list_nodeINS_12basic_stringIcNS_11char_traitsIcEENS1_IcEEEEPvEEEEE6secondB7v160006Ev, symObjAddr: 0xF9B0, symBinAddr: 0x100013830, symSize: 0x20 }
  - { offsetInCU: 0x2F940, offset: 0x2F940, size: 0x8, addend: 0x0, symName: __ZNSt3__122__compressed_pair_elemINS_9allocatorINS_11__list_nodeINS_12basic_stringIcNS_11char_traitsIcEENS1_IcEEEEPvEEEELi1ELb1EE5__getB7v160006Ev, symObjAddr: 0xF9D0, symBinAddr: 0x100013850, symSize: 0x10 }
  - { offsetInCU: 0x2F966, offset: 0x2F966, size: 0x8, addend: 0x0, symName: __ZNSt3__117__compressed_pairImNS_9allocatorINS_11__list_nodeINS_12basic_stringIcNS_11char_traitsIcEENS1_IcEEEEPvEEEEE5firstB7v160006Ev, symObjAddr: 0xF9E0, symBinAddr: 0x100013860, symSize: 0x20 }
  - { offsetInCU: 0x2F98C, offset: 0x2F98C, size: 0x8, addend: 0x0, symName: __ZNSt3__19allocatorINS_11__list_nodeINS_12basic_stringIcNS_11char_traitsIcEENS0_IcEEEEPvEEE10deallocateB7v160006EPS8_m, symObjAddr: 0xFA00, symBinAddr: 0x100013880, symSize: 0x50 }
  - { offsetInCU: 0x2F9CE, offset: 0x2F9CE, size: 0x8, addend: 0x0, symName: __ZN4PlanC2ERKS_, symObjAddr: 0xFA50, symBinAddr: 0x1000138D0, symSize: 0x70 }
  - { offsetInCU: 0x2FA03, offset: 0x2FA03, size: 0x8, addend: 0x0, symName: __ZNSt3__14listINS_12basic_stringIcNS_11char_traitsIcEENS_9allocatorIcEEEENS4_IS6_EEEC1ERKS8_, symObjAddr: 0xFAC0, symBinAddr: 0x100013940, symSize: 0x30 }
  - { offsetInCU: 0x2FA3E, offset: 0x2FA3E, size: 0x8, addend: 0x0, symName: __ZNSt3__14listINS_12basic_stringIcNS_11char_traitsIcEENS_9allocatorIcEEEENS4_IS6_EEEC2ERKS8_, symObjAddr: 0xFAF0, symBinAddr: 0x100013970, symSize: 0xF0 }
  - { offsetInCU: 0x2FAAF, offset: 0x2FAAF, size: 0x8, addend: 0x0, symName: __ZNSt3__116allocator_traitsINS_9allocatorINS_11__list_nodeINS_12basic_stringIcNS_11char_traitsIcEENS1_IcEEEEPvEEEEE37select_on_container_copy_constructionB7v160006ISA_vvEESA_RKSA_, symObjAddr: 0xFBE0, symBinAddr: 0x100013A60, symSize: 0x10 }
  - { offsetInCU: 0x2FADE, offset: 0x2FADE, size: 0x8, addend: 0x0, symName: __ZNKSt3__110__list_impINS_12basic_stringIcNS_11char_traitsIcEENS_9allocatorIcEEEENS4_IS6_EEE12__node_allocB7v160006Ev, symObjAddr: 0xFBF0, symBinAddr: 0x100013A70, symSize: 0x20 }
  - { offsetInCU: 0x2FB04, offset: 0x2FB04, size: 0x8, addend: 0x0, symName: __ZNSt3__110__list_impINS_12basic_stringIcNS_11char_traitsIcEENS_9allocatorIcEEEENS4_IS6_EEEC2EONS4_INS_11__list_nodeIS6_PvEEEE, symObjAddr: 0xFC10, symBinAddr: 0x100013A90, symSize: 0x60 }
  - { offsetInCU: 0x2FB3F, offset: 0x2FB3F, size: 0x8, addend: 0x0, symName: __ZNKSt3__14listINS_12basic_stringIcNS_11char_traitsIcEENS_9allocatorIcEEEENS4_IS6_EEE5beginB7v160006Ev, symObjAddr: 0xFC70, symBinAddr: 0x100013AF0, symSize: 0x30 }
  - { offsetInCU: 0x2FB65, offset: 0x2FB65, size: 0x8, addend: 0x0, symName: __ZNKSt3__14listINS_12basic_stringIcNS_11char_traitsIcEENS_9allocatorIcEEEENS4_IS6_EEE3endB7v160006Ev, symObjAddr: 0xFCA0, symBinAddr: 0x100013B20, symSize: 0x30 }
  - { offsetInCU: 0x2FB8B, offset: 0x2FB8B, size: 0x8, addend: 0x0, symName: __ZNSt3__14listINS_12basic_stringIcNS_11char_traitsIcEENS_9allocatorIcEEEENS4_IS6_EEE9push_backERKS6_, symObjAddr: 0xFD00, symBinAddr: 0x100013B80, symSize: 0x100 }
  - { offsetInCU: 0x2FBE0, offset: 0x2FBE0, size: 0x8, addend: 0x0, symName: __ZNKSt3__121__list_const_iteratorINS_12basic_stringIcNS_11char_traitsIcEENS_9allocatorIcEEEEPvEdeB7v160006Ev, symObjAddr: 0xFE00, symBinAddr: 0x100013C80, symSize: 0x30 }
  - { offsetInCU: 0x2FC06, offset: 0x2FC06, size: 0x8, addend: 0x0, symName: __ZNSt3__121__list_const_iteratorINS_12basic_stringIcNS_11char_traitsIcEENS_9allocatorIcEEEEPvEppB7v160006Ev, symObjAddr: 0xFE30, symBinAddr: 0x100013CB0, symSize: 0x20 }
  - { offsetInCU: 0x2FC2C, offset: 0x2FC2C, size: 0x8, addend: 0x0, symName: __ZNKSt3__117__compressed_pairImNS_9allocatorINS_11__list_nodeINS_12basic_stringIcNS_11char_traitsIcEENS1_IcEEEEPvEEEEE6secondB7v160006Ev, symObjAddr: 0xFE50, symBinAddr: 0x100013CD0, symSize: 0x20 }
  - { offsetInCU: 0x2FC52, offset: 0x2FC52, size: 0x8, addend: 0x0, symName: __ZNKSt3__122__compressed_pair_elemINS_9allocatorINS_11__list_nodeINS_12basic_stringIcNS_11char_traitsIcEENS1_IcEEEEPvEEEELi1ELb1EE5__getB7v160006Ev, symObjAddr: 0xFE70, symBinAddr: 0x100013CF0, symSize: 0x10 }
  - { offsetInCU: 0x2FC7D, offset: 0x2FC7D, size: 0x8, addend: 0x0, symName: __ZNSt3__117__compressed_pairImNS_9allocatorINS_11__list_nodeINS_12basic_stringIcNS_11char_traitsIcEENS1_IcEEEEPvEEEEEC1B7v160006IiSA_EEOT_OT0_, symObjAddr: 0xFE80, symBinAddr: 0x100013D00, symSize: 0x30 }
  - { offsetInCU: 0x2FCD5, offset: 0x2FCD5, size: 0x8, addend: 0x0, symName: __ZNSt3__117__compressed_pairImNS_9allocatorINS_11__list_nodeINS_12basic_stringIcNS_11char_traitsIcEENS1_IcEEEEPvEEEEEC2B7v160006IiSA_EEOT_OT0_, symObjAddr: 0xFEB0, symBinAddr: 0x100013D30, symSize: 0x40 }
  - { offsetInCU: 0x2FD2D, offset: 0x2FD2D, size: 0x8, addend: 0x0, symName: __ZNSt3__122__compressed_pair_elemINS_9allocatorINS_11__list_nodeINS_12basic_stringIcNS_11char_traitsIcEENS1_IcEEEEPvEEEELi1ELb1EEC2B7v160006ISA_vEEOT_, symObjAddr: 0xFEF0, symBinAddr: 0x100013D70, symSize: 0x10 }
  - { offsetInCU: 0x2FD6F, offset: 0x2FD6F, size: 0x8, addend: 0x0, symName: __ZNKSt3__110__list_impINS_12basic_stringIcNS_11char_traitsIcEENS_9allocatorIcEEEENS4_IS6_EEE5beginB7v160006Ev, symObjAddr: 0xFF00, symBinAddr: 0x100013D80, symSize: 0x30 }
  - { offsetInCU: 0x2FD95, offset: 0x2FD95, size: 0x8, addend: 0x0, symName: __ZNSt3__121__list_const_iteratorINS_12basic_stringIcNS_11char_traitsIcEENS_9allocatorIcEEEEPvEC1B7v160006EPNS_16__list_node_baseIS6_S7_EEPKv, symObjAddr: 0xFF30, symBinAddr: 0x100013DB0, symSize: 0x30 }
  - { offsetInCU: 0x2FDDD, offset: 0x2FDDD, size: 0x8, addend: 0x0, symName: __ZNSt3__121__list_const_iteratorINS_12basic_stringIcNS_11char_traitsIcEENS_9allocatorIcEEEEPvEC2B7v160006EPNS_16__list_node_baseIS6_S7_EEPKv, symObjAddr: 0xFF60, symBinAddr: 0x100013DE0, symSize: 0x20 }
  - { offsetInCU: 0x2FE25, offset: 0x2FE25, size: 0x8, addend: 0x0, symName: __ZNKSt3__110__list_impINS_12basic_stringIcNS_11char_traitsIcEENS_9allocatorIcEEEENS4_IS6_EEE3endB7v160006Ev, symObjAddr: 0xFF80, symBinAddr: 0x100013E00, symSize: 0x40 }
  - { offsetInCU: 0x2FE4B, offset: 0x2FE4B, size: 0x8, addend: 0x0, symName: __ZNSt3__14listINS_12basic_stringIcNS_11char_traitsIcEENS_9allocatorIcEEEENS4_IS6_EEE15__allocate_nodeB7v160006ERNS4_INS_11__list_nodeIS6_PvEEEE, symObjAddr: 0xFFF0, symBinAddr: 0x100013E70, symSize: 0x80 }
  - { offsetInCU: 0x2FE8F, offset: 0x2FE8F, size: 0x8, addend: 0x0, symName: __ZNSt3__116allocator_traitsINS_9allocatorINS_11__list_nodeINS_12basic_stringIcNS_11char_traitsIcEENS1_IcEEEEPvEEEEE9constructB7v160006IS7_JRKS7_EvEEvRSA_PT_DpOT0_, symObjAddr: 0x10070, symBinAddr: 0x100013EF0, symSize: 0x30 }
  - { offsetInCU: 0x2FEE6, offset: 0x2FEE6, size: 0x8, addend: 0x0, symName: __ZNKSt3__110unique_ptrINS_11__list_nodeINS_12basic_stringIcNS_11char_traitsIcEENS_9allocatorIcEEEEPvEENS_22__allocator_destructorINS5_IS9_EEEEEptB7v160006Ev, symObjAddr: 0x100A0, symBinAddr: 0x100013F20, symSize: 0x20 }
  - { offsetInCU: 0x2FF0C, offset: 0x2FF0C, size: 0x8, addend: 0x0, symName: __ZNSt3__14listINS_12basic_stringIcNS_11char_traitsIcEENS_9allocatorIcEEEENS4_IS6_EEE20__link_nodes_at_backEPNS_16__list_node_baseIS6_PvEESC_, symObjAddr: 0x100C0, symBinAddr: 0x100013F40, symSize: 0x60 }
  - { offsetInCU: 0x2FF52, offset: 0x2FF52, size: 0x8, addend: 0x0, symName: __ZNKSt3__110unique_ptrINS_11__list_nodeINS_12basic_stringIcNS_11char_traitsIcEENS_9allocatorIcEEEEPvEENS_22__allocator_destructorINS5_IS9_EEEEE3getB7v160006Ev, symObjAddr: 0x10120, symBinAddr: 0x100013FA0, symSize: 0x20 }
  - { offsetInCU: 0x2FF78, offset: 0x2FF78, size: 0x8, addend: 0x0, symName: __ZNSt3__111__list_nodeINS_12basic_stringIcNS_11char_traitsIcEENS_9allocatorIcEEEEPvE9__as_linkB7v160006Ev, symObjAddr: 0x10140, symBinAddr: 0x100013FC0, symSize: 0x20 }
  - { offsetInCU: 0x2FF9E, offset: 0x2FF9E, size: 0x8, addend: 0x0, symName: __ZNSt3__110unique_ptrINS_11__list_nodeINS_12basic_stringIcNS_11char_traitsIcEENS_9allocatorIcEEEEPvEENS_22__allocator_destructorINS5_IS9_EEEEE7releaseB7v160006Ev, symObjAddr: 0x10160, symBinAddr: 0x100013FE0, symSize: 0x40 }
  - { offsetInCU: 0x2FFD3, offset: 0x2FFD3, size: 0x8, addend: 0x0, symName: __ZNSt3__110unique_ptrINS_11__list_nodeINS_12basic_stringIcNS_11char_traitsIcEENS_9allocatorIcEEEEPvEENS_22__allocator_destructorINS5_IS9_EEEEED1B7v160006Ev, symObjAddr: 0x101A0, symBinAddr: 0x100014020, symSize: 0x20 }
  - { offsetInCU: 0x2FFFD, offset: 0x2FFFD, size: 0x8, addend: 0x0, symName: __ZNSt3__116allocator_traitsINS_9allocatorINS_11__list_nodeINS_12basic_stringIcNS_11char_traitsIcEENS1_IcEEEEPvEEEEE8allocateB7v160006ERSA_m, symObjAddr: 0x101C0, symBinAddr: 0x100014040, symSize: 0x30 }
  - { offsetInCU: 0x30030, offset: 0x30030, size: 0x8, addend: 0x0, symName: __ZNSt3__122__allocator_destructorINS_9allocatorINS_11__list_nodeINS_12basic_stringIcNS_11char_traitsIcEENS1_IcEEEEPvEEEEEC1B7v160006ERSA_m, symObjAddr: 0x101F0, symBinAddr: 0x100014070, symSize: 0x30 }
  - { offsetInCU: 0x3007B, offset: 0x3007B, size: 0x8, addend: 0x0, symName: __ZNSt3__110unique_ptrINS_11__list_nodeINS_12basic_stringIcNS_11char_traitsIcEENS_9allocatorIcEEEEPvEENS_22__allocator_destructorINS5_IS9_EEEEEC1B7v160006ILb1EvEEPS9_NS_16__dependent_typeINS_27__unique_ptr_deleter_sfinaeISC_EEXT_EE20__good_rval_ref_typeE, symObjAddr: 0x10220, symBinAddr: 0x1000140A0, symSize: 0x30 }
  - { offsetInCU: 0x300CC, offset: 0x300CC, size: 0x8, addend: 0x0, symName: __ZNSt3__19allocatorINS_11__list_nodeINS_12basic_stringIcNS_11char_traitsIcEENS0_IcEEEEPvEEE8allocateB7v160006Em, symObjAddr: 0x10250, symBinAddr: 0x1000140D0, symSize: 0x50 }
  - { offsetInCU: 0x30100, offset: 0x30100, size: 0x8, addend: 0x0, symName: __ZNSt3__116allocator_traitsINS_9allocatorINS_11__list_nodeINS_12basic_stringIcNS_11char_traitsIcEENS1_IcEEEEPvEEEEE8max_sizeB7v160006ISA_vEEmRKSA_, symObjAddr: 0x102A0, symBinAddr: 0x100014120, symSize: 0x20 }
  - { offsetInCU: 0x3012E, offset: 0x3012E, size: 0x8, addend: 0x0, symName: __ZNKSt3__19allocatorINS_11__list_nodeINS_12basic_stringIcNS_11char_traitsIcEENS0_IcEEEEPvEEE8max_sizeB7v160006Ev, symObjAddr: 0x102C0, symBinAddr: 0x100014140, symSize: 0x20 }
  - { offsetInCU: 0x30154, offset: 0x30154, size: 0x8, addend: 0x0, symName: __ZNSt3__122__allocator_destructorINS_9allocatorINS_11__list_nodeINS_12basic_stringIcNS_11char_traitsIcEENS1_IcEEEEPvEEEEEC2B7v160006ERSA_m, symObjAddr: 0x102E0, symBinAddr: 0x100014160, symSize: 0x30 }
  - { offsetInCU: 0x3019A, offset: 0x3019A, size: 0x8, addend: 0x0, symName: __ZNSt3__110unique_ptrINS_11__list_nodeINS_12basic_stringIcNS_11char_traitsIcEENS_9allocatorIcEEEEPvEENS_22__allocator_destructorINS5_IS9_EEEEEC2B7v160006ILb1EvEEPS9_NS_16__dependent_typeINS_27__unique_ptr_deleter_sfinaeISC_EEXT_EE20__good_rval_ref_typeE, symObjAddr: 0x10310, symBinAddr: 0x100014190, symSize: 0x40 }
  - { offsetInCU: 0x301EB, offset: 0x301EB, size: 0x8, addend: 0x0, symName: __ZNSt3__117__compressed_pairIPNS_11__list_nodeINS_12basic_stringIcNS_11char_traitsIcEENS_9allocatorIcEEEEPvEENS_22__allocator_destructorINS5_IS9_EEEEEC1B7v160006IRSA_SD_EEOT_OT0_, symObjAddr: 0x10350, symBinAddr: 0x1000141D0, symSize: 0x30 }
  - { offsetInCU: 0x30243, offset: 0x30243, size: 0x8, addend: 0x0, symName: __ZNSt3__117__compressed_pairIPNS_11__list_nodeINS_12basic_stringIcNS_11char_traitsIcEENS_9allocatorIcEEEEPvEENS_22__allocator_destructorINS5_IS9_EEEEEC2B7v160006IRSA_SD_EEOT_OT0_, symObjAddr: 0x10380, symBinAddr: 0x100014200, symSize: 0x40 }
  - { offsetInCU: 0x3029B, offset: 0x3029B, size: 0x8, addend: 0x0, symName: __ZNSt3__122__compressed_pair_elemIPNS_11__list_nodeINS_12basic_stringIcNS_11char_traitsIcEENS_9allocatorIcEEEEPvEELi0ELb0EEC2B7v160006IRSA_vEEOT_, symObjAddr: 0x103C0, symBinAddr: 0x100014240, symSize: 0x20 }
  - { offsetInCU: 0x302DD, offset: 0x302DD, size: 0x8, addend: 0x0, symName: __ZNSt3__122__compressed_pair_elemINS_22__allocator_destructorINS_9allocatorINS_11__list_nodeINS_12basic_stringIcNS_11char_traitsIcEENS2_IcEEEEPvEEEEEELi1ELb0EEC2B7v160006ISC_vEEOT_, symObjAddr: 0x103E0, symBinAddr: 0x100014260, symSize: 0x30 }
  - { offsetInCU: 0x3031F, offset: 0x3031F, size: 0x8, addend: 0x0, symName: __ZNSt3__19allocatorINS_11__list_nodeINS_12basic_stringIcNS_11char_traitsIcEENS0_IcEEEEPvEEE9constructB7v160006IS6_JRKS6_EEEvPT_DpOT0_, symObjAddr: 0x10410, symBinAddr: 0x100014290, symSize: 0x30 }
  - { offsetInCU: 0x30375, offset: 0x30375, size: 0x8, addend: 0x0, symName: __ZNKSt3__117__compressed_pairIPNS_11__list_nodeINS_12basic_stringIcNS_11char_traitsIcEENS_9allocatorIcEEEEPvEENS_22__allocator_destructorINS5_IS9_EEEEE5firstB7v160006Ev, symObjAddr: 0x10440, symBinAddr: 0x1000142C0, symSize: 0x20 }
  - { offsetInCU: 0x3039B, offset: 0x3039B, size: 0x8, addend: 0x0, symName: __ZNKSt3__122__compressed_pair_elemIPNS_11__list_nodeINS_12basic_stringIcNS_11char_traitsIcEENS_9allocatorIcEEEEPvEELi0ELb0EE5__getB7v160006Ev, symObjAddr: 0x10460, symBinAddr: 0x1000142E0, symSize: 0x10 }
  - { offsetInCU: 0x303C1, offset: 0x303C1, size: 0x8, addend: 0x0, symName: __ZNSt3__117__compressed_pairIPNS_11__list_nodeINS_12basic_stringIcNS_11char_traitsIcEENS_9allocatorIcEEEEPvEENS_22__allocator_destructorINS5_IS9_EEEEE5firstB7v160006Ev, symObjAddr: 0x10470, symBinAddr: 0x1000142F0, symSize: 0x20 }
  - { offsetInCU: 0x303E7, offset: 0x303E7, size: 0x8, addend: 0x0, symName: __ZNSt3__122__compressed_pair_elemIPNS_11__list_nodeINS_12basic_stringIcNS_11char_traitsIcEENS_9allocatorIcEEEEPvEELi0ELb0EE5__getB7v160006Ev, symObjAddr: 0x10490, symBinAddr: 0x100014310, symSize: 0x10 }
  - { offsetInCU: 0x3040D, offset: 0x3040D, size: 0x8, addend: 0x0, symName: __ZNSt3__110unique_ptrINS_11__list_nodeINS_12basic_stringIcNS_11char_traitsIcEENS_9allocatorIcEEEEPvEENS_22__allocator_destructorINS5_IS9_EEEEED2B7v160006Ev, symObjAddr: 0x104A0, symBinAddr: 0x100014320, symSize: 0x20 }
  - { offsetInCU: 0x30437, offset: 0x30437, size: 0x8, addend: 0x0, symName: __ZNSt3__110unique_ptrINS_11__list_nodeINS_12basic_stringIcNS_11char_traitsIcEENS_9allocatorIcEEEEPvEENS_22__allocator_destructorINS5_IS9_EEEEE5resetB7v160006EPS9_, symObjAddr: 0x104C0, symBinAddr: 0x100014340, symSize: 0x70 }
  - { offsetInCU: 0x3047B, offset: 0x3047B, size: 0x8, addend: 0x0, symName: __ZNSt3__117__compressed_pairIPNS_11__list_nodeINS_12basic_stringIcNS_11char_traitsIcEENS_9allocatorIcEEEEPvEENS_22__allocator_destructorINS5_IS9_EEEEE6secondB7v160006Ev, symObjAddr: 0x10530, symBinAddr: 0x1000143B0, symSize: 0x20 }
  - { offsetInCU: 0x304A1, offset: 0x304A1, size: 0x8, addend: 0x0, symName: __ZNSt3__122__allocator_destructorINS_9allocatorINS_11__list_nodeINS_12basic_stringIcNS_11char_traitsIcEENS1_IcEEEEPvEEEEEclB7v160006EPS9_, symObjAddr: 0x10550, symBinAddr: 0x1000143D0, symSize: 0x30 }
  - { offsetInCU: 0x304D5, offset: 0x304D5, size: 0x8, addend: 0x0, symName: __ZNSt3__122__compressed_pair_elemINS_22__allocator_destructorINS_9allocatorINS_11__list_nodeINS_12basic_stringIcNS_11char_traitsIcEENS2_IcEEEEPvEEEEEELi1ELb0EE5__getB7v160006Ev, symObjAddr: 0x10580, symBinAddr: 0x100014400, symSize: 0x10 }
  - { offsetInCU: 0x304FB, offset: 0x304FB, size: 0x8, addend: 0x0, symName: __ZNSt3__14pairIKNS_12basic_stringIcNS_11char_traitsIcEENS_9allocatorIcEEEEiEC2ERKS8_, symObjAddr: 0x10590, symBinAddr: 0x100014410, symSize: 0x40 }
  - { offsetInCU: 0x30530, offset: 0x30530, size: 0x8, addend: 0x0, symName: __ZNSt3__14pairIKNS_12basic_stringIcNS_11char_traitsIcEENS_9allocatorIcEEEEiED2Ev, symObjAddr: 0x105D0, symBinAddr: 0x100014450, symSize: 0x20 }
  - { offsetInCU: 0x3055C, offset: 0x3055C, size: 0x8, addend: 0x0, symName: __ZNSt3__112basic_stringIcNS_11char_traitsIcEENS_9allocatorIcEEEC2B7v160006Ev, symObjAddr: 0x105F0, symBinAddr: 0x100014470, symSize: 0x50 }
  - { offsetInCU: 0x30586, offset: 0x30586, size: 0x8, addend: 0x0, symName: __ZNSt3__117__compressed_pairINS_12basic_stringIcNS_11char_traitsIcEENS_9allocatorIcEEE5__repES5_EC1B7v160006INS_18__default_init_tagESA_EEOT_OT0_, symObjAddr: 0x10640, symBinAddr: 0x1000144C0, symSize: 0x30 }
  - { offsetInCU: 0x305DE, offset: 0x305DE, size: 0x8, addend: 0x0, symName: __ZNSt3__117__compressed_pairINS_12basic_stringIcNS_11char_traitsIcEENS_9allocatorIcEEE5__repES5_EC2B7v160006INS_18__default_init_tagESA_EEOT_OT0_, symObjAddr: 0x10670, symBinAddr: 0x1000144F0, symSize: 0x30 }
  - { offsetInCU: 0x30636, offset: 0x30636, size: 0x8, addend: 0x0, symName: __ZNSt3__122__compressed_pair_elemINS_12basic_stringIcNS_11char_traitsIcEENS_9allocatorIcEEE5__repELi0ELb0EEC2B7v160006ENS_18__default_init_tagE, symObjAddr: 0x106A0, symBinAddr: 0x100014520, symSize: 0x10 }
  - { offsetInCU: 0x3066B, offset: 0x3066B, size: 0x8, addend: 0x0, symName: __ZNSt3__122__compressed_pair_elemINS_9allocatorIcEELi1ELb1EEC2B7v160006ENS_18__default_init_tagE, symObjAddr: 0x106B0, symBinAddr: 0x100014530, symSize: 0x20 }
  - { offsetInCU: 0x306A0, offset: 0x306A0, size: 0x8, addend: 0x0, symName: __ZNSt3__19allocatorIcEC2B7v160006Ev, symObjAddr: 0x106D0, symBinAddr: 0x100014550, symSize: 0x20 }
  - { offsetInCU: 0x306CA, offset: 0x306CA, size: 0x8, addend: 0x0, symName: __ZNSt3__116__non_trivial_ifILb1ENS_9allocatorIcEEEC2B7v160006Ev, symObjAddr: 0x106F0, symBinAddr: 0x100014570, symSize: 0x10 }
  - { offsetInCU: 0x306F4, offset: 0x306F4, size: 0x8, addend: 0x0, symName: __ZNKSt3__112basic_stringIcNS_11char_traitsIcEENS_9allocatorIcEEE4dataB7v160006Ev, symObjAddr: 0x10700, symBinAddr: 0x100014580, symSize: 0x30 }
  - { offsetInCU: 0x3071A, offset: 0x3071A, size: 0x8, addend: 0x0, symName: __ZNKSt3__112basic_stringIcNS_11char_traitsIcEENS_9allocatorIcEEE13__get_pointerB7v160006Ev, symObjAddr: 0x10740, symBinAddr: 0x1000145C0, symSize: 0x50 }
  - { offsetInCU: 0x30740, offset: 0x30740, size: 0x8, addend: 0x0, symName: __ZNKSt3__112basic_stringIcNS_11char_traitsIcEENS_9allocatorIcEEE18__get_long_pointerB7v160006Ev, symObjAddr: 0x10790, symBinAddr: 0x100014610, symSize: 0x20 }
  - { offsetInCU: 0x30766, offset: 0x30766, size: 0x8, addend: 0x0, symName: __ZNKSt3__112basic_stringIcNS_11char_traitsIcEENS_9allocatorIcEEE19__get_short_pointerB7v160006Ev, symObjAddr: 0x107B0, symBinAddr: 0x100014630, symSize: 0x30 }
  - { offsetInCU: 0x3078C, offset: 0x3078C, size: 0x8, addend: 0x0, symName: __ZNSt3__114pointer_traitsIPKcE10pointer_toB7v160006ERS1_, symObjAddr: 0x107E0, symBinAddr: 0x100014660, symSize: 0x10 }
  - { offsetInCU: 0x307AF, offset: 0x307AF, size: 0x8, addend: 0x0, symName: __ZNSt3__16__treeINS_12__value_typeINS_12basic_stringIcNS_11char_traitsIcEENS_9allocatorIcEEEENS_4listINS_4pairIS7_iEENS5_ISA_EEEEEENS_19__map_value_compareIS7_SD_NS_4lessIS7_EELb1EEENS5_ISD_EEE25__emplace_unique_key_argsIS7_JRKNS_21piecewise_construct_tENS_5tupleIJRKS7_EEENSO_IJEEEEEENS9_INS_15__tree_iteratorISD_PNS_11__tree_nodeISD_PvEElEEbEERKT_DpOT0_, symObjAddr: 0x107F0, symBinAddr: 0x100014670, symSize: 0x100 }
  - { offsetInCU: 0x3088E, offset: 0x3088E, size: 0x8, addend: 0x0, symName: __ZNKSt3__115__tree_iteratorINS_12__value_typeINS_12basic_stringIcNS_11char_traitsIcEENS_9allocatorIcEEEENS_4listINS_4pairIS7_iEENS5_ISA_EEEEEEPNS_11__tree_nodeISD_PvEElEptB7v160006Ev, symObjAddr: 0x10920, symBinAddr: 0x1000147A0, symSize: 0x30 }
  - { offsetInCU: 0x308B4, offset: 0x308B4, size: 0x8, addend: 0x0, symName: __ZNSt3__16__treeINS_12__value_typeINS_12basic_stringIcNS_11char_traitsIcEENS_9allocatorIcEEEENS_4listINS_4pairIS7_iEENS5_ISA_EEEEEENS_19__map_value_compareIS7_SD_NS_4lessIS7_EELb1EEENS5_ISD_EEE12__find_equalIS7_EERPNS_16__tree_node_baseIPvEERPNS_15__tree_end_nodeISO_EERKT_, symObjAddr: 0x10950, symBinAddr: 0x1000147D0, symSize: 0x180 }
  - { offsetInCU: 0x30921, offset: 0x30921, size: 0x8, addend: 0x0, symName: __ZNSt3__16__treeINS_12__value_typeINS_12basic_stringIcNS_11char_traitsIcEENS_9allocatorIcEEEENS_4listINS_4pairIS7_iEENS5_ISA_EEEEEENS_19__map_value_compareIS7_SD_NS_4lessIS7_EELb1EEENS5_ISD_EEE16__construct_nodeIJRKNS_21piecewise_construct_tENS_5tupleIJRKS7_EEENSO_IJEEEEEENS_10unique_ptrINS_11__tree_nodeISD_PvEENS_22__tree_node_destructorINS5_ISW_EEEEEEDpOT_, symObjAddr: 0x10AD0, symBinAddr: 0x100014950, symSize: 0x120 }
  - { offsetInCU: 0x309AA, offset: 0x309AA, size: 0x8, addend: 0x0, symName: __ZNSt3__16__treeINS_12__value_typeINS_12basic_stringIcNS_11char_traitsIcEENS_9allocatorIcEEEENS_4listINS_4pairIS7_iEENS5_ISA_EEEEEENS_19__map_value_compareIS7_SD_NS_4lessIS7_EELb1EEENS5_ISD_EEE16__insert_node_atEPNS_15__tree_end_nodeIPNS_16__tree_node_baseIPvEEEERSO_SO_, symObjAddr: 0x10BF0, symBinAddr: 0x100014A70, symSize: 0xC0 }
  - { offsetInCU: 0x309FF, offset: 0x309FF, size: 0x8, addend: 0x0, symName: __ZNKSt3__110unique_ptrINS_11__tree_nodeINS_12__value_typeINS_12basic_stringIcNS_11char_traitsIcEENS_9allocatorIcEEEENS_4listINS_4pairIS8_iEENS6_ISB_EEEEEEPvEENS_22__tree_node_destructorINS6_ISG_EEEEE3getB7v160006Ev, symObjAddr: 0x10CB0, symBinAddr: 0x100014B30, symSize: 0x20 }
  - { offsetInCU: 0x30A25, offset: 0x30A25, size: 0x8, addend: 0x0, symName: __ZNSt3__110unique_ptrINS_11__tree_nodeINS_12__value_typeINS_12basic_stringIcNS_11char_traitsIcEENS_9allocatorIcEEEENS_4listINS_4pairIS8_iEENS6_ISB_EEEEEEPvEENS_22__tree_node_destructorINS6_ISG_EEEEE7releaseB7v160006Ev, symObjAddr: 0x10CD0, symBinAddr: 0x100014B50, symSize: 0x40 }
  - { offsetInCU: 0x30A5A, offset: 0x30A5A, size: 0x8, addend: 0x0, symName: __ZNSt3__110unique_ptrINS_11__tree_nodeINS_12__value_typeINS_12basic_stringIcNS_11char_traitsIcEENS_9allocatorIcEEEENS_4listINS_4pairIS8_iEENS6_ISB_EEEEEEPvEENS_22__tree_node_destructorINS6_ISG_EEEEED1B7v160006Ev, symObjAddr: 0x10D10, symBinAddr: 0x100014B90, symSize: 0x20 }
  - { offsetInCU: 0x30A84, offset: 0x30A84, size: 0x8, addend: 0x0, symName: __ZNSt3__115__tree_iteratorINS_12__value_typeINS_12basic_stringIcNS_11char_traitsIcEENS_9allocatorIcEEEENS_4listINS_4pairIS7_iEENS5_ISA_EEEEEEPNS_11__tree_nodeISD_PvEElEC1B7v160006ESH_, symObjAddr: 0x10D30, symBinAddr: 0x100014BB0, symSize: 0x30 }
  - { offsetInCU: 0x30AC2, offset: 0x30AC2, size: 0x8, addend: 0x0, symName: __ZNSt3__14pairINS_15__tree_iteratorINS_12__value_typeINS_12basic_stringIcNS_11char_traitsIcEENS_9allocatorIcEEEENS_4listINS0_IS8_iEENS6_ISA_EEEEEEPNS_11__tree_nodeISD_PvEElEEbEC1B7v160006ISI_RbLSF_0EEEOT_OT0_, symObjAddr: 0x10D60, symBinAddr: 0x100014BE0, symSize: 0x30 }
  - { offsetInCU: 0x30B20, offset: 0x30B20, size: 0x8, addend: 0x0, symName: __ZNKSt3__16__treeINS_12__value_typeINS_12basic_stringIcNS_11char_traitsIcEENS_9allocatorIcEEEENS_4listINS_4pairIS7_iEENS5_ISA_EEEEEENS_19__map_value_compareIS7_SD_NS_4lessIS7_EELb1EEENS5_ISD_EEE10__root_ptrEv, symObjAddr: 0x10D90, symBinAddr: 0x100014C10, symSize: 0x20 }
  - { offsetInCU: 0x30B46, offset: 0x30B46, size: 0x8, addend: 0x0, symName: __ZNSt3__16__treeINS_12__value_typeINS_12basic_stringIcNS_11char_traitsIcEENS_9allocatorIcEEEENS_4listINS_4pairIS7_iEENS5_ISA_EEEEEENS_19__map_value_compareIS7_SD_NS_4lessIS7_EELb1EEENS5_ISD_EEE10value_compB7v160006Ev, symObjAddr: 0x10DB0, symBinAddr: 0x100014C30, symSize: 0x20 }
  - { offsetInCU: 0x30B6C, offset: 0x30B6C, size: 0x8, addend: 0x0, symName: __ZNKSt3__119__map_value_compareINS_12basic_stringIcNS_11char_traitsIcEENS_9allocatorIcEEEENS_12__value_typeIS6_NS_4listINS_4pairIS6_iEENS4_ISA_EEEEEENS_4lessIS6_EELb1EEclB7v160006ERKS6_RKSD_, symObjAddr: 0x10DD0, symBinAddr: 0x100014C50, symSize: 0x50 }
  - { offsetInCU: 0x30BB0, offset: 0x30BB0, size: 0x8, addend: 0x0, symName: __ZNKSt3__119__map_value_compareINS_12basic_stringIcNS_11char_traitsIcEENS_9allocatorIcEEEENS_12__value_typeIS6_NS_4listINS_4pairIS6_iEENS4_ISA_EEEEEENS_4lessIS6_EELb1EEclB7v160006ERKSD_RKS6_, symObjAddr: 0x10E20, symBinAddr: 0x100014CA0, symSize: 0x40 }
  - { offsetInCU: 0x30BF4, offset: 0x30BF4, size: 0x8, addend: 0x0, symName: __ZNSt3__117__compressed_pairImNS_19__map_value_compareINS_12basic_stringIcNS_11char_traitsIcEENS_9allocatorIcEEEENS_12__value_typeIS7_NS_4listINS_4pairIS7_iEENS5_ISB_EEEEEENS_4lessIS7_EELb1EEEE6secondB7v160006Ev, symObjAddr: 0x10E60, symBinAddr: 0x100014CE0, symSize: 0x20 }
  - { offsetInCU: 0x30C1A, offset: 0x30C1A, size: 0x8, addend: 0x0, symName: __ZNSt3__122__compressed_pair_elemINS_19__map_value_compareINS_12basic_stringIcNS_11char_traitsIcEENS_9allocatorIcEEEENS_12__value_typeIS7_NS_4listINS_4pairIS7_iEENS5_ISB_EEEEEENS_4lessIS7_EELb1EEELi1ELb1EE5__getB7v160006Ev, symObjAddr: 0x10E80, symBinAddr: 0x100014D00, symSize: 0x10 }
  - { offsetInCU: 0x30C40, offset: 0x30C40, size: 0x8, addend: 0x0, symName: __ZNKSt3__14lessINS_12basic_stringIcNS_11char_traitsIcEENS_9allocatorIcEEEEEclB7v160006ERKS6_S9_, symObjAddr: 0x10E90, symBinAddr: 0x100014D10, symSize: 0x30 }
  - { offsetInCU: 0x30C84, offset: 0x30C84, size: 0x8, addend: 0x0, symName: __ZNKSt3__112__value_typeINS_12basic_stringIcNS_11char_traitsIcEENS_9allocatorIcEEEENS_4listINS_4pairIS6_iEENS4_IS9_EEEEE11__get_valueB7v160006Ev, symObjAddr: 0x10EC0, symBinAddr: 0x100014D40, symSize: 0x10 }
  - { offsetInCU: 0x30CAA, offset: 0x30CAA, size: 0x8, addend: 0x0, symName: __ZNKSt3__112basic_stringIcNS_11char_traitsIcEENS_9allocatorIcEEE7compareB7v160006ERKS5_, symObjAddr: 0x10F00, symBinAddr: 0x100014D80, symSize: 0x40 }
  - { offsetInCU: 0x30CE1, offset: 0x30CE1, size: 0x8, addend: 0x0, symName: __ZNKSt3__112basic_stringIcNS_11char_traitsIcEENS_9allocatorIcEEE7compareINS_17basic_string_viewIcS2_EEEENS_9enable_ifIXsr33__can_be_converted_to_string_viewIcS2_T_EE5valueEiE4typeERKSA_, symObjAddr: 0x10F40, symBinAddr: 0x100014DC0, symSize: 0xF0 }
  - { offsetInCU: 0x30D5E, offset: 0x30D5E, size: 0x8, addend: 0x0, symName: __ZNKSt3__112basic_stringIcNS_11char_traitsIcEENS_9allocatorIcEEEcvNS_17basic_string_viewIcS2_EEB7v160006Ev, symObjAddr: 0x11030, symBinAddr: 0x100014EB0, symSize: 0x50 }
  - { offsetInCU: 0x30D84, offset: 0x30D84, size: 0x8, addend: 0x0, symName: __ZNKSt3__112basic_stringIcNS_11char_traitsIcEENS_9allocatorIcEEE4sizeB7v160006Ev, symObjAddr: 0x11080, symBinAddr: 0x100014F00, symSize: 0x50 }
  - { offsetInCU: 0x30DAA, offset: 0x30DAA, size: 0x8, addend: 0x0, symName: __ZNKSt3__117basic_string_viewIcNS_11char_traitsIcEEE4sizeB7v160006Ev, symObjAddr: 0x110D0, symBinAddr: 0x100014F50, symSize: 0x20 }
  - { offsetInCU: 0x30DD0, offset: 0x30DD0, size: 0x8, addend: 0x0, symName: __ZNSt3__111char_traitsIcE7compareEPKcS3_m, symObjAddr: 0x110F0, symBinAddr: 0x100014F70, symSize: 0x60 }
  - { offsetInCU: 0x30E0F, offset: 0x30E0F, size: 0x8, addend: 0x0, symName: __ZNKSt3__117basic_string_viewIcNS_11char_traitsIcEEE4dataB7v160006Ev, symObjAddr: 0x11150, symBinAddr: 0x100014FD0, symSize: 0x20 }
  - { offsetInCU: 0x30E35, offset: 0x30E35, size: 0x8, addend: 0x0, symName: __ZNKSt3__112basic_stringIcNS_11char_traitsIcEENS_9allocatorIcEEE15__get_long_sizeB7v160006Ev, symObjAddr: 0x111A0, symBinAddr: 0x100015020, symSize: 0x20 }
  - { offsetInCU: 0x30E5B, offset: 0x30E5B, size: 0x8, addend: 0x0, symName: __ZNKSt3__112basic_stringIcNS_11char_traitsIcEENS_9allocatorIcEEE16__get_short_sizeB7v160006Ev, symObjAddr: 0x111C0, symBinAddr: 0x100015040, symSize: 0x30 }
  - { offsetInCU: 0x30E81, offset: 0x30E81, size: 0x8, addend: 0x0, symName: __ZNSt3__117basic_string_viewIcNS_11char_traitsIcEEEC1B7v160006EPKcm, symObjAddr: 0x11270, symBinAddr: 0x1000150F0, symSize: 0x30 }
  - { offsetInCU: 0x30EC9, offset: 0x30EC9, size: 0x8, addend: 0x0, symName: __ZNSt3__117basic_string_viewIcNS_11char_traitsIcEEEC2B7v160006EPKcm, symObjAddr: 0x112A0, symBinAddr: 0x100015120, symSize: 0x50 }
  - { offsetInCU: 0x30F11, offset: 0x30F11, size: 0x8, addend: 0x0, symName: __ZNSt3__116allocator_traitsINS_9allocatorINS_11__tree_nodeINS_12__value_typeINS_12basic_stringIcNS_11char_traitsIcEENS1_IcEEEENS_4listINS_4pairIS8_iEENS1_ISB_EEEEEEPvEEEEE8allocateB7v160006ERSH_m, symObjAddr: 0x112F0, symBinAddr: 0x100015170, symSize: 0x30 }
  - { offsetInCU: 0x30F44, offset: 0x30F44, size: 0x8, addend: 0x0, symName: __ZNSt3__122__tree_node_destructorINS_9allocatorINS_11__tree_nodeINS_12__value_typeINS_12basic_stringIcNS_11char_traitsIcEENS1_IcEEEENS_4listINS_4pairIS8_iEENS1_ISB_EEEEEEPvEEEEEC1B7v160006ERSH_b, symObjAddr: 0x11320, symBinAddr: 0x1000151A0, symSize: 0x40 }
  - { offsetInCU: 0x30F91, offset: 0x30F91, size: 0x8, addend: 0x0, symName: __ZNSt3__110unique_ptrINS_11__tree_nodeINS_12__value_typeINS_12basic_stringIcNS_11char_traitsIcEENS_9allocatorIcEEEENS_4listINS_4pairIS8_iEENS6_ISB_EEEEEEPvEENS_22__tree_node_destructorINS6_ISG_EEEEEC1B7v160006ILb1EvEEPSG_NS_16__dependent_typeINS_27__unique_ptr_deleter_sfinaeISJ_EEXT_EE20__good_rval_ref_typeE, symObjAddr: 0x11360, symBinAddr: 0x1000151E0, symSize: 0x30 }
  - { offsetInCU: 0x30FE2, offset: 0x30FE2, size: 0x8, addend: 0x0, symName: __ZNSt3__116allocator_traitsINS_9allocatorINS_11__tree_nodeINS_12__value_typeINS_12basic_stringIcNS_11char_traitsIcEENS1_IcEEEENS_4listINS_4pairIS8_iEENS1_ISB_EEEEEEPvEEEEE9constructB7v160006INSA_IKS8_SD_EEJRKNS_21piecewise_construct_tENS_5tupleIJRSK_EEENSP_IJEEEEvEEvRSH_PT_DpOT0_, symObjAddr: 0x11390, symBinAddr: 0x100015210, symSize: 0x40 }
  - { offsetInCU: 0x31061, offset: 0x31061, size: 0x8, addend: 0x0, symName: __ZNKSt3__110unique_ptrINS_11__tree_nodeINS_12__value_typeINS_12basic_stringIcNS_11char_traitsIcEENS_9allocatorIcEEEENS_4listINS_4pairIS8_iEENS6_ISB_EEEEEEPvEENS_22__tree_node_destructorINS6_ISG_EEEEEptB7v160006Ev, symObjAddr: 0x113D0, symBinAddr: 0x100015250, symSize: 0x20 }
  - { offsetInCU: 0x31087, offset: 0x31087, size: 0x8, addend: 0x0, symName: __ZNSt3__110unique_ptrINS_11__tree_nodeINS_12__value_typeINS_12basic_stringIcNS_11char_traitsIcEENS_9allocatorIcEEEENS_4listINS_4pairIS8_iEENS6_ISB_EEEEEEPvEENS_22__tree_node_destructorINS6_ISG_EEEEE11get_deleterB7v160006Ev, symObjAddr: 0x113F0, symBinAddr: 0x100015270, symSize: 0x20 }
  - { offsetInCU: 0x310AD, offset: 0x310AD, size: 0x8, addend: 0x0, symName: __ZNSt3__19allocatorINS_11__tree_nodeINS_12__value_typeINS_12basic_stringIcNS_11char_traitsIcEENS0_IcEEEENS_4listINS_4pairIS7_iEENS0_ISA_EEEEEEPvEEE8allocateB7v160006Em, symObjAddr: 0x11410, symBinAddr: 0x100015290, symSize: 0x50 }
  - { offsetInCU: 0x310EB, offset: 0x310EB, size: 0x8, addend: 0x0, symName: __ZNSt3__116allocator_traitsINS_9allocatorINS_11__tree_nodeINS_12__value_typeINS_12basic_stringIcNS_11char_traitsIcEENS1_IcEEEENS_4listINS_4pairIS8_iEENS1_ISB_EEEEEEPvEEEEE8max_sizeB7v160006ISH_vEEmRKSH_, symObjAddr: 0x11460, symBinAddr: 0x1000152E0, symSize: 0x20 }
  - { offsetInCU: 0x31119, offset: 0x31119, size: 0x8, addend: 0x0, symName: __ZNKSt3__19allocatorINS_11__tree_nodeINS_12__value_typeINS_12basic_stringIcNS_11char_traitsIcEENS0_IcEEEENS_4listINS_4pairIS7_iEENS0_ISA_EEEEEEPvEEE8max_sizeB7v160006Ev, symObjAddr: 0x11480, symBinAddr: 0x100015300, symSize: 0x20 }
  - { offsetInCU: 0x3113F, offset: 0x3113F, size: 0x8, addend: 0x0, symName: __ZNSt3__122__tree_node_destructorINS_9allocatorINS_11__tree_nodeINS_12__value_typeINS_12basic_stringIcNS_11char_traitsIcEENS1_IcEEEENS_4listINS_4pairIS8_iEENS1_ISB_EEEEEEPvEEEEEC2B7v160006ERSH_b, symObjAddr: 0x114A0, symBinAddr: 0x100015320, symSize: 0x30 }
  - { offsetInCU: 0x31187, offset: 0x31187, size: 0x8, addend: 0x0, symName: __ZNSt3__110unique_ptrINS_11__tree_nodeINS_12__value_typeINS_12basic_stringIcNS_11char_traitsIcEENS_9allocatorIcEEEENS_4listINS_4pairIS8_iEENS6_ISB_EEEEEEPvEENS_22__tree_node_destructorINS6_ISG_EEEEEC2B7v160006ILb1EvEEPSG_NS_16__dependent_typeINS_27__unique_ptr_deleter_sfinaeISJ_EEXT_EE20__good_rval_ref_typeE, symObjAddr: 0x114D0, symBinAddr: 0x100015350, symSize: 0x40 }
  - { offsetInCU: 0x311D8, offset: 0x311D8, size: 0x8, addend: 0x0, symName: __ZNSt3__117__compressed_pairIPNS_11__tree_nodeINS_12__value_typeINS_12basic_stringIcNS_11char_traitsIcEENS_9allocatorIcEEEENS_4listINS_4pairIS8_iEENS6_ISB_EEEEEEPvEENS_22__tree_node_destructorINS6_ISG_EEEEEC1B7v160006IRSH_SK_EEOT_OT0_, symObjAddr: 0x11510, symBinAddr: 0x100015390, symSize: 0x30 }
  - { offsetInCU: 0x31230, offset: 0x31230, size: 0x8, addend: 0x0, symName: __ZNSt3__117__compressed_pairIPNS_11__tree_nodeINS_12__value_typeINS_12basic_stringIcNS_11char_traitsIcEENS_9allocatorIcEEEENS_4listINS_4pairIS8_iEENS6_ISB_EEEEEEPvEENS_22__tree_node_destructorINS6_ISG_EEEEEC2B7v160006IRSH_SK_EEOT_OT0_, symObjAddr: 0x11540, symBinAddr: 0x1000153C0, symSize: 0x40 }
  - { offsetInCU: 0x31288, offset: 0x31288, size: 0x8, addend: 0x0, symName: __ZNSt3__122__compressed_pair_elemIPNS_11__tree_nodeINS_12__value_typeINS_12basic_stringIcNS_11char_traitsIcEENS_9allocatorIcEEEENS_4listINS_4pairIS8_iEENS6_ISB_EEEEEEPvEELi0ELb0EEC2B7v160006IRSH_vEEOT_, symObjAddr: 0x11580, symBinAddr: 0x100015400, symSize: 0x20 }
  - { offsetInCU: 0x312CA, offset: 0x312CA, size: 0x8, addend: 0x0, symName: __ZNSt3__122__compressed_pair_elemINS_22__tree_node_destructorINS_9allocatorINS_11__tree_nodeINS_12__value_typeINS_12basic_stringIcNS_11char_traitsIcEENS2_IcEEEENS_4listINS_4pairIS9_iEENS2_ISC_EEEEEEPvEEEEEELi1ELb0EEC2B7v160006ISJ_vEEOT_, symObjAddr: 0x115A0, symBinAddr: 0x100015420, symSize: 0x30 }
  - { offsetInCU: 0x3130C, offset: 0x3130C, size: 0x8, addend: 0x0, symName: __ZNSt3__19allocatorINS_11__tree_nodeINS_12__value_typeINS_12basic_stringIcNS_11char_traitsIcEENS0_IcEEEENS_4listINS_4pairIS7_iEENS0_ISA_EEEEEEPvEEE9constructB7v160006INS9_IKS7_SC_EEJRKNS_21piecewise_construct_tENS_5tupleIJRSI_EEENSN_IJEEEEEEvPT_DpOT0_, symObjAddr: 0x115D0, symBinAddr: 0x100015450, symSize: 0x40 }
  - { offsetInCU: 0x31388, offset: 0x31388, size: 0x8, addend: 0x0, symName: __ZNSt3__14pairIKNS_12basic_stringIcNS_11char_traitsIcEENS_9allocatorIcEEEENS_4listINS0_IS6_iEENS4_IS9_EEEEEC1B7v160006IJRS7_EJEEENS_21piecewise_construct_tENS_5tupleIJDpT_EEENSG_IJDpT0_EEE, symObjAddr: 0x11610, symBinAddr: 0x100015490, symSize: 0x30 }
  - { offsetInCU: 0x313EF, offset: 0x313EF, size: 0x8, addend: 0x0, symName: __ZNSt3__14pairIKNS_12basic_stringIcNS_11char_traitsIcEENS_9allocatorIcEEEENS_4listINS0_IS6_iEENS4_IS9_EEEEEC1B7v160006IJRS7_EJEJLm0EEJEEENS_21piecewise_construct_tERNS_5tupleIJDpT_EEERNSG_IJDpT0_EEENS_15__tuple_indicesIJXspT1_EEEENSP_IJXspT2_EEEE, symObjAddr: 0x11640, symBinAddr: 0x1000154C0, symSize: 0x30 }
  - { offsetInCU: 0x3147F, offset: 0x3147F, size: 0x8, addend: 0x0, symName: __ZNSt3__14pairIKNS_12basic_stringIcNS_11char_traitsIcEENS_9allocatorIcEEEENS_4listINS0_IS6_iEENS4_IS9_EEEEEC2B7v160006IJRS7_EJEJLm0EEJEEENS_21piecewise_construct_tERNS_5tupleIJDpT_EEERNSG_IJDpT0_EEENS_15__tuple_indicesIJXspT1_EEEENSP_IJXspT2_EEEE, symObjAddr: 0x11670, symBinAddr: 0x1000154F0, symSize: 0x50 }
  - { offsetInCU: 0x3150F, offset: 0x3150F, size: 0x8, addend: 0x0, symName: __ZNSt3__14listINS_4pairINS_12basic_stringIcNS_11char_traitsIcEENS_9allocatorIcEEEEiEENS5_IS8_EEEC1B7v160006Ev, symObjAddr: 0x116E0, symBinAddr: 0x100015560, symSize: 0x20 }
  - { offsetInCU: 0x31539, offset: 0x31539, size: 0x8, addend: 0x0, symName: __ZNSt3__112__tuple_leafILm0ERKNS_12basic_stringIcNS_11char_traitsIcEENS_9allocatorIcEEEELb0EE3getB7v160006Ev, symObjAddr: 0x11700, symBinAddr: 0x100015580, symSize: 0x20 }
  - { offsetInCU: 0x3155F, offset: 0x3155F, size: 0x8, addend: 0x0, symName: __ZNSt3__14listINS_4pairINS_12basic_stringIcNS_11char_traitsIcEENS_9allocatorIcEEEEiEENS5_IS8_EEEC2B7v160006Ev, symObjAddr: 0x11720, symBinAddr: 0x1000155A0, symSize: 0x30 }
  - { offsetInCU: 0x31589, offset: 0x31589, size: 0x8, addend: 0x0, symName: __ZNSt3__110__list_impINS_4pairINS_12basic_stringIcNS_11char_traitsIcEENS_9allocatorIcEEEEiEENS5_IS8_EEEC2Ev, symObjAddr: 0x11750, symBinAddr: 0x1000155D0, symSize: 0x50 }
  - { offsetInCU: 0x315B5, offset: 0x315B5, size: 0x8, addend: 0x0, symName: __ZNSt3__117__compressed_pairImNS_9allocatorINS_11__list_nodeINS_4pairINS_12basic_stringIcNS_11char_traitsIcEENS1_IcEEEEiEEPvEEEEEC1B7v160006IiNS_18__default_init_tagEEEOT_OT0_, symObjAddr: 0x117A0, symBinAddr: 0x100015620, symSize: 0x30 }
  - { offsetInCU: 0x3160D, offset: 0x3160D, size: 0x8, addend: 0x0, symName: __ZNSt3__117__compressed_pairImNS_9allocatorINS_11__list_nodeINS_4pairINS_12basic_stringIcNS_11char_traitsIcEENS1_IcEEEEiEEPvEEEEEC2B7v160006IiNS_18__default_init_tagEEEOT_OT0_, symObjAddr: 0x117D0, symBinAddr: 0x100015650, symSize: 0x40 }
  - { offsetInCU: 0x31665, offset: 0x31665, size: 0x8, addend: 0x0, symName: __ZNSt3__122__compressed_pair_elemINS_9allocatorINS_11__list_nodeINS_4pairINS_12basic_stringIcNS_11char_traitsIcEENS1_IcEEEEiEEPvEEEELi1ELb1EEC2B7v160006ENS_18__default_init_tagE, symObjAddr: 0x11810, symBinAddr: 0x100015690, symSize: 0x20 }
  - { offsetInCU: 0x3169A, offset: 0x3169A, size: 0x8, addend: 0x0, symName: __ZNSt3__19allocatorINS_11__list_nodeINS_4pairINS_12basic_stringIcNS_11char_traitsIcEENS0_IcEEEEiEEPvEEEC2B7v160006Ev, symObjAddr: 0x11830, symBinAddr: 0x1000156B0, symSize: 0x20 }
  - { offsetInCU: 0x316C4, offset: 0x316C4, size: 0x8, addend: 0x0, symName: __ZNSt3__116__non_trivial_ifILb1ENS_9allocatorINS_11__list_nodeINS_4pairINS_12basic_stringIcNS_11char_traitsIcEENS1_IcEEEEiEEPvEEEEEC2B7v160006Ev, symObjAddr: 0x11850, symBinAddr: 0x1000156D0, symSize: 0x10 }
  - { offsetInCU: 0x316EE, offset: 0x316EE, size: 0x8, addend: 0x0, symName: __ZNKSt3__117__compressed_pairIPNS_11__tree_nodeINS_12__value_typeINS_12basic_stringIcNS_11char_traitsIcEENS_9allocatorIcEEEENS_4listINS_4pairIS8_iEENS6_ISB_EEEEEEPvEENS_22__tree_node_destructorINS6_ISG_EEEEE5firstB7v160006Ev, symObjAddr: 0x11860, symBinAddr: 0x1000156E0, symSize: 0x20 }
  - { offsetInCU: 0x31714, offset: 0x31714, size: 0x8, addend: 0x0, symName: __ZNKSt3__122__compressed_pair_elemIPNS_11__tree_nodeINS_12__value_typeINS_12basic_stringIcNS_11char_traitsIcEENS_9allocatorIcEEEENS_4listINS_4pairIS8_iEENS6_ISB_EEEEEEPvEELi0ELb0EE5__getB7v160006Ev, symObjAddr: 0x11880, symBinAddr: 0x100015700, symSize: 0x10 }
  - { offsetInCU: 0x3173A, offset: 0x3173A, size: 0x8, addend: 0x0, symName: __ZNSt3__117__compressed_pairIPNS_11__tree_nodeINS_12__value_typeINS_12basic_stringIcNS_11char_traitsIcEENS_9allocatorIcEEEENS_4listINS_4pairIS8_iEENS6_ISB_EEEEEEPvEENS_22__tree_node_destructorINS6_ISG_EEEEE6secondB7v160006Ev, symObjAddr: 0x11890, symBinAddr: 0x100015710, symSize: 0x20 }
  - { offsetInCU: 0x31760, offset: 0x31760, size: 0x8, addend: 0x0, symName: __ZNSt3__122__compressed_pair_elemINS_22__tree_node_destructorINS_9allocatorINS_11__tree_nodeINS_12__value_typeINS_12basic_stringIcNS_11char_traitsIcEENS2_IcEEEENS_4listINS_4pairIS9_iEENS2_ISC_EEEEEEPvEEEEEELi1ELb0EE5__getB7v160006Ev, symObjAddr: 0x118B0, symBinAddr: 0x100015730, symSize: 0x10 }
  - { offsetInCU: 0x31786, offset: 0x31786, size: 0x8, addend: 0x0, symName: __ZNSt3__16__treeINS_12__value_typeINS_12basic_stringIcNS_11char_traitsIcEENS_9allocatorIcEEEENS_4listINS_4pairIS7_iEENS5_ISA_EEEEEENS_19__map_value_compareIS7_SD_NS_4lessIS7_EELb1EEENS5_ISD_EEE4sizeB7v160006Ev, symObjAddr: 0x11BE0, symBinAddr: 0x100015A60, symSize: 0x20 }
  - { offsetInCU: 0x317AC, offset: 0x317AC, size: 0x8, addend: 0x0, symName: __ZNKSt3__116__tree_node_baseIPvE15__parent_unsafeB7v160006Ev, symObjAddr: 0x11C00, symBinAddr: 0x100015A80, symSize: 0x20 }
  - { offsetInCU: 0x317D2, offset: 0x317D2, size: 0x8, addend: 0x0, symName: __ZNSt3__116__tree_node_baseIPvE12__set_parentB7v160006EPS2_, symObjAddr: 0x11DE0, symBinAddr: 0x100015C60, symSize: 0x20 }
  - { offsetInCU: 0x31807, offset: 0x31807, size: 0x8, addend: 0x0, symName: __ZNSt3__117__compressed_pairImNS_19__map_value_compareINS_12basic_stringIcNS_11char_traitsIcEENS_9allocatorIcEEEENS_12__value_typeIS7_NS_4listINS_4pairIS7_iEENS5_ISB_EEEEEENS_4lessIS7_EELb1EEEE5firstB7v160006Ev, symObjAddr: 0x11E00, symBinAddr: 0x100015C80, symSize: 0x20 }
  - { offsetInCU: 0x3182D, offset: 0x3182D, size: 0x8, addend: 0x0, symName: __ZNSt3__117__compressed_pairIPNS_11__tree_nodeINS_12__value_typeINS_12basic_stringIcNS_11char_traitsIcEENS_9allocatorIcEEEENS_4listINS_4pairIS8_iEENS6_ISB_EEEEEEPvEENS_22__tree_node_destructorINS6_ISG_EEEEE5firstB7v160006Ev, symObjAddr: 0x11E20, symBinAddr: 0x100015CA0, symSize: 0x20 }
  - { offsetInCU: 0x31853, offset: 0x31853, size: 0x8, addend: 0x0, symName: __ZNSt3__122__compressed_pair_elemIPNS_11__tree_nodeINS_12__value_typeINS_12basic_stringIcNS_11char_traitsIcEENS_9allocatorIcEEEENS_4listINS_4pairIS8_iEENS6_ISB_EEEEEEPvEELi0ELb0EE5__getB7v160006Ev, symObjAddr: 0x11E40, symBinAddr: 0x100015CC0, symSize: 0x10 }
  - { offsetInCU: 0x31879, offset: 0x31879, size: 0x8, addend: 0x0, symName: __ZNSt3__110unique_ptrINS_11__tree_nodeINS_12__value_typeINS_12basic_stringIcNS_11char_traitsIcEENS_9allocatorIcEEEENS_4listINS_4pairIS8_iEENS6_ISB_EEEEEEPvEENS_22__tree_node_destructorINS6_ISG_EEEEED2B7v160006Ev, symObjAddr: 0x11E50, symBinAddr: 0x100015CD0, symSize: 0x20 }
  - { offsetInCU: 0x318A3, offset: 0x318A3, size: 0x8, addend: 0x0, symName: __ZNSt3__110unique_ptrINS_11__tree_nodeINS_12__value_typeINS_12basic_stringIcNS_11char_traitsIcEENS_9allocatorIcEEEENS_4listINS_4pairIS8_iEENS6_ISB_EEEEEEPvEENS_22__tree_node_destructorINS6_ISG_EEEEE5resetB7v160006EPSG_, symObjAddr: 0x11E70, symBinAddr: 0x100015CF0, symSize: 0x70 }
  - { offsetInCU: 0x318E7, offset: 0x318E7, size: 0x8, addend: 0x0, symName: __ZNSt3__122__tree_node_destructorINS_9allocatorINS_11__tree_nodeINS_12__value_typeINS_12basic_stringIcNS_11char_traitsIcEENS1_IcEEEENS_4listINS_4pairIS8_iEENS1_ISB_EEEEEEPvEEEEEclB7v160006EPSG_, symObjAddr: 0x11EE0, symBinAddr: 0x100015D60, symSize: 0x80 }
  - { offsetInCU: 0x3191C, offset: 0x3191C, size: 0x8, addend: 0x0, symName: __ZNSt3__115__tree_iteratorINS_12__value_typeINS_12basic_stringIcNS_11char_traitsIcEENS_9allocatorIcEEEENS_4listINS_4pairIS7_iEENS5_ISA_EEEEEEPNS_11__tree_nodeISD_PvEElEC2B7v160006ESH_, symObjAddr: 0x11F60, symBinAddr: 0x100015DE0, symSize: 0x20 }
  - { offsetInCU: 0x31955, offset: 0x31955, size: 0x8, addend: 0x0, symName: __ZNSt3__14pairINS_15__tree_iteratorINS_12__value_typeINS_12basic_stringIcNS_11char_traitsIcEENS_9allocatorIcEEEENS_4listINS0_IS8_iEENS6_ISA_EEEEEEPNS_11__tree_nodeISD_PvEElEEbEC2B7v160006ISI_RbLSF_0EEEOT_OT0_, symObjAddr: 0x11F80, symBinAddr: 0x100015E00, symSize: 0x30 }
  - { offsetInCU: 0x319B3, offset: 0x319B3, size: 0x8, addend: 0x0, symName: __ZNSt3__15tupleIJRKNS_12basic_stringIcNS_11char_traitsIcEENS_9allocatorIcEEEEEEC1B7v160006INS_4_AndELi0EEES8_, symObjAddr: 0x11FB0, symBinAddr: 0x100015E30, symSize: 0x30 }
  - { offsetInCU: 0x319FB, offset: 0x319FB, size: 0x8, addend: 0x0, symName: __ZNSt3__15tupleIJRKNS_12basic_stringIcNS_11char_traitsIcEENS_9allocatorIcEEEEEEC2B7v160006INS_4_AndELi0EEES8_, symObjAddr: 0x11FE0, symBinAddr: 0x100015E60, symSize: 0x30 }
  - { offsetInCU: 0x31A43, offset: 0x31A43, size: 0x8, addend: 0x0, symName: __ZNSt3__112__tuple_implINS_15__tuple_indicesIJLm0EEEEJRKNS_12basic_stringIcNS_11char_traitsIcEENS_9allocatorIcEEEEEEC1B7v160006IJLm0EEJSA_EJEJEJSA_EEENS1_IJXspT_EEEENS_13__tuple_typesIJDpT0_EEENS1_IJXspT1_EEEENSE_IJDpT2_EEEDpOT3_, symObjAddr: 0x12010, symBinAddr: 0x100015E90, symSize: 0x30 }
  - { offsetInCU: 0x31AD8, offset: 0x31AD8, size: 0x8, addend: 0x0, symName: __ZNSt3__112__tuple_implINS_15__tuple_indicesIJLm0EEEEJRKNS_12basic_stringIcNS_11char_traitsIcEENS_9allocatorIcEEEEEEC2B7v160006IJLm0EEJSA_EJEJEJSA_EEENS1_IJXspT_EEEENS_13__tuple_typesIJDpT0_EEENS1_IJXspT1_EEEENSE_IJDpT2_EEEDpOT3_, symObjAddr: 0x12040, symBinAddr: 0x100015EC0, symSize: 0x30 }
  - { offsetInCU: 0x31B6D, offset: 0x31B6D, size: 0x8, addend: 0x0, symName: __ZNSt3__112__tuple_leafILm0ERKNS_12basic_stringIcNS_11char_traitsIcEENS_9allocatorIcEEEELb0EEC2B7v160006IS8_vEEOT_, symObjAddr: 0x12070, symBinAddr: 0x100015EF0, symSize: 0x20 }
  - { offsetInCU: 0x31BB0, offset: 0x31BB0, size: 0x8, addend: 0x0, symName: __ZNSt3__114pointer_traitsIPNS_12__value_typeINS_12basic_stringIcNS_11char_traitsIcEENS_9allocatorIcEEEENS_4listINS_4pairIS7_iEENS5_ISA_EEEEEEE10pointer_toB7v160006ERSD_, symObjAddr: 0x12090, symBinAddr: 0x100015F10, symSize: 0x10 }
  - { offsetInCU: 0x31BD3, offset: 0x31BD3, size: 0x8, addend: 0x0, symName: __ZNKSt3__115__tree_iteratorINS_12__value_typeINS_12basic_stringIcNS_11char_traitsIcEENS_9allocatorIcEEEENS_4listINS_4pairIS7_iEENS5_ISA_EEEEEEPNS_11__tree_nodeISD_PvEElE8__get_npB7v160006Ev, symObjAddr: 0x120A0, symBinAddr: 0x100015F20, symSize: 0x20 }
  - { offsetInCU: 0x31BF9, offset: 0x31BF9, size: 0x8, addend: 0x0, symName: __ZNSt3__16__treeINS_12__value_typeINS_12basic_stringIcNS_11char_traitsIcEENS_9allocatorIcEEEENS_4listINS_4pairIS7_fEENS5_ISA_EEEEEENS_19__map_value_compareIS7_SD_NS_4lessIS7_EELb1EEENS5_ISD_EEE25__emplace_unique_key_argsIS7_JRKNS_21piecewise_construct_tENS_5tupleIJRKS7_EEENSO_IJEEEEEENS9_INS_15__tree_iteratorISD_PNS_11__tree_nodeISD_PvEElEEbEERKT_DpOT0_, symObjAddr: 0x120C0, symBinAddr: 0x100015F40, symSize: 0x100 }
  - { offsetInCU: 0x31CD8, offset: 0x31CD8, size: 0x8, addend: 0x0, symName: __ZNKSt3__115__tree_iteratorINS_12__value_typeINS_12basic_stringIcNS_11char_traitsIcEENS_9allocatorIcEEEENS_4listINS_4pairIS7_fEENS5_ISA_EEEEEEPNS_11__tree_nodeISD_PvEElEptB7v160006Ev, symObjAddr: 0x121C0, symBinAddr: 0x100016040, symSize: 0x30 }
  - { offsetInCU: 0x31CFE, offset: 0x31CFE, size: 0x8, addend: 0x0, symName: __ZNSt3__16__treeINS_12__value_typeINS_12basic_stringIcNS_11char_traitsIcEENS_9allocatorIcEEEENS_4listINS_4pairIS7_fEENS5_ISA_EEEEEENS_19__map_value_compareIS7_SD_NS_4lessIS7_EELb1EEENS5_ISD_EEE12__find_equalIS7_EERPNS_16__tree_node_baseIPvEERPNS_15__tree_end_nodeISO_EERKT_, symObjAddr: 0x121F0, symBinAddr: 0x100016070, symSize: 0x180 }
  - { offsetInCU: 0x31D6B, offset: 0x31D6B, size: 0x8, addend: 0x0, symName: __ZNSt3__16__treeINS_12__value_typeINS_12basic_stringIcNS_11char_traitsIcEENS_9allocatorIcEEEENS_4listINS_4pairIS7_fEENS5_ISA_EEEEEENS_19__map_value_compareIS7_SD_NS_4lessIS7_EELb1EEENS5_ISD_EEE16__construct_nodeIJRKNS_21piecewise_construct_tENS_5tupleIJRKS7_EEENSO_IJEEEEEENS_10unique_ptrINS_11__tree_nodeISD_PvEENS_22__tree_node_destructorINS5_ISW_EEEEEEDpOT_, symObjAddr: 0x12370, symBinAddr: 0x1000161F0, symSize: 0x120 }
  - { offsetInCU: 0x31DF4, offset: 0x31DF4, size: 0x8, addend: 0x0, symName: __ZNSt3__16__treeINS_12__value_typeINS_12basic_stringIcNS_11char_traitsIcEENS_9allocatorIcEEEENS_4listINS_4pairIS7_fEENS5_ISA_EEEEEENS_19__map_value_compareIS7_SD_NS_4lessIS7_EELb1EEENS5_ISD_EEE16__insert_node_atEPNS_15__tree_end_nodeIPNS_16__tree_node_baseIPvEEEERSO_SO_, symObjAddr: 0x12490, symBinAddr: 0x100016310, symSize: 0xC0 }
  - { offsetInCU: 0x31E49, offset: 0x31E49, size: 0x8, addend: 0x0, symName: __ZNKSt3__110unique_ptrINS_11__tree_nodeINS_12__value_typeINS_12basic_stringIcNS_11char_traitsIcEENS_9allocatorIcEEEENS_4listINS_4pairIS8_fEENS6_ISB_EEEEEEPvEENS_22__tree_node_destructorINS6_ISG_EEEEE3getB7v160006Ev, symObjAddr: 0x12550, symBinAddr: 0x1000163D0, symSize: 0x20 }
  - { offsetInCU: 0x31E6F, offset: 0x31E6F, size: 0x8, addend: 0x0, symName: __ZNSt3__110unique_ptrINS_11__tree_nodeINS_12__value_typeINS_12basic_stringIcNS_11char_traitsIcEENS_9allocatorIcEEEENS_4listINS_4pairIS8_fEENS6_ISB_EEEEEEPvEENS_22__tree_node_destructorINS6_ISG_EEEEE7releaseB7v160006Ev, symObjAddr: 0x12570, symBinAddr: 0x1000163F0, symSize: 0x40 }
  - { offsetInCU: 0x31EA4, offset: 0x31EA4, size: 0x8, addend: 0x0, symName: __ZNSt3__110unique_ptrINS_11__tree_nodeINS_12__value_typeINS_12basic_stringIcNS_11char_traitsIcEENS_9allocatorIcEEEENS_4listINS_4pairIS8_fEENS6_ISB_EEEEEEPvEENS_22__tree_node_destructorINS6_ISG_EEEEED1B7v160006Ev, symObjAddr: 0x125B0, symBinAddr: 0x100016430, symSize: 0x20 }
  - { offsetInCU: 0x31ECE, offset: 0x31ECE, size: 0x8, addend: 0x0, symName: __ZNSt3__115__tree_iteratorINS_12__value_typeINS_12basic_stringIcNS_11char_traitsIcEENS_9allocatorIcEEEENS_4listINS_4pairIS7_fEENS5_ISA_EEEEEEPNS_11__tree_nodeISD_PvEElEC1B7v160006ESH_, symObjAddr: 0x125D0, symBinAddr: 0x100016450, symSize: 0x30 }
  - { offsetInCU: 0x31F0C, offset: 0x31F0C, size: 0x8, addend: 0x0, symName: __ZNSt3__14pairINS_15__tree_iteratorINS_12__value_typeINS_12basic_stringIcNS_11char_traitsIcEENS_9allocatorIcEEEENS_4listINS0_IS8_fEENS6_ISA_EEEEEEPNS_11__tree_nodeISD_PvEElEEbEC1B7v160006ISI_RbLSF_0EEEOT_OT0_, symObjAddr: 0x12600, symBinAddr: 0x100016480, symSize: 0x30 }
  - { offsetInCU: 0x31F6A, offset: 0x31F6A, size: 0x8, addend: 0x0, symName: __ZNKSt3__16__treeINS_12__value_typeINS_12basic_stringIcNS_11char_traitsIcEENS_9allocatorIcEEEENS_4listINS_4pairIS7_fEENS5_ISA_EEEEEENS_19__map_value_compareIS7_SD_NS_4lessIS7_EELb1EEENS5_ISD_EEE10__root_ptrEv, symObjAddr: 0x12630, symBinAddr: 0x1000164B0, symSize: 0x20 }
  - { offsetInCU: 0x31F90, offset: 0x31F90, size: 0x8, addend: 0x0, symName: __ZNSt3__16__treeINS_12__value_typeINS_12basic_stringIcNS_11char_traitsIcEENS_9allocatorIcEEEENS_4listINS_4pairIS7_fEENS5_ISA_EEEEEENS_19__map_value_compareIS7_SD_NS_4lessIS7_EELb1EEENS5_ISD_EEE10value_compB7v160006Ev, symObjAddr: 0x12650, symBinAddr: 0x1000164D0, symSize: 0x20 }
  - { offsetInCU: 0x31FB6, offset: 0x31FB6, size: 0x8, addend: 0x0, symName: __ZNKSt3__119__map_value_compareINS_12basic_stringIcNS_11char_traitsIcEENS_9allocatorIcEEEENS_12__value_typeIS6_NS_4listINS_4pairIS6_fEENS4_ISA_EEEEEENS_4lessIS6_EELb1EEclB7v160006ERKS6_RKSD_, symObjAddr: 0x12670, symBinAddr: 0x1000164F0, symSize: 0x50 }
  - { offsetInCU: 0x31FFA, offset: 0x31FFA, size: 0x8, addend: 0x0, symName: __ZNKSt3__119__map_value_compareINS_12basic_stringIcNS_11char_traitsIcEENS_9allocatorIcEEEENS_12__value_typeIS6_NS_4listINS_4pairIS6_fEENS4_ISA_EEEEEENS_4lessIS6_EELb1EEclB7v160006ERKSD_RKS6_, symObjAddr: 0x126C0, symBinAddr: 0x100016540, symSize: 0x40 }
  - { offsetInCU: 0x3203E, offset: 0x3203E, size: 0x8, addend: 0x0, symName: __ZNSt3__117__compressed_pairImNS_19__map_value_compareINS_12basic_stringIcNS_11char_traitsIcEENS_9allocatorIcEEEENS_12__value_typeIS7_NS_4listINS_4pairIS7_fEENS5_ISB_EEEEEENS_4lessIS7_EELb1EEEE6secondB7v160006Ev, symObjAddr: 0x12700, symBinAddr: 0x100016580, symSize: 0x20 }
  - { offsetInCU: 0x32064, offset: 0x32064, size: 0x8, addend: 0x0, symName: __ZNSt3__122__compressed_pair_elemINS_19__map_value_compareINS_12basic_stringIcNS_11char_traitsIcEENS_9allocatorIcEEEENS_12__value_typeIS7_NS_4listINS_4pairIS7_fEENS5_ISB_EEEEEENS_4lessIS7_EELb1EEELi1ELb1EE5__getB7v160006Ev, symObjAddr: 0x12720, symBinAddr: 0x1000165A0, symSize: 0x10 }
  - { offsetInCU: 0x3208A, offset: 0x3208A, size: 0x8, addend: 0x0, symName: __ZNKSt3__112__value_typeINS_12basic_stringIcNS_11char_traitsIcEENS_9allocatorIcEEEENS_4listINS_4pairIS6_fEENS4_IS9_EEEEE11__get_valueB7v160006Ev, symObjAddr: 0x12730, symBinAddr: 0x1000165B0, symSize: 0x10 }
  - { offsetInCU: 0x320B0, offset: 0x320B0, size: 0x8, addend: 0x0, symName: __ZNSt3__116allocator_traitsINS_9allocatorINS_11__tree_nodeINS_12__value_typeINS_12basic_stringIcNS_11char_traitsIcEENS1_IcEEEENS_4listINS_4pairIS8_fEENS1_ISB_EEEEEEPvEEEEE8allocateB7v160006ERSH_m, symObjAddr: 0x12740, symBinAddr: 0x1000165C0, symSize: 0x30 }
  - { offsetInCU: 0x320E3, offset: 0x320E3, size: 0x8, addend: 0x0, symName: __ZNSt3__122__tree_node_destructorINS_9allocatorINS_11__tree_nodeINS_12__value_typeINS_12basic_stringIcNS_11char_traitsIcEENS1_IcEEEENS_4listINS_4pairIS8_fEENS1_ISB_EEEEEEPvEEEEEC1B7v160006ERSH_b, symObjAddr: 0x12770, symBinAddr: 0x1000165F0, symSize: 0x40 }
  - { offsetInCU: 0x32130, offset: 0x32130, size: 0x8, addend: 0x0, symName: __ZNSt3__110unique_ptrINS_11__tree_nodeINS_12__value_typeINS_12basic_stringIcNS_11char_traitsIcEENS_9allocatorIcEEEENS_4listINS_4pairIS8_fEENS6_ISB_EEEEEEPvEENS_22__tree_node_destructorINS6_ISG_EEEEEC1B7v160006ILb1EvEEPSG_NS_16__dependent_typeINS_27__unique_ptr_deleter_sfinaeISJ_EEXT_EE20__good_rval_ref_typeE, symObjAddr: 0x127B0, symBinAddr: 0x100016630, symSize: 0x30 }
  - { offsetInCU: 0x32181, offset: 0x32181, size: 0x8, addend: 0x0, symName: __ZNSt3__116allocator_traitsINS_9allocatorINS_11__tree_nodeINS_12__value_typeINS_12basic_stringIcNS_11char_traitsIcEENS1_IcEEEENS_4listINS_4pairIS8_fEENS1_ISB_EEEEEEPvEEEEE9constructB7v160006INSA_IKS8_SD_EEJRKNS_21piecewise_construct_tENS_5tupleIJRSK_EEENSP_IJEEEEvEEvRSH_PT_DpOT0_, symObjAddr: 0x127E0, symBinAddr: 0x100016660, symSize: 0x40 }
  - { offsetInCU: 0x32200, offset: 0x32200, size: 0x8, addend: 0x0, symName: __ZNKSt3__110unique_ptrINS_11__tree_nodeINS_12__value_typeINS_12basic_stringIcNS_11char_traitsIcEENS_9allocatorIcEEEENS_4listINS_4pairIS8_fEENS6_ISB_EEEEEEPvEENS_22__tree_node_destructorINS6_ISG_EEEEEptB7v160006Ev, symObjAddr: 0x12820, symBinAddr: 0x1000166A0, symSize: 0x20 }
  - { offsetInCU: 0x32226, offset: 0x32226, size: 0x8, addend: 0x0, symName: __ZNSt3__110unique_ptrINS_11__tree_nodeINS_12__value_typeINS_12basic_stringIcNS_11char_traitsIcEENS_9allocatorIcEEEENS_4listINS_4pairIS8_fEENS6_ISB_EEEEEEPvEENS_22__tree_node_destructorINS6_ISG_EEEEE11get_deleterB7v160006Ev, symObjAddr: 0x12840, symBinAddr: 0x1000166C0, symSize: 0x20 }
  - { offsetInCU: 0x3224C, offset: 0x3224C, size: 0x8, addend: 0x0, symName: __ZNSt3__19allocatorINS_11__tree_nodeINS_12__value_typeINS_12basic_stringIcNS_11char_traitsIcEENS0_IcEEEENS_4listINS_4pairIS7_fEENS0_ISA_EEEEEEPvEEE8allocateB7v160006Em, symObjAddr: 0x12860, symBinAddr: 0x1000166E0, symSize: 0x50 }
  - { offsetInCU: 0x3228A, offset: 0x3228A, size: 0x8, addend: 0x0, symName: __ZNSt3__116allocator_traitsINS_9allocatorINS_11__tree_nodeINS_12__value_typeINS_12basic_stringIcNS_11char_traitsIcEENS1_IcEEEENS_4listINS_4pairIS8_fEENS1_ISB_EEEEEEPvEEEEE8max_sizeB7v160006ISH_vEEmRKSH_, symObjAddr: 0x128B0, symBinAddr: 0x100016730, symSize: 0x20 }
  - { offsetInCU: 0x322B8, offset: 0x322B8, size: 0x8, addend: 0x0, symName: __ZNKSt3__19allocatorINS_11__tree_nodeINS_12__value_typeINS_12basic_stringIcNS_11char_traitsIcEENS0_IcEEEENS_4listINS_4pairIS7_fEENS0_ISA_EEEEEEPvEEE8max_sizeB7v160006Ev, symObjAddr: 0x128D0, symBinAddr: 0x100016750, symSize: 0x20 }
  - { offsetInCU: 0x322DE, offset: 0x322DE, size: 0x8, addend: 0x0, symName: __ZNSt3__122__tree_node_destructorINS_9allocatorINS_11__tree_nodeINS_12__value_typeINS_12basic_stringIcNS_11char_traitsIcEENS1_IcEEEENS_4listINS_4pairIS8_fEENS1_ISB_EEEEEEPvEEEEEC2B7v160006ERSH_b, symObjAddr: 0x128F0, symBinAddr: 0x100016770, symSize: 0x30 }
  - { offsetInCU: 0x32326, offset: 0x32326, size: 0x8, addend: 0x0, symName: __ZNSt3__110unique_ptrINS_11__tree_nodeINS_12__value_typeINS_12basic_stringIcNS_11char_traitsIcEENS_9allocatorIcEEEENS_4listINS_4pairIS8_fEENS6_ISB_EEEEEEPvEENS_22__tree_node_destructorINS6_ISG_EEEEEC2B7v160006ILb1EvEEPSG_NS_16__dependent_typeINS_27__unique_ptr_deleter_sfinaeISJ_EEXT_EE20__good_rval_ref_typeE, symObjAddr: 0x12920, symBinAddr: 0x1000167A0, symSize: 0x40 }
  - { offsetInCU: 0x32377, offset: 0x32377, size: 0x8, addend: 0x0, symName: __ZNSt3__117__compressed_pairIPNS_11__tree_nodeINS_12__value_typeINS_12basic_stringIcNS_11char_traitsIcEENS_9allocatorIcEEEENS_4listINS_4pairIS8_fEENS6_ISB_EEEEEEPvEENS_22__tree_node_destructorINS6_ISG_EEEEEC1B7v160006IRSH_SK_EEOT_OT0_, symObjAddr: 0x12960, symBinAddr: 0x1000167E0, symSize: 0x30 }
  - { offsetInCU: 0x323CF, offset: 0x323CF, size: 0x8, addend: 0x0, symName: __ZNSt3__117__compressed_pairIPNS_11__tree_nodeINS_12__value_typeINS_12basic_stringIcNS_11char_traitsIcEENS_9allocatorIcEEEENS_4listINS_4pairIS8_fEENS6_ISB_EEEEEEPvEENS_22__tree_node_destructorINS6_ISG_EEEEEC2B7v160006IRSH_SK_EEOT_OT0_, symObjAddr: 0x12990, symBinAddr: 0x100016810, symSize: 0x40 }
  - { offsetInCU: 0x32427, offset: 0x32427, size: 0x8, addend: 0x0, symName: __ZNSt3__122__compressed_pair_elemIPNS_11__tree_nodeINS_12__value_typeINS_12basic_stringIcNS_11char_traitsIcEENS_9allocatorIcEEEENS_4listINS_4pairIS8_fEENS6_ISB_EEEEEEPvEELi0ELb0EEC2B7v160006IRSH_vEEOT_, symObjAddr: 0x129D0, symBinAddr: 0x100016850, symSize: 0x20 }
  - { offsetInCU: 0x32469, offset: 0x32469, size: 0x8, addend: 0x0, symName: __ZNSt3__122__compressed_pair_elemINS_22__tree_node_destructorINS_9allocatorINS_11__tree_nodeINS_12__value_typeINS_12basic_stringIcNS_11char_traitsIcEENS2_IcEEEENS_4listINS_4pairIS9_fEENS2_ISC_EEEEEEPvEEEEEELi1ELb0EEC2B7v160006ISJ_vEEOT_, symObjAddr: 0x129F0, symBinAddr: 0x100016870, symSize: 0x30 }
  - { offsetInCU: 0x324AB, offset: 0x324AB, size: 0x8, addend: 0x0, symName: __ZNSt3__19allocatorINS_11__tree_nodeINS_12__value_typeINS_12basic_stringIcNS_11char_traitsIcEENS0_IcEEEENS_4listINS_4pairIS7_fEENS0_ISA_EEEEEEPvEEE9constructB7v160006INS9_IKS7_SC_EEJRKNS_21piecewise_construct_tENS_5tupleIJRSI_EEENSN_IJEEEEEEvPT_DpOT0_, symObjAddr: 0x12A20, symBinAddr: 0x1000168A0, symSize: 0x40 }
  - { offsetInCU: 0x32527, offset: 0x32527, size: 0x8, addend: 0x0, symName: __ZNSt3__14pairIKNS_12basic_stringIcNS_11char_traitsIcEENS_9allocatorIcEEEENS_4listINS0_IS6_fEENS4_IS9_EEEEEC1B7v160006IJRS7_EJEEENS_21piecewise_construct_tENS_5tupleIJDpT_EEENSG_IJDpT0_EEE, symObjAddr: 0x12A60, symBinAddr: 0x1000168E0, symSize: 0x30 }
  - { offsetInCU: 0x3258E, offset: 0x3258E, size: 0x8, addend: 0x0, symName: __ZNSt3__14pairIKNS_12basic_stringIcNS_11char_traitsIcEENS_9allocatorIcEEEENS_4listINS0_IS6_fEENS4_IS9_EEEEEC1B7v160006IJRS7_EJEJLm0EEJEEENS_21piecewise_construct_tERNS_5tupleIJDpT_EEERNSG_IJDpT0_EEENS_15__tuple_indicesIJXspT1_EEEENSP_IJXspT2_EEEE, symObjAddr: 0x12A90, symBinAddr: 0x100016910, symSize: 0x30 }
  - { offsetInCU: 0x3261E, offset: 0x3261E, size: 0x8, addend: 0x0, symName: __ZNSt3__14pairIKNS_12basic_stringIcNS_11char_traitsIcEENS_9allocatorIcEEEENS_4listINS0_IS6_fEENS4_IS9_EEEEEC2B7v160006IJRS7_EJEJLm0EEJEEENS_21piecewise_construct_tERNS_5tupleIJDpT_EEERNSG_IJDpT0_EEENS_15__tuple_indicesIJXspT1_EEEENSP_IJXspT2_EEEE, symObjAddr: 0x12AC0, symBinAddr: 0x100016940, symSize: 0x50 }
  - { offsetInCU: 0x326AE, offset: 0x326AE, size: 0x8, addend: 0x0, symName: __ZNSt3__14listINS_4pairINS_12basic_stringIcNS_11char_traitsIcEENS_9allocatorIcEEEEfEENS5_IS8_EEEC1B7v160006Ev, symObjAddr: 0x12B10, symBinAddr: 0x100016990, symSize: 0x20 }
  - { offsetInCU: 0x326D8, offset: 0x326D8, size: 0x8, addend: 0x0, symName: __ZNSt3__14listINS_4pairINS_12basic_stringIcNS_11char_traitsIcEENS_9allocatorIcEEEEfEENS5_IS8_EEEC2B7v160006Ev, symObjAddr: 0x12B30, symBinAddr: 0x1000169B0, symSize: 0x30 }
  - { offsetInCU: 0x32702, offset: 0x32702, size: 0x8, addend: 0x0, symName: __ZNSt3__110__list_impINS_4pairINS_12basic_stringIcNS_11char_traitsIcEENS_9allocatorIcEEEEfEENS5_IS8_EEEC2Ev, symObjAddr: 0x12B60, symBinAddr: 0x1000169E0, symSize: 0x50 }
  - { offsetInCU: 0x3272E, offset: 0x3272E, size: 0x8, addend: 0x0, symName: __ZNSt3__117__compressed_pairImNS_9allocatorINS_11__list_nodeINS_4pairINS_12basic_stringIcNS_11char_traitsIcEENS1_IcEEEEfEEPvEEEEEC1B7v160006IiNS_18__default_init_tagEEEOT_OT0_, symObjAddr: 0x12BB0, symBinAddr: 0x100016A30, symSize: 0x30 }
  - { offsetInCU: 0x32786, offset: 0x32786, size: 0x8, addend: 0x0, symName: __ZNSt3__117__compressed_pairImNS_9allocatorINS_11__list_nodeINS_4pairINS_12basic_stringIcNS_11char_traitsIcEENS1_IcEEEEfEEPvEEEEEC2B7v160006IiNS_18__default_init_tagEEEOT_OT0_, symObjAddr: 0x12BE0, symBinAddr: 0x100016A60, symSize: 0x40 }
  - { offsetInCU: 0x327DE, offset: 0x327DE, size: 0x8, addend: 0x0, symName: __ZNSt3__122__compressed_pair_elemINS_9allocatorINS_11__list_nodeINS_4pairINS_12basic_stringIcNS_11char_traitsIcEENS1_IcEEEEfEEPvEEEELi1ELb1EEC2B7v160006ENS_18__default_init_tagE, symObjAddr: 0x12C20, symBinAddr: 0x100016AA0, symSize: 0x20 }
  - { offsetInCU: 0x32813, offset: 0x32813, size: 0x8, addend: 0x0, symName: __ZNSt3__19allocatorINS_11__list_nodeINS_4pairINS_12basic_stringIcNS_11char_traitsIcEENS0_IcEEEEfEEPvEEEC2B7v160006Ev, symObjAddr: 0x12C40, symBinAddr: 0x100016AC0, symSize: 0x20 }
  - { offsetInCU: 0x3283D, offset: 0x3283D, size: 0x8, addend: 0x0, symName: __ZNSt3__116__non_trivial_ifILb1ENS_9allocatorINS_11__list_nodeINS_4pairINS_12basic_stringIcNS_11char_traitsIcEENS1_IcEEEEfEEPvEEEEEC2B7v160006Ev, symObjAddr: 0x12C60, symBinAddr: 0x100016AE0, symSize: 0x10 }
  - { offsetInCU: 0x32867, offset: 0x32867, size: 0x8, addend: 0x0, symName: __ZNKSt3__117__compressed_pairIPNS_11__tree_nodeINS_12__value_typeINS_12basic_stringIcNS_11char_traitsIcEENS_9allocatorIcEEEENS_4listINS_4pairIS8_fEENS6_ISB_EEEEEEPvEENS_22__tree_node_destructorINS6_ISG_EEEEE5firstB7v160006Ev, symObjAddr: 0x12C70, symBinAddr: 0x100016AF0, symSize: 0x20 }
  - { offsetInCU: 0x3288D, offset: 0x3288D, size: 0x8, addend: 0x0, symName: __ZNKSt3__122__compressed_pair_elemIPNS_11__tree_nodeINS_12__value_typeINS_12basic_stringIcNS_11char_traitsIcEENS_9allocatorIcEEEENS_4listINS_4pairIS8_fEENS6_ISB_EEEEEEPvEELi0ELb0EE5__getB7v160006Ev, symObjAddr: 0x12C90, symBinAddr: 0x100016B10, symSize: 0x10 }
  - { offsetInCU: 0x328B3, offset: 0x328B3, size: 0x8, addend: 0x0, symName: __ZNSt3__117__compressed_pairIPNS_11__tree_nodeINS_12__value_typeINS_12basic_stringIcNS_11char_traitsIcEENS_9allocatorIcEEEENS_4listINS_4pairIS8_fEENS6_ISB_EEEEEEPvEENS_22__tree_node_destructorINS6_ISG_EEEEE6secondB7v160006Ev, symObjAddr: 0x12CA0, symBinAddr: 0x100016B20, symSize: 0x20 }
  - { offsetInCU: 0x328D9, offset: 0x328D9, size: 0x8, addend: 0x0, symName: __ZNSt3__122__compressed_pair_elemINS_22__tree_node_destructorINS_9allocatorINS_11__tree_nodeINS_12__value_typeINS_12basic_stringIcNS_11char_traitsIcEENS2_IcEEEENS_4listINS_4pairIS9_fEENS2_ISC_EEEEEEPvEEEEEELi1ELb0EE5__getB7v160006Ev, symObjAddr: 0x12CC0, symBinAddr: 0x100016B40, symSize: 0x10 }
  - { offsetInCU: 0x328FF, offset: 0x328FF, size: 0x8, addend: 0x0, symName: __ZNSt3__16__treeINS_12__value_typeINS_12basic_stringIcNS_11char_traitsIcEENS_9allocatorIcEEEENS_4listINS_4pairIS7_fEENS5_ISA_EEEEEENS_19__map_value_compareIS7_SD_NS_4lessIS7_EELb1EEENS5_ISD_EEE4sizeB7v160006Ev, symObjAddr: 0x12CD0, symBinAddr: 0x100016B50, symSize: 0x20 }
  - { offsetInCU: 0x32925, offset: 0x32925, size: 0x8, addend: 0x0, symName: __ZNSt3__117__compressed_pairImNS_19__map_value_compareINS_12basic_stringIcNS_11char_traitsIcEENS_9allocatorIcEEEENS_12__value_typeIS7_NS_4listINS_4pairIS7_fEENS5_ISB_EEEEEENS_4lessIS7_EELb1EEEE5firstB7v160006Ev, symObjAddr: 0x12CF0, symBinAddr: 0x100016B70, symSize: 0x20 }
  - { offsetInCU: 0x3294B, offset: 0x3294B, size: 0x8, addend: 0x0, symName: __ZNSt3__117__compressed_pairIPNS_11__tree_nodeINS_12__value_typeINS_12basic_stringIcNS_11char_traitsIcEENS_9allocatorIcEEEENS_4listINS_4pairIS8_fEENS6_ISB_EEEEEEPvEENS_22__tree_node_destructorINS6_ISG_EEEEE5firstB7v160006Ev, symObjAddr: 0x12D10, symBinAddr: 0x100016B90, symSize: 0x20 }
  - { offsetInCU: 0x32971, offset: 0x32971, size: 0x8, addend: 0x0, symName: __ZNSt3__122__compressed_pair_elemIPNS_11__tree_nodeINS_12__value_typeINS_12basic_stringIcNS_11char_traitsIcEENS_9allocatorIcEEEENS_4listINS_4pairIS8_fEENS6_ISB_EEEEEEPvEELi0ELb0EE5__getB7v160006Ev, symObjAddr: 0x12D30, symBinAddr: 0x100016BB0, symSize: 0x10 }
  - { offsetInCU: 0x32997, offset: 0x32997, size: 0x8, addend: 0x0, symName: __ZNSt3__110unique_ptrINS_11__tree_nodeINS_12__value_typeINS_12basic_stringIcNS_11char_traitsIcEENS_9allocatorIcEEEENS_4listINS_4pairIS8_fEENS6_ISB_EEEEEEPvEENS_22__tree_node_destructorINS6_ISG_EEEEED2B7v160006Ev, symObjAddr: 0x12D40, symBinAddr: 0x100016BC0, symSize: 0x20 }
  - { offsetInCU: 0x329C1, offset: 0x329C1, size: 0x8, addend: 0x0, symName: __ZNSt3__110unique_ptrINS_11__tree_nodeINS_12__value_typeINS_12basic_stringIcNS_11char_traitsIcEENS_9allocatorIcEEEENS_4listINS_4pairIS8_fEENS6_ISB_EEEEEEPvEENS_22__tree_node_destructorINS6_ISG_EEEEE5resetB7v160006EPSG_, symObjAddr: 0x12D60, symBinAddr: 0x100016BE0, symSize: 0x70 }
  - { offsetInCU: 0x32A05, offset: 0x32A05, size: 0x8, addend: 0x0, symName: __ZNSt3__122__tree_node_destructorINS_9allocatorINS_11__tree_nodeINS_12__value_typeINS_12basic_stringIcNS_11char_traitsIcEENS1_IcEEEENS_4listINS_4pairIS8_fEENS1_ISB_EEEEEEPvEEEEEclB7v160006EPSG_, symObjAddr: 0x12DD0, symBinAddr: 0x100016C50, symSize: 0x80 }
  - { offsetInCU: 0x32A3A, offset: 0x32A3A, size: 0x8, addend: 0x0, symName: __ZNSt3__115__tree_iteratorINS_12__value_typeINS_12basic_stringIcNS_11char_traitsIcEENS_9allocatorIcEEEENS_4listINS_4pairIS7_fEENS5_ISA_EEEEEEPNS_11__tree_nodeISD_PvEElEC2B7v160006ESH_, symObjAddr: 0x12E50, symBinAddr: 0x100016CD0, symSize: 0x20 }
  - { offsetInCU: 0x32A73, offset: 0x32A73, size: 0x8, addend: 0x0, symName: __ZNSt3__14pairINS_15__tree_iteratorINS_12__value_typeINS_12basic_stringIcNS_11char_traitsIcEENS_9allocatorIcEEEENS_4listINS0_IS8_fEENS6_ISA_EEEEEEPNS_11__tree_nodeISD_PvEElEEbEC2B7v160006ISI_RbLSF_0EEEOT_OT0_, symObjAddr: 0x12E70, symBinAddr: 0x100016CF0, symSize: 0x30 }
  - { offsetInCU: 0x32AD1, offset: 0x32AD1, size: 0x8, addend: 0x0, symName: __ZNSt3__114pointer_traitsIPNS_12__value_typeINS_12basic_stringIcNS_11char_traitsIcEENS_9allocatorIcEEEENS_4listINS_4pairIS7_fEENS5_ISA_EEEEEEE10pointer_toB7v160006ERSD_, symObjAddr: 0x12EA0, symBinAddr: 0x100016D20, symSize: 0x10 }
  - { offsetInCU: 0x32AF4, offset: 0x32AF4, size: 0x8, addend: 0x0, symName: __ZNKSt3__115__tree_iteratorINS_12__value_typeINS_12basic_stringIcNS_11char_traitsIcEENS_9allocatorIcEEEENS_4listINS_4pairIS7_fEENS5_ISA_EEEEEEPNS_11__tree_nodeISD_PvEElE8__get_npB7v160006Ev, symObjAddr: 0x12EB0, symBinAddr: 0x100016D30, symSize: 0x20 }
  - { offsetInCU: 0x32B1F, offset: 0x32B1F, size: 0x8, addend: 0x0, symName: __ZNSt3__116allocator_traitsINS_9allocatorINS_11__list_nodeINS_12basic_stringIcNS_11char_traitsIcEENS1_IcEEEEPvEEEEE9constructB7v160006IS7_JS7_EvEEvRSA_PT_DpOT0_, symObjAddr: 0x12ED0, symBinAddr: 0x100016D50, symSize: 0x30 }
  - { offsetInCU: 0x32B76, offset: 0x32B76, size: 0x8, addend: 0x0, symName: __ZNSt3__19allocatorINS_11__list_nodeINS_12basic_stringIcNS_11char_traitsIcEENS0_IcEEEEPvEEE9constructB7v160006IS6_JS6_EEEvPT_DpOT0_, symObjAddr: 0x12F00, symBinAddr: 0x100016D80, symSize: 0x30 }
  - { offsetInCU: 0x32BCC, offset: 0x32BCC, size: 0x8, addend: 0x0, symName: __ZNSt3__112basic_stringIcNS_11char_traitsIcEENS_9allocatorIcEEEC2B7v160006IDnEEPKc, symObjAddr: 0x12F30, symBinAddr: 0x100016DB0, symSize: 0x60 }
  - { offsetInCU: 0x32C0A, offset: 0x32C0A, size: 0x8, addend: 0x0, symName: __ZNSt3__111char_traitsIcE6lengthEPKc, symObjAddr: 0x12F90, symBinAddr: 0x100016E10, symSize: 0x30 }
  - { offsetInCU: 0x32C4B, offset: 0x32C4B, size: 0x8, addend: 0x0, symName: __ZNKSt3__113basic_ostreamIcNS_11char_traitsIcEEE6sentrycvbB7v160006Ev, symObjAddr: 0x131D0, symBinAddr: 0x100017050, symSize: 0x20 }
  - { offsetInCU: 0x32C71, offset: 0x32C71, size: 0x8, addend: 0x0, symName: __ZNSt3__119ostreambuf_iteratorIcNS_11char_traitsIcEEEC1B7v160006ERNS_13basic_ostreamIcS2_EE, symObjAddr: 0x13410, symBinAddr: 0x100017290, symSize: 0x30 }
  - { offsetInCU: 0x32CA9, offset: 0x32CA9, size: 0x8, addend: 0x0, symName: __ZNKSt3__18ios_base5flagsB7v160006Ev, symObjAddr: 0x13440, symBinAddr: 0x1000172C0, symSize: 0x20 }
  - { offsetInCU: 0x32CD1, offset: 0x32CD1, size: 0x8, addend: 0x0, symName: __ZNKSt3__19basic_iosIcNS_11char_traitsIcEEE4fillB7v160006Ev, symObjAddr: 0x13460, symBinAddr: 0x1000172E0, symSize: 0x70 }
  - { offsetInCU: 0x32CF9, offset: 0x32CF9, size: 0x8, addend: 0x0, symName: __ZNKSt3__119ostreambuf_iteratorIcNS_11char_traitsIcEEE6failedB7v160006Ev, symObjAddr: 0x134D0, symBinAddr: 0x100017350, symSize: 0x20 }
  - { offsetInCU: 0x32D1F, offset: 0x32D1F, size: 0x8, addend: 0x0, symName: __ZNSt3__19basic_iosIcNS_11char_traitsIcEEE8setstateB7v160006Ej, symObjAddr: 0x134F0, symBinAddr: 0x100017370, symSize: 0x30 }
  - { offsetInCU: 0x32D54, offset: 0x32D54, size: 0x8, addend: 0x0, symName: __ZNKSt3__18ios_base5widthB7v160006Ev, symObjAddr: 0x13520, symBinAddr: 0x1000173A0, symSize: 0x20 }
  - { offsetInCU: 0x32D7C, offset: 0x32D7C, size: 0x8, addend: 0x0, symName: __ZNSt3__115basic_streambufIcNS_11char_traitsIcEEE5sputnB7v160006EPKcl, symObjAddr: 0x13540, symBinAddr: 0x1000173C0, symSize: 0x30 }
  - { offsetInCU: 0x32DBE, offset: 0x32DBE, size: 0x8, addend: 0x0, symName: __ZNSt3__112basic_stringIcNS_11char_traitsIcEENS_9allocatorIcEEEC1B7v160006Emc, symObjAddr: 0x13570, symBinAddr: 0x1000173F0, symSize: 0x30 }
  - { offsetInCU: 0x32E06, offset: 0x32E06, size: 0x8, addend: 0x0, symName: __ZNSt3__18ios_base5widthB7v160006El, symObjAddr: 0x135A0, symBinAddr: 0x100017420, symSize: 0x30 }
  - { offsetInCU: 0x32E4C, offset: 0x32E4C, size: 0x8, addend: 0x0, symName: __ZNSt3__112basic_stringIcNS_11char_traitsIcEENS_9allocatorIcEEEC2B7v160006Emc, symObjAddr: 0x135D0, symBinAddr: 0x100017450, symSize: 0x50 }
  - { offsetInCU: 0x32E94, offset: 0x32E94, size: 0x8, addend: 0x0, symName: __ZNSt3__119ostreambuf_iteratorIcNS_11char_traitsIcEEEC2B7v160006ERNS_13basic_ostreamIcS2_EE, symObjAddr: 0x13620, symBinAddr: 0x1000174A0, symSize: 0x50 }
  - { offsetInCU: 0x32ECC, offset: 0x32ECC, size: 0x8, addend: 0x0, symName: __ZNKSt3__19basic_iosIcNS_11char_traitsIcEEE5rdbufB7v160006Ev, symObjAddr: 0x13670, symBinAddr: 0x1000174F0, symSize: 0x20 }
  - { offsetInCU: 0x32EF4, offset: 0x32EF4, size: 0x8, addend: 0x0, symName: __ZNKSt3__18ios_base5rdbufB7v160006Ev, symObjAddr: 0x13690, symBinAddr: 0x100017510, symSize: 0x20 }
  - { offsetInCU: 0x32F1A, offset: 0x32F1A, size: 0x8, addend: 0x0, symName: __ZNSt3__111char_traitsIcE11eq_int_typeEii, symObjAddr: 0x136B0, symBinAddr: 0x100017530, symSize: 0x20 }
  - { offsetInCU: 0x32F4B, offset: 0x32F4B, size: 0x8, addend: 0x0, symName: __ZNKSt3__19basic_iosIcNS_11char_traitsIcEEE5widenB7v160006Ec, symObjAddr: 0x136D0, symBinAddr: 0x100017550, symSize: 0x80 }
  - { offsetInCU: 0x32FAF, offset: 0x32FAF, size: 0x8, addend: 0x0, symName: __ZNKSt3__15ctypeIcE5widenB7v160006Ec, symObjAddr: 0x13780, symBinAddr: 0x100017600, symSize: 0x30 }
  - { offsetInCU: 0x32FE4, offset: 0x32FE4, size: 0x8, addend: 0x0, symName: __ZNSt3__18ios_base8setstateB7v160006Ej, symObjAddr: 0x137B0, symBinAddr: 0x100017630, symSize: 0x30 }
  - { offsetInCU: 0x3301B, offset: 0x3301B, size: 0x8, addend: 0x0, symName: __ZNSt3__16__treeINS_12__value_typeINS_12basic_stringIcNS_11char_traitsIcEENS_9allocatorIcEEEENS_4listINS_4pairIS7_iEENS5_ISA_EEEEEENS_19__map_value_compareIS7_SD_NS_4lessIS7_EELb1EEENS5_ISD_EEE5beginB7v160006Ev, symObjAddr: 0x137E0, symBinAddr: 0x100017660, symSize: 0x30 }
  - { offsetInCU: 0x33041, offset: 0x33041, size: 0x8, addend: 0x0, symName: __ZNSt3__114__map_iteratorINS_15__tree_iteratorINS_12__value_typeINS_12basic_stringIcNS_11char_traitsIcEENS_9allocatorIcEEEENS_4listINS_4pairIS8_iEENS6_ISB_EEEEEEPNS_11__tree_nodeISE_PvEElEEEC1B7v160006ESJ_, symObjAddr: 0x13810, symBinAddr: 0x100017690, symSize: 0x30 }
  - { offsetInCU: 0x3307A, offset: 0x3307A, size: 0x8, addend: 0x0, symName: __ZNSt3__115__tree_iteratorINS_12__value_typeINS_12basic_stringIcNS_11char_traitsIcEENS_9allocatorIcEEEENS_4listINS_4pairIS7_iEENS5_ISA_EEEEEEPNS_11__tree_nodeISD_PvEElEC1B7v160006EPNS_15__tree_end_nodeIPNS_16__tree_node_baseISF_EEEE, symObjAddr: 0x13840, symBinAddr: 0x1000176C0, symSize: 0x30 }
  - { offsetInCU: 0x330B3, offset: 0x330B3, size: 0x8, addend: 0x0, symName: __ZNSt3__115__tree_iteratorINS_12__value_typeINS_12basic_stringIcNS_11char_traitsIcEENS_9allocatorIcEEEENS_4listINS_4pairIS7_iEENS5_ISA_EEEEEEPNS_11__tree_nodeISD_PvEElEC2B7v160006EPNS_15__tree_end_nodeIPNS_16__tree_node_baseISF_EEEE, symObjAddr: 0x13870, symBinAddr: 0x1000176F0, symSize: 0x20 }
  - { offsetInCU: 0x330EC, offset: 0x330EC, size: 0x8, addend: 0x0, symName: __ZNSt3__114__map_iteratorINS_15__tree_iteratorINS_12__value_typeINS_12basic_stringIcNS_11char_traitsIcEENS_9allocatorIcEEEENS_4listINS_4pairIS8_iEENS6_ISB_EEEEEEPNS_11__tree_nodeISE_PvEElEEEC2B7v160006ESJ_, symObjAddr: 0x13890, symBinAddr: 0x100017710, symSize: 0x20 }
  - { offsetInCU: 0x33125, offset: 0x33125, size: 0x8, addend: 0x0, symName: __ZNSt3__16__treeINS_12__value_typeINS_12basic_stringIcNS_11char_traitsIcEENS_9allocatorIcEEEENS_4listINS_4pairIS7_iEENS5_ISA_EEEEEENS_19__map_value_compareIS7_SD_NS_4lessIS7_EELb1EEENS5_ISD_EEE3endB7v160006Ev, symObjAddr: 0x138B0, symBinAddr: 0x100017730, symSize: 0x30 }
  - { offsetInCU: 0x3314B, offset: 0x3314B, size: 0x8, addend: 0x0, symName: __ZNSt3__115__tree_iteratorINS_12__value_typeINS_12basic_stringIcNS_11char_traitsIcEENS_9allocatorIcEEEENS_4listINS_4pairIS7_iEENS5_ISA_EEEEEEPNS_11__tree_nodeISD_PvEElEppB7v160006Ev, symObjAddr: 0x13940, symBinAddr: 0x1000177C0, symSize: 0x30 }
  - { offsetInCU: 0x33171, offset: 0x33171, size: 0x8, addend: 0x0, symName: __ZNSt3__16__treeINS_12__value_typeINS_12basic_stringIcNS_11char_traitsIcEENS_9allocatorIcEEEEiEENS_19__map_value_compareIS7_S8_NS_4lessIS7_EELb1EEENS5_IS8_EEE25__emplace_unique_key_argsIS7_JRKNS_21piecewise_construct_tENS_5tupleIJRKS7_EEENSJ_IJEEEEEENS_4pairINS_15__tree_iteratorIS8_PNS_11__tree_nodeIS8_PvEElEEbEERKT_DpOT0_, symObjAddr: 0x13A20, symBinAddr: 0x1000178A0, symSize: 0x100 }
  - { offsetInCU: 0x33250, offset: 0x33250, size: 0x8, addend: 0x0, symName: __ZNKSt3__115__tree_iteratorINS_12__value_typeINS_12basic_stringIcNS_11char_traitsIcEENS_9allocatorIcEEEEiEEPNS_11__tree_nodeIS8_PvEElEptB7v160006Ev, symObjAddr: 0x13B20, symBinAddr: 0x1000179A0, symSize: 0x30 }
  - { offsetInCU: 0x33276, offset: 0x33276, size: 0x8, addend: 0x0, symName: __ZNSt3__112__value_typeINS_12basic_stringIcNS_11char_traitsIcEENS_9allocatorIcEEEEiE11__get_valueB7v160006Ev, symObjAddr: 0x13B50, symBinAddr: 0x1000179D0, symSize: 0x10 }
  - { offsetInCU: 0x3329C, offset: 0x3329C, size: 0x8, addend: 0x0, symName: __ZNSt3__16__treeINS_12__value_typeINS_12basic_stringIcNS_11char_traitsIcEENS_9allocatorIcEEEEiEENS_19__map_value_compareIS7_S8_NS_4lessIS7_EELb1EEENS5_IS8_EEE12__find_equalIS7_EERPNS_16__tree_node_baseIPvEERPNS_15__tree_end_nodeISJ_EERKT_, symObjAddr: 0x13B60, symBinAddr: 0x1000179E0, symSize: 0x180 }
  - { offsetInCU: 0x33309, offset: 0x33309, size: 0x8, addend: 0x0, symName: __ZNSt3__16__treeINS_12__value_typeINS_12basic_stringIcNS_11char_traitsIcEENS_9allocatorIcEEEEiEENS_19__map_value_compareIS7_S8_NS_4lessIS7_EELb1EEENS5_IS8_EEE16__construct_nodeIJRKNS_21piecewise_construct_tENS_5tupleIJRKS7_EEENSJ_IJEEEEEENS_10unique_ptrINS_11__tree_nodeIS8_PvEENS_22__tree_node_destructorINS5_ISR_EEEEEEDpOT_, symObjAddr: 0x13CE0, symBinAddr: 0x100017B60, symSize: 0x120 }
  - { offsetInCU: 0x33392, offset: 0x33392, size: 0x8, addend: 0x0, symName: __ZNSt3__16__treeINS_12__value_typeINS_12basic_stringIcNS_11char_traitsIcEENS_9allocatorIcEEEEiEENS_19__map_value_compareIS7_S8_NS_4lessIS7_EELb1EEENS5_IS8_EEE16__insert_node_atEPNS_15__tree_end_nodeIPNS_16__tree_node_baseIPvEEEERSJ_SJ_, symObjAddr: 0x13E00, symBinAddr: 0x100017C80, symSize: 0xC0 }
  - { offsetInCU: 0x333E7, offset: 0x333E7, size: 0x8, addend: 0x0, symName: __ZNKSt3__110unique_ptrINS_11__tree_nodeINS_12__value_typeINS_12basic_stringIcNS_11char_traitsIcEENS_9allocatorIcEEEEiEEPvEENS_22__tree_node_destructorINS6_ISB_EEEEE3getB7v160006Ev, symObjAddr: 0x13EC0, symBinAddr: 0x100017D40, symSize: 0x20 }
  - { offsetInCU: 0x3340D, offset: 0x3340D, size: 0x8, addend: 0x0, symName: __ZNSt3__110unique_ptrINS_11__tree_nodeINS_12__value_typeINS_12basic_stringIcNS_11char_traitsIcEENS_9allocatorIcEEEEiEEPvEENS_22__tree_node_destructorINS6_ISB_EEEEE7releaseB7v160006Ev, symObjAddr: 0x13EE0, symBinAddr: 0x100017D60, symSize: 0x40 }
  - { offsetInCU: 0x33442, offset: 0x33442, size: 0x8, addend: 0x0, symName: __ZNSt3__110unique_ptrINS_11__tree_nodeINS_12__value_typeINS_12basic_stringIcNS_11char_traitsIcEENS_9allocatorIcEEEEiEEPvEENS_22__tree_node_destructorINS6_ISB_EEEEED1B7v160006Ev, symObjAddr: 0x13F20, symBinAddr: 0x100017DA0, symSize: 0x20 }
  - { offsetInCU: 0x3346C, offset: 0x3346C, size: 0x8, addend: 0x0, symName: __ZNSt3__115__tree_iteratorINS_12__value_typeINS_12basic_stringIcNS_11char_traitsIcEENS_9allocatorIcEEEEiEEPNS_11__tree_nodeIS8_PvEElEC1B7v160006ESC_, symObjAddr: 0x13F40, symBinAddr: 0x100017DC0, symSize: 0x30 }
  - { offsetInCU: 0x334AA, offset: 0x334AA, size: 0x8, addend: 0x0, symName: __ZNSt3__14pairINS_15__tree_iteratorINS_12__value_typeINS_12basic_stringIcNS_11char_traitsIcEENS_9allocatorIcEEEEiEEPNS_11__tree_nodeIS9_PvEElEEbEC1B7v160006ISE_RbLSB_0EEEOT_OT0_, symObjAddr: 0x13F70, symBinAddr: 0x100017DF0, symSize: 0x30 }
  - { offsetInCU: 0x33508, offset: 0x33508, size: 0x8, addend: 0x0, symName: __ZNKSt3__16__treeINS_12__value_typeINS_12basic_stringIcNS_11char_traitsIcEENS_9allocatorIcEEEEiEENS_19__map_value_compareIS7_S8_NS_4lessIS7_EELb1EEENS5_IS8_EEE6__rootB7v160006Ev, symObjAddr: 0x13FA0, symBinAddr: 0x100017E20, symSize: 0x20 }
  - { offsetInCU: 0x3352E, offset: 0x3352E, size: 0x8, addend: 0x0, symName: __ZNKSt3__16__treeINS_12__value_typeINS_12basic_stringIcNS_11char_traitsIcEENS_9allocatorIcEEEEiEENS_19__map_value_compareIS7_S8_NS_4lessIS7_EELb1EEENS5_IS8_EEE10__root_ptrEv, symObjAddr: 0x13FC0, symBinAddr: 0x100017E40, symSize: 0x20 }
  - { offsetInCU: 0x33554, offset: 0x33554, size: 0x8, addend: 0x0, symName: __ZNSt3__16__treeINS_12__value_typeINS_12basic_stringIcNS_11char_traitsIcEENS_9allocatorIcEEEEiEENS_19__map_value_compareIS7_S8_NS_4lessIS7_EELb1EEENS5_IS8_EEE10value_compB7v160006Ev, symObjAddr: 0x13FE0, symBinAddr: 0x100017E60, symSize: 0x20 }
  - { offsetInCU: 0x3357A, offset: 0x3357A, size: 0x8, addend: 0x0, symName: __ZNKSt3__119__map_value_compareINS_12basic_stringIcNS_11char_traitsIcEENS_9allocatorIcEEEENS_12__value_typeIS6_iEENS_4lessIS6_EELb1EEclB7v160006ERKS6_RKS8_, symObjAddr: 0x14000, symBinAddr: 0x100017E80, symSize: 0x50 }
  - { offsetInCU: 0x335BE, offset: 0x335BE, size: 0x8, addend: 0x0, symName: __ZNKSt3__119__map_value_compareINS_12basic_stringIcNS_11char_traitsIcEENS_9allocatorIcEEEENS_12__value_typeIS6_iEENS_4lessIS6_EELb1EEclB7v160006ERKS8_RKS6_, symObjAddr: 0x14050, symBinAddr: 0x100017ED0, symSize: 0x40 }
  - { offsetInCU: 0x33602, offset: 0x33602, size: 0x8, addend: 0x0, symName: __ZNSt3__16__treeINS_12__value_typeINS_12basic_stringIcNS_11char_traitsIcEENS_9allocatorIcEEEEiEENS_19__map_value_compareIS7_S8_NS_4lessIS7_EELb1EEENS5_IS8_EEE10__end_nodeB7v160006Ev, symObjAddr: 0x14090, symBinAddr: 0x100017F10, symSize: 0x30 }
  - { offsetInCU: 0x33628, offset: 0x33628, size: 0x8, addend: 0x0, symName: __ZNKSt3__16__treeINS_12__value_typeINS_12basic_stringIcNS_11char_traitsIcEENS_9allocatorIcEEEEiEENS_19__map_value_compareIS7_S8_NS_4lessIS7_EELb1EEENS5_IS8_EEE10__end_nodeB7v160006Ev, symObjAddr: 0x140C0, symBinAddr: 0x100017F40, symSize: 0x30 }
  - { offsetInCU: 0x3364E, offset: 0x3364E, size: 0x8, addend: 0x0, symName: __ZNKSt3__117__compressed_pairINS_15__tree_end_nodeIPNS_16__tree_node_baseIPvEEEENS_9allocatorINS_11__tree_nodeINS_12__value_typeINS_12basic_stringIcNS_11char_traitsIcEENS7_IcEEEEiEES3_EEEEE5firstB7v160006Ev, symObjAddr: 0x140F0, symBinAddr: 0x100017F70, symSize: 0x20 }
  - { offsetInCU: 0x33674, offset: 0x33674, size: 0x8, addend: 0x0, symName: __ZNSt3__117__compressed_pairImNS_19__map_value_compareINS_12basic_stringIcNS_11char_traitsIcEENS_9allocatorIcEEEENS_12__value_typeIS7_iEENS_4lessIS7_EELb1EEEE6secondB7v160006Ev, symObjAddr: 0x14110, symBinAddr: 0x100017F90, symSize: 0x20 }
  - { offsetInCU: 0x3369A, offset: 0x3369A, size: 0x8, addend: 0x0, symName: __ZNSt3__122__compressed_pair_elemINS_19__map_value_compareINS_12basic_stringIcNS_11char_traitsIcEENS_9allocatorIcEEEENS_12__value_typeIS7_iEENS_4lessIS7_EELb1EEELi1ELb1EE5__getB7v160006Ev, symObjAddr: 0x14130, symBinAddr: 0x100017FB0, symSize: 0x10 }
  - { offsetInCU: 0x336C0, offset: 0x336C0, size: 0x8, addend: 0x0, symName: __ZNKSt3__112__value_typeINS_12basic_stringIcNS_11char_traitsIcEENS_9allocatorIcEEEEiE11__get_valueB7v160006Ev, symObjAddr: 0x14140, symBinAddr: 0x100017FC0, symSize: 0x10 }
  - { offsetInCU: 0x336E6, offset: 0x336E6, size: 0x8, addend: 0x0, symName: __ZNSt3__117__compressed_pairINS_15__tree_end_nodeIPNS_16__tree_node_baseIPvEEEENS_9allocatorINS_11__tree_nodeINS_12__value_typeINS_12basic_stringIcNS_11char_traitsIcEENS7_IcEEEEiEES3_EEEEE5firstB7v160006Ev, symObjAddr: 0x14150, symBinAddr: 0x100017FD0, symSize: 0x20 }
  - { offsetInCU: 0x3370C, offset: 0x3370C, size: 0x8, addend: 0x0, symName: __ZNSt3__16__treeINS_12__value_typeINS_12basic_stringIcNS_11char_traitsIcEENS_9allocatorIcEEEEiEENS_19__map_value_compareIS7_S8_NS_4lessIS7_EELb1EEENS5_IS8_EEE12__node_allocB7v160006Ev, symObjAddr: 0x14170, symBinAddr: 0x100017FF0, symSize: 0x20 }
  - { offsetInCU: 0x33732, offset: 0x33732, size: 0x8, addend: 0x0, symName: __ZNSt3__116allocator_traitsINS_9allocatorINS_11__tree_nodeINS_12__value_typeINS_12basic_stringIcNS_11char_traitsIcEENS1_IcEEEEiEEPvEEEEE8allocateB7v160006ERSC_m, symObjAddr: 0x14190, symBinAddr: 0x100018010, symSize: 0x30 }
  - { offsetInCU: 0x33765, offset: 0x33765, size: 0x8, addend: 0x0, symName: __ZNSt3__122__tree_node_destructorINS_9allocatorINS_11__tree_nodeINS_12__value_typeINS_12basic_stringIcNS_11char_traitsIcEENS1_IcEEEEiEEPvEEEEEC1B7v160006ERSC_b, symObjAddr: 0x141C0, symBinAddr: 0x100018040, symSize: 0x40 }
  - { offsetInCU: 0x337B2, offset: 0x337B2, size: 0x8, addend: 0x0, symName: __ZNSt3__110unique_ptrINS_11__tree_nodeINS_12__value_typeINS_12basic_stringIcNS_11char_traitsIcEENS_9allocatorIcEEEEiEEPvEENS_22__tree_node_destructorINS6_ISB_EEEEEC1B7v160006ILb1EvEEPSB_NS_16__dependent_typeINS_27__unique_ptr_deleter_sfinaeISE_EEXT_EE20__good_rval_ref_typeE, symObjAddr: 0x14200, symBinAddr: 0x100018080, symSize: 0x30 }
  - { offsetInCU: 0x33803, offset: 0x33803, size: 0x8, addend: 0x0, symName: __ZNSt3__116allocator_traitsINS_9allocatorINS_11__tree_nodeINS_12__value_typeINS_12basic_stringIcNS_11char_traitsIcEENS1_IcEEEEiEEPvEEEEE9constructB7v160006INS_4pairIKS8_iEEJRKNS_21piecewise_construct_tENS_5tupleIJRSG_EEENSL_IJEEEEvEEvRSC_PT_DpOT0_, symObjAddr: 0x14230, symBinAddr: 0x1000180B0, symSize: 0x40 }
  - { offsetInCU: 0x33882, offset: 0x33882, size: 0x8, addend: 0x0, symName: __ZNSt3__122__tree_key_value_typesINS_12__value_typeINS_12basic_stringIcNS_11char_traitsIcEENS_9allocatorIcEEEEiEEE9__get_ptrB7v160006ERS8_, symObjAddr: 0x14270, symBinAddr: 0x1000180F0, symSize: 0x20 }
  - { offsetInCU: 0x338A6, offset: 0x338A6, size: 0x8, addend: 0x0, symName: __ZNKSt3__110unique_ptrINS_11__tree_nodeINS_12__value_typeINS_12basic_stringIcNS_11char_traitsIcEENS_9allocatorIcEEEEiEEPvEENS_22__tree_node_destructorINS6_ISB_EEEEEptB7v160006Ev, symObjAddr: 0x14290, symBinAddr: 0x100018110, symSize: 0x20 }
  - { offsetInCU: 0x338CC, offset: 0x338CC, size: 0x8, addend: 0x0, symName: __ZNSt3__110unique_ptrINS_11__tree_nodeINS_12__value_typeINS_12basic_stringIcNS_11char_traitsIcEENS_9allocatorIcEEEEiEEPvEENS_22__tree_node_destructorINS6_ISB_EEEEE11get_deleterB7v160006Ev, symObjAddr: 0x142B0, symBinAddr: 0x100018130, symSize: 0x20 }
  - { offsetInCU: 0x338F2, offset: 0x338F2, size: 0x8, addend: 0x0, symName: __ZNSt3__117__compressed_pairINS_15__tree_end_nodeIPNS_16__tree_node_baseIPvEEEENS_9allocatorINS_11__tree_nodeINS_12__value_typeINS_12basic_stringIcNS_11char_traitsIcEENS7_IcEEEEiEES3_EEEEE6secondB7v160006Ev, symObjAddr: 0x142D0, symBinAddr: 0x100018150, symSize: 0x20 }
  - { offsetInCU: 0x33918, offset: 0x33918, size: 0x8, addend: 0x0, symName: __ZNSt3__122__compressed_pair_elemINS_9allocatorINS_11__tree_nodeINS_12__value_typeINS_12basic_stringIcNS_11char_traitsIcEENS1_IcEEEEiEEPvEEEELi1ELb1EE5__getB7v160006Ev, symObjAddr: 0x142F0, symBinAddr: 0x100018170, symSize: 0x10 }
  - { offsetInCU: 0x3393E, offset: 0x3393E, size: 0x8, addend: 0x0, symName: __ZNSt3__19allocatorINS_11__tree_nodeINS_12__value_typeINS_12basic_stringIcNS_11char_traitsIcEENS0_IcEEEEiEEPvEEE8allocateB7v160006Em, symObjAddr: 0x14300, symBinAddr: 0x100018180, symSize: 0x50 }
  - { offsetInCU: 0x3397C, offset: 0x3397C, size: 0x8, addend: 0x0, symName: __ZNSt3__116allocator_traitsINS_9allocatorINS_11__tree_nodeINS_12__value_typeINS_12basic_stringIcNS_11char_traitsIcEENS1_IcEEEEiEEPvEEEEE8max_sizeB7v160006ISC_vEEmRKSC_, symObjAddr: 0x14350, symBinAddr: 0x1000181D0, symSize: 0x20 }
  - { offsetInCU: 0x339AA, offset: 0x339AA, size: 0x8, addend: 0x0, symName: __ZNKSt3__19allocatorINS_11__tree_nodeINS_12__value_typeINS_12basic_stringIcNS_11char_traitsIcEENS0_IcEEEEiEEPvEEE8max_sizeB7v160006Ev, symObjAddr: 0x14370, symBinAddr: 0x1000181F0, symSize: 0x20 }
  - { offsetInCU: 0x339D0, offset: 0x339D0, size: 0x8, addend: 0x0, symName: __ZNSt3__122__tree_node_destructorINS_9allocatorINS_11__tree_nodeINS_12__value_typeINS_12basic_stringIcNS_11char_traitsIcEENS1_IcEEEEiEEPvEEEEEC2B7v160006ERSC_b, symObjAddr: 0x14390, symBinAddr: 0x100018210, symSize: 0x30 }
  - { offsetInCU: 0x33A18, offset: 0x33A18, size: 0x8, addend: 0x0, symName: __ZNSt3__110unique_ptrINS_11__tree_nodeINS_12__value_typeINS_12basic_stringIcNS_11char_traitsIcEENS_9allocatorIcEEEEiEEPvEENS_22__tree_node_destructorINS6_ISB_EEEEEC2B7v160006ILb1EvEEPSB_NS_16__dependent_typeINS_27__unique_ptr_deleter_sfinaeISE_EEXT_EE20__good_rval_ref_typeE, symObjAddr: 0x143C0, symBinAddr: 0x100018240, symSize: 0x40 }
  - { offsetInCU: 0x33A69, offset: 0x33A69, size: 0x8, addend: 0x0, symName: __ZNSt3__117__compressed_pairIPNS_11__tree_nodeINS_12__value_typeINS_12basic_stringIcNS_11char_traitsIcEENS_9allocatorIcEEEEiEEPvEENS_22__tree_node_destructorINS6_ISB_EEEEEC1B7v160006IRSC_SF_EEOT_OT0_, symObjAddr: 0x14400, symBinAddr: 0x100018280, symSize: 0x30 }
  - { offsetInCU: 0x33AC1, offset: 0x33AC1, size: 0x8, addend: 0x0, symName: __ZNSt3__117__compressed_pairIPNS_11__tree_nodeINS_12__value_typeINS_12basic_stringIcNS_11char_traitsIcEENS_9allocatorIcEEEEiEEPvEENS_22__tree_node_destructorINS6_ISB_EEEEEC2B7v160006IRSC_SF_EEOT_OT0_, symObjAddr: 0x14430, symBinAddr: 0x1000182B0, symSize: 0x40 }
  - { offsetInCU: 0x33B19, offset: 0x33B19, size: 0x8, addend: 0x0, symName: __ZNSt3__122__compressed_pair_elemIPNS_11__tree_nodeINS_12__value_typeINS_12basic_stringIcNS_11char_traitsIcEENS_9allocatorIcEEEEiEEPvEELi0ELb0EEC2B7v160006IRSC_vEEOT_, symObjAddr: 0x14470, symBinAddr: 0x1000182F0, symSize: 0x20 }
  - { offsetInCU: 0x33B5B, offset: 0x33B5B, size: 0x8, addend: 0x0, symName: __ZNSt3__122__compressed_pair_elemINS_22__tree_node_destructorINS_9allocatorINS_11__tree_nodeINS_12__value_typeINS_12basic_stringIcNS_11char_traitsIcEENS2_IcEEEEiEEPvEEEEEELi1ELb0EEC2B7v160006ISE_vEEOT_, symObjAddr: 0x14490, symBinAddr: 0x100018310, symSize: 0x30 }
  - { offsetInCU: 0x33B9D, offset: 0x33B9D, size: 0x8, addend: 0x0, symName: __ZNSt3__19allocatorINS_11__tree_nodeINS_12__value_typeINS_12basic_stringIcNS_11char_traitsIcEENS0_IcEEEEiEEPvEEE9constructB7v160006INS_4pairIKS7_iEEJRKNS_21piecewise_construct_tENS_5tupleIJRSE_EEENSJ_IJEEEEEEvPT_DpOT0_, symObjAddr: 0x144C0, symBinAddr: 0x100018340, symSize: 0x40 }
  - { offsetInCU: 0x33C19, offset: 0x33C19, size: 0x8, addend: 0x0, symName: __ZNSt3__14pairIKNS_12basic_stringIcNS_11char_traitsIcEENS_9allocatorIcEEEEiEC1B7v160006IJRS7_EJEEENS_21piecewise_construct_tENS_5tupleIJDpT_EEENSC_IJDpT0_EEE, symObjAddr: 0x14500, symBinAddr: 0x100018380, symSize: 0x30 }
  - { offsetInCU: 0x33C80, offset: 0x33C80, size: 0x8, addend: 0x0, symName: __ZNSt3__14pairIKNS_12basic_stringIcNS_11char_traitsIcEENS_9allocatorIcEEEEiEC1B7v160006IJRS7_EJEJLm0EEJEEENS_21piecewise_construct_tERNS_5tupleIJDpT_EEERNSC_IJDpT0_EEENS_15__tuple_indicesIJXspT1_EEEENSL_IJXspT2_EEEE, symObjAddr: 0x14530, symBinAddr: 0x1000183B0, symSize: 0x30 }
  - { offsetInCU: 0x33D10, offset: 0x33D10, size: 0x8, addend: 0x0, symName: __ZNSt3__14pairIKNS_12basic_stringIcNS_11char_traitsIcEENS_9allocatorIcEEEEiEC2B7v160006IJRS7_EJEJLm0EEJEEENS_21piecewise_construct_tERNS_5tupleIJDpT_EEERNSC_IJDpT0_EEENS_15__tuple_indicesIJXspT1_EEEENSL_IJXspT2_EEEE, symObjAddr: 0x14560, symBinAddr: 0x1000183E0, symSize: 0x50 }
  - { offsetInCU: 0x33DA0, offset: 0x33DA0, size: 0x8, addend: 0x0, symName: __ZNKSt3__117__compressed_pairIPNS_11__tree_nodeINS_12__value_typeINS_12basic_stringIcNS_11char_traitsIcEENS_9allocatorIcEEEEiEEPvEENS_22__tree_node_destructorINS6_ISB_EEEEE5firstB7v160006Ev, symObjAddr: 0x145B0, symBinAddr: 0x100018430, symSize: 0x20 }
  - { offsetInCU: 0x33DC6, offset: 0x33DC6, size: 0x8, addend: 0x0, symName: __ZNKSt3__122__compressed_pair_elemIPNS_11__tree_nodeINS_12__value_typeINS_12basic_stringIcNS_11char_traitsIcEENS_9allocatorIcEEEEiEEPvEELi0ELb0EE5__getB7v160006Ev, symObjAddr: 0x145D0, symBinAddr: 0x100018450, symSize: 0x10 }
  - { offsetInCU: 0x33DEC, offset: 0x33DEC, size: 0x8, addend: 0x0, symName: __ZNSt3__117__compressed_pairIPNS_11__tree_nodeINS_12__value_typeINS_12basic_stringIcNS_11char_traitsIcEENS_9allocatorIcEEEEiEEPvEENS_22__tree_node_destructorINS6_ISB_EEEEE6secondB7v160006Ev, symObjAddr: 0x145E0, symBinAddr: 0x100018460, symSize: 0x20 }
  - { offsetInCU: 0x33E12, offset: 0x33E12, size: 0x8, addend: 0x0, symName: __ZNSt3__122__compressed_pair_elemINS_22__tree_node_destructorINS_9allocatorINS_11__tree_nodeINS_12__value_typeINS_12basic_stringIcNS_11char_traitsIcEENS2_IcEEEEiEEPvEEEEEELi1ELb0EE5__getB7v160006Ev, symObjAddr: 0x14600, symBinAddr: 0x100018480, symSize: 0x10 }
  - { offsetInCU: 0x33E38, offset: 0x33E38, size: 0x8, addend: 0x0, symName: __ZNSt3__16__treeINS_12__value_typeINS_12basic_stringIcNS_11char_traitsIcEENS_9allocatorIcEEEEiEENS_19__map_value_compareIS7_S8_NS_4lessIS7_EELb1EEENS5_IS8_EEE12__begin_nodeB7v160006Ev, symObjAddr: 0x14610, symBinAddr: 0x100018490, symSize: 0x10 }
  - { offsetInCU: 0x33E5E, offset: 0x33E5E, size: 0x8, addend: 0x0, symName: __ZNSt3__16__treeINS_12__value_typeINS_12basic_stringIcNS_11char_traitsIcEENS_9allocatorIcEEEEiEENS_19__map_value_compareIS7_S8_NS_4lessIS7_EELb1EEENS5_IS8_EEE4sizeB7v160006Ev, symObjAddr: 0x14620, symBinAddr: 0x1000184A0, symSize: 0x20 }
  - { offsetInCU: 0x33E84, offset: 0x33E84, size: 0x8, addend: 0x0, symName: __ZNSt3__117__compressed_pairImNS_19__map_value_compareINS_12basic_stringIcNS_11char_traitsIcEENS_9allocatorIcEEEENS_12__value_typeIS7_iEENS_4lessIS7_EELb1EEEE5firstB7v160006Ev, symObjAddr: 0x14640, symBinAddr: 0x1000184C0, symSize: 0x20 }
  - { offsetInCU: 0x33EAA, offset: 0x33EAA, size: 0x8, addend: 0x0, symName: __ZNSt3__117__compressed_pairIPNS_11__tree_nodeINS_12__value_typeINS_12basic_stringIcNS_11char_traitsIcEENS_9allocatorIcEEEEiEEPvEENS_22__tree_node_destructorINS6_ISB_EEEEE5firstB7v160006Ev, symObjAddr: 0x14660, symBinAddr: 0x1000184E0, symSize: 0x20 }
  - { offsetInCU: 0x33ED0, offset: 0x33ED0, size: 0x8, addend: 0x0, symName: __ZNSt3__122__compressed_pair_elemIPNS_11__tree_nodeINS_12__value_typeINS_12basic_stringIcNS_11char_traitsIcEENS_9allocatorIcEEEEiEEPvEELi0ELb0EE5__getB7v160006Ev, symObjAddr: 0x14680, symBinAddr: 0x100018500, symSize: 0x10 }
  - { offsetInCU: 0x33EF6, offset: 0x33EF6, size: 0x8, addend: 0x0, symName: __ZNSt3__110unique_ptrINS_11__tree_nodeINS_12__value_typeINS_12basic_stringIcNS_11char_traitsIcEENS_9allocatorIcEEEEiEEPvEENS_22__tree_node_destructorINS6_ISB_EEEEED2B7v160006Ev, symObjAddr: 0x14690, symBinAddr: 0x100018510, symSize: 0x20 }
  - { offsetInCU: 0x33F20, offset: 0x33F20, size: 0x8, addend: 0x0, symName: __ZNSt3__110unique_ptrINS_11__tree_nodeINS_12__value_typeINS_12basic_stringIcNS_11char_traitsIcEENS_9allocatorIcEEEEiEEPvEENS_22__tree_node_destructorINS6_ISB_EEEEE5resetB7v160006EPSB_, symObjAddr: 0x146B0, symBinAddr: 0x100018530, symSize: 0x70 }
  - { offsetInCU: 0x33F64, offset: 0x33F64, size: 0x8, addend: 0x0, symName: __ZNSt3__122__tree_node_destructorINS_9allocatorINS_11__tree_nodeINS_12__value_typeINS_12basic_stringIcNS_11char_traitsIcEENS1_IcEEEEiEEPvEEEEEclB7v160006EPSB_, symObjAddr: 0x14720, symBinAddr: 0x1000185A0, symSize: 0x90 }
  - { offsetInCU: 0x33F99, offset: 0x33F99, size: 0x8, addend: 0x0, symName: __ZNSt3__116allocator_traitsINS_9allocatorINS_11__tree_nodeINS_12__value_typeINS_12basic_stringIcNS_11char_traitsIcEENS1_IcEEEEiEEPvEEEEE7destroyB7v160006INS_4pairIKS8_iEEvvEEvRSC_PT_, symObjAddr: 0x147B0, symBinAddr: 0x100018630, symSize: 0x20 }
  - { offsetInCU: 0x33FD4, offset: 0x33FD4, size: 0x8, addend: 0x0, symName: __ZNSt3__116allocator_traitsINS_9allocatorINS_11__tree_nodeINS_12__value_typeINS_12basic_stringIcNS_11char_traitsIcEENS1_IcEEEEiEEPvEEEEE10deallocateB7v160006ERSC_PSB_m, symObjAddr: 0x147D0, symBinAddr: 0x100018650, symSize: 0x30 }
  - { offsetInCU: 0x34016, offset: 0x34016, size: 0x8, addend: 0x0, symName: __ZNSt3__19allocatorINS_11__tree_nodeINS_12__value_typeINS_12basic_stringIcNS_11char_traitsIcEENS0_IcEEEEiEEPvEEE10deallocateB7v160006EPSA_m, symObjAddr: 0x14800, symBinAddr: 0x100018680, symSize: 0x40 }
  - { offsetInCU: 0x34058, offset: 0x34058, size: 0x8, addend: 0x0, symName: __ZNSt3__115__tree_iteratorINS_12__value_typeINS_12basic_stringIcNS_11char_traitsIcEENS_9allocatorIcEEEEiEEPNS_11__tree_nodeIS8_PvEElEC2B7v160006ESC_, symObjAddr: 0x14840, symBinAddr: 0x1000186C0, symSize: 0x20 }
  - { offsetInCU: 0x34091, offset: 0x34091, size: 0x8, addend: 0x0, symName: __ZNSt3__14pairINS_15__tree_iteratorINS_12__value_typeINS_12basic_stringIcNS_11char_traitsIcEENS_9allocatorIcEEEEiEEPNS_11__tree_nodeIS9_PvEElEEbEC2B7v160006ISE_RbLSB_0EEEOT_OT0_, symObjAddr: 0x14860, symBinAddr: 0x1000186E0, symSize: 0x30 }
  - { offsetInCU: 0x340EF, offset: 0x340EF, size: 0x8, addend: 0x0, symName: __ZNSt3__114pointer_traitsIPNS_12__value_typeINS_12basic_stringIcNS_11char_traitsIcEENS_9allocatorIcEEEEiEEE10pointer_toB7v160006ERS8_, symObjAddr: 0x14890, symBinAddr: 0x100018710, symSize: 0x10 }
  - { offsetInCU: 0x34112, offset: 0x34112, size: 0x8, addend: 0x0, symName: __ZNKSt3__115__tree_iteratorINS_12__value_typeINS_12basic_stringIcNS_11char_traitsIcEENS_9allocatorIcEEEEiEEPNS_11__tree_nodeIS8_PvEElE8__get_npB7v160006Ev, symObjAddr: 0x148A0, symBinAddr: 0x100018720, symSize: 0x20 }
  - { offsetInCU: 0x34138, offset: 0x34138, size: 0x8, addend: 0x0, symName: __ZNSt3__13setINS_4pairIiNS_12basic_stringIcNS_11char_traitsIcEENS_9allocatorIcEEEEEENS_4lessIS8_EENS5_IS8_EEEC2B7v160006Ev, symObjAddr: 0x148C0, symBinAddr: 0x100018740, symSize: 0x20 }
  - { offsetInCU: 0x34162, offset: 0x34162, size: 0x8, addend: 0x0, symName: __ZNSt3__16__treeINS_4pairIiNS_12basic_stringIcNS_11char_traitsIcEENS_9allocatorIcEEEEEENS_4lessIS8_EENS5_IS8_EEEC1ERKSA_, symObjAddr: 0x148E0, symBinAddr: 0x100018760, symSize: 0x30 }
  - { offsetInCU: 0x3419D, offset: 0x3419D, size: 0x8, addend: 0x0, symName: __ZNSt3__16__treeINS_4pairIiNS_12basic_stringIcNS_11char_traitsIcEENS_9allocatorIcEEEEEENS_4lessIS8_EENS5_IS8_EEEC2ERKSA_, symObjAddr: 0x14910, symBinAddr: 0x100018790, symSize: 0x80 }
  - { offsetInCU: 0x341D8, offset: 0x341D8, size: 0x8, addend: 0x0, symName: __ZNSt3__117__compressed_pairINS_15__tree_end_nodeIPNS_16__tree_node_baseIPvEEEENS_9allocatorINS_11__tree_nodeINS_4pairIiNS_12basic_stringIcNS_11char_traitsIcEENS7_IcEEEEEES3_EEEEEC1B7v160006ILb1EvEEv, symObjAddr: 0x14990, symBinAddr: 0x100018810, symSize: 0x20 }
  - { offsetInCU: 0x3420D, offset: 0x3420D, size: 0x8, addend: 0x0, symName: __ZNSt3__117__compressed_pairImNS_4lessINS_4pairIiNS_12basic_stringIcNS_11char_traitsIcEENS_9allocatorIcEEEEEEEEEC1B7v160006IiRKSA_EEOT_OT0_, symObjAddr: 0x149B0, symBinAddr: 0x100018830, symSize: 0x30 }
  - { offsetInCU: 0x34265, offset: 0x34265, size: 0x8, addend: 0x0, symName: __ZNSt3__16__treeINS_4pairIiNS_12basic_stringIcNS_11char_traitsIcEENS_9allocatorIcEEEEEENS_4lessIS8_EENS5_IS8_EEE10__end_nodeB7v160006Ev, symObjAddr: 0x149E0, symBinAddr: 0x100018860, symSize: 0x30 }
  - { offsetInCU: 0x3428B, offset: 0x3428B, size: 0x8, addend: 0x0, symName: __ZNSt3__16__treeINS_4pairIiNS_12basic_stringIcNS_11char_traitsIcEENS_9allocatorIcEEEEEENS_4lessIS8_EENS5_IS8_EEE12__begin_nodeB7v160006Ev, symObjAddr: 0x14A10, symBinAddr: 0x100018890, symSize: 0x10 }
  - { offsetInCU: 0x342B1, offset: 0x342B1, size: 0x8, addend: 0x0, symName: __ZNSt3__117__compressed_pairINS_15__tree_end_nodeIPNS_16__tree_node_baseIPvEEEENS_9allocatorINS_11__tree_nodeINS_4pairIiNS_12basic_stringIcNS_11char_traitsIcEENS7_IcEEEEEES3_EEEEEC2B7v160006ILb1EvEEv, symObjAddr: 0x14A20, symBinAddr: 0x1000188A0, symSize: 0x30 }
  - { offsetInCU: 0x342E6, offset: 0x342E6, size: 0x8, addend: 0x0, symName: __ZNSt3__122__compressed_pair_elemINS_9allocatorINS_11__tree_nodeINS_4pairIiNS_12basic_stringIcNS_11char_traitsIcEENS1_IcEEEEEEPvEEEELi1ELb1EEC2B7v160006ENS_16__value_init_tagE, symObjAddr: 0x14A50, symBinAddr: 0x1000188D0, symSize: 0x20 }
  - { offsetInCU: 0x3431B, offset: 0x3431B, size: 0x8, addend: 0x0, symName: __ZNSt3__19allocatorINS_11__tree_nodeINS_4pairIiNS_12basic_stringIcNS_11char_traitsIcEENS0_IcEEEEEEPvEEEC2B7v160006Ev, symObjAddr: 0x14A70, symBinAddr: 0x1000188F0, symSize: 0x20 }
  - { offsetInCU: 0x34345, offset: 0x34345, size: 0x8, addend: 0x0, symName: __ZNSt3__116__non_trivial_ifILb1ENS_9allocatorINS_11__tree_nodeINS_4pairIiNS_12basic_stringIcNS_11char_traitsIcEENS1_IcEEEEEEPvEEEEEC2B7v160006Ev, symObjAddr: 0x14A90, symBinAddr: 0x100018910, symSize: 0x10 }
  - { offsetInCU: 0x3436F, offset: 0x3436F, size: 0x8, addend: 0x0, symName: __ZNSt3__117__compressed_pairImNS_4lessINS_4pairIiNS_12basic_stringIcNS_11char_traitsIcEENS_9allocatorIcEEEEEEEEEC2B7v160006IiRKSA_EEOT_OT0_, symObjAddr: 0x14AA0, symBinAddr: 0x100018920, symSize: 0x40 }
  - { offsetInCU: 0x343C7, offset: 0x343C7, size: 0x8, addend: 0x0, symName: __ZNSt3__122__compressed_pair_elemINS_4lessINS_4pairIiNS_12basic_stringIcNS_11char_traitsIcEENS_9allocatorIcEEEEEEEELi1ELb1EEC2B7v160006IRKSA_vEEOT_, symObjAddr: 0x14AE0, symBinAddr: 0x100018960, symSize: 0x10 }
  - { offsetInCU: 0x34409, offset: 0x34409, size: 0x8, addend: 0x0, symName: __ZNSt3__117__compressed_pairINS_15__tree_end_nodeIPNS_16__tree_node_baseIPvEEEENS_9allocatorINS_11__tree_nodeINS_4pairIiNS_12basic_stringIcNS_11char_traitsIcEENS7_IcEEEEEES3_EEEEE5firstB7v160006Ev, symObjAddr: 0x14AF0, symBinAddr: 0x100018970, symSize: 0x20 }
  - { offsetInCU: 0x3442F, offset: 0x3442F, size: 0x8, addend: 0x0, symName: __ZNSt3__13setINS_4pairIiNS_12basic_stringIcNS_11char_traitsIcEENS_9allocatorIcEEEEEENS_4lessIS8_EENS5_IS8_EEED2B7v160006Ev, symObjAddr: 0x14B10, symBinAddr: 0x100018990, symSize: 0x20 }
  - { offsetInCU: 0x34459, offset: 0x34459, size: 0x8, addend: 0x0, symName: __ZNSt3__16__treeINS_4pairIiNS_12basic_stringIcNS_11char_traitsIcEENS_9allocatorIcEEEEEENS_4lessIS8_EENS5_IS8_EEED1Ev, symObjAddr: 0x14B30, symBinAddr: 0x1000189B0, symSize: 0x20 }
  - { offsetInCU: 0x34485, offset: 0x34485, size: 0x8, addend: 0x0, symName: __ZNSt3__16__treeINS_4pairIiNS_12basic_stringIcNS_11char_traitsIcEENS_9allocatorIcEEEEEENS_4lessIS8_EENS5_IS8_EEED2Ev, symObjAddr: 0x14B50, symBinAddr: 0x1000189D0, symSize: 0x30 }
  - { offsetInCU: 0x344B1, offset: 0x344B1, size: 0x8, addend: 0x0, symName: __ZNSt3__16__treeINS_4pairIiNS_12basic_stringIcNS_11char_traitsIcEENS_9allocatorIcEEEEEENS_4lessIS8_EENS5_IS8_EEE7destroyEPNS_11__tree_nodeIS8_PvEE, symObjAddr: 0x14B80, symBinAddr: 0x100018A00, symSize: 0xB0 }
  - { offsetInCU: 0x344FD, offset: 0x344FD, size: 0x8, addend: 0x0, symName: __ZNKSt3__16__treeINS_4pairIiNS_12basic_stringIcNS_11char_traitsIcEENS_9allocatorIcEEEEEENS_4lessIS8_EENS5_IS8_EEE6__rootB7v160006Ev, symObjAddr: 0x14C30, symBinAddr: 0x100018AB0, symSize: 0x20 }
  - { offsetInCU: 0x34523, offset: 0x34523, size: 0x8, addend: 0x0, symName: __ZNSt3__16__treeINS_4pairIiNS_12basic_stringIcNS_11char_traitsIcEENS_9allocatorIcEEEEEENS_4lessIS8_EENS5_IS8_EEE12__node_allocB7v160006Ev, symObjAddr: 0x14C50, symBinAddr: 0x100018AD0, symSize: 0x20 }
  - { offsetInCU: 0x34549, offset: 0x34549, size: 0x8, addend: 0x0, symName: __ZNSt3__116allocator_traitsINS_9allocatorINS_11__tree_nodeINS_4pairIiNS_12basic_stringIcNS_11char_traitsIcEENS1_IcEEEEEEPvEEEEE7destroyB7v160006IS9_vvEEvRSC_PT_, symObjAddr: 0x14C70, symBinAddr: 0x100018AF0, symSize: 0x20 }
  - { offsetInCU: 0x34584, offset: 0x34584, size: 0x8, addend: 0x0, symName: __ZNSt3__122__tree_key_value_typesINS_4pairIiNS_12basic_stringIcNS_11char_traitsIcEENS_9allocatorIcEEEEEEE9__get_ptrB7v160006ERS8_, symObjAddr: 0x14C90, symBinAddr: 0x100018B10, symSize: 0x10 }
  - { offsetInCU: 0x345A8, offset: 0x345A8, size: 0x8, addend: 0x0, symName: __ZNSt3__116allocator_traitsINS_9allocatorINS_11__tree_nodeINS_4pairIiNS_12basic_stringIcNS_11char_traitsIcEENS1_IcEEEEEEPvEEEEE10deallocateB7v160006ERSC_PSB_m, symObjAddr: 0x14CA0, symBinAddr: 0x100018B20, symSize: 0x30 }
  - { offsetInCU: 0x345EA, offset: 0x345EA, size: 0x8, addend: 0x0, symName: __ZNSt3__117__compressed_pairINS_15__tree_end_nodeIPNS_16__tree_node_baseIPvEEEENS_9allocatorINS_11__tree_nodeINS_4pairIiNS_12basic_stringIcNS_11char_traitsIcEENS7_IcEEEEEES3_EEEEE6secondB7v160006Ev, symObjAddr: 0x14CD0, symBinAddr: 0x100018B50, symSize: 0x20 }
  - { offsetInCU: 0x34610, offset: 0x34610, size: 0x8, addend: 0x0, symName: __ZNSt3__122__compressed_pair_elemINS_9allocatorINS_11__tree_nodeINS_4pairIiNS_12basic_stringIcNS_11char_traitsIcEENS1_IcEEEEEEPvEEEELi1ELb1EE5__getB7v160006Ev, symObjAddr: 0x14CF0, symBinAddr: 0x100018B70, symSize: 0x10 }
  - { offsetInCU: 0x34636, offset: 0x34636, size: 0x8, addend: 0x0, symName: __ZNSt3__19allocatorINS_11__tree_nodeINS_4pairIiNS_12basic_stringIcNS_11char_traitsIcEENS0_IcEEEEEEPvEEE10deallocateB7v160006EPSA_m, symObjAddr: 0x14D00, symBinAddr: 0x100018B80, symSize: 0x40 }
  - { offsetInCU: 0x34678, offset: 0x34678, size: 0x8, addend: 0x0, symName: __ZNKSt3__16__treeINS_4pairIiNS_12basic_stringIcNS_11char_traitsIcEENS_9allocatorIcEEEEEENS_4lessIS8_EENS5_IS8_EEE10__end_nodeB7v160006Ev, symObjAddr: 0x14D40, symBinAddr: 0x100018BC0, symSize: 0x30 }
  - { offsetInCU: 0x3469E, offset: 0x3469E, size: 0x8, addend: 0x0, symName: __ZNKSt3__117__compressed_pairINS_15__tree_end_nodeIPNS_16__tree_node_baseIPvEEEENS_9allocatorINS_11__tree_nodeINS_4pairIiNS_12basic_stringIcNS_11char_traitsIcEENS7_IcEEEEEES3_EEEEE5firstB7v160006Ev, symObjAddr: 0x14D70, symBinAddr: 0x100018BF0, symSize: 0x20 }
  - { offsetInCU: 0x346C4, offset: 0x346C4, size: 0x8, addend: 0x0, symName: __ZNSt3__16__treeINS_4pairIiNS_12basic_stringIcNS_11char_traitsIcEENS_9allocatorIcEEEEEENS_4lessIS8_EENS5_IS8_EEE15__insert_uniqueB7v160006EOS8_, symObjAddr: 0x14D90, symBinAddr: 0x100018C10, symSize: 0x50 }
  - { offsetInCU: 0x346F9, offset: 0x346F9, size: 0x8, addend: 0x0, symName: __ZNSt3__14pairINS_21__tree_const_iteratorINS0_IiNS_12basic_stringIcNS_11char_traitsIcEENS_9allocatorIcEEEEEEPNS_11__tree_nodeIS8_PvEElEEbEC1B7v160006INS_15__tree_iteratorIS8_SC_lEEbLSA_0EEEONS0_IT_T0_EE, symObjAddr: 0x14DE0, symBinAddr: 0x100018C60, symSize: 0x30 }
  - { offsetInCU: 0x3474A, offset: 0x3474A, size: 0x8, addend: 0x0, symName: __ZNSt3__16__treeINS_4pairIiNS_12basic_stringIcNS_11char_traitsIcEENS_9allocatorIcEEEEEENS_4lessIS8_EENS5_IS8_EEE25__emplace_unique_key_argsIS8_JS8_EEENS1_INS_15__tree_iteratorIS8_PNS_11__tree_nodeIS8_PvEElEEbEERKT_DpOT0_, symObjAddr: 0x14E10, symBinAddr: 0x100018C90, symSize: 0xE0 }
  - { offsetInCU: 0x347FF, offset: 0x347FF, size: 0x8, addend: 0x0, symName: __ZNSt3__122__tree_key_value_typesINS_4pairIiNS_12basic_stringIcNS_11char_traitsIcEENS_9allocatorIcEEEEEEE9__get_keyB7v160006ERKS8_, symObjAddr: 0x14EF0, symBinAddr: 0x100018D70, symSize: 0x10 }
  - { offsetInCU: 0x34823, offset: 0x34823, size: 0x8, addend: 0x0, symName: __ZNSt3__16__treeINS_4pairIiNS_12basic_stringIcNS_11char_traitsIcEENS_9allocatorIcEEEEEENS_4lessIS8_EENS5_IS8_EEE12__find_equalIS8_EERPNS_16__tree_node_baseIPvEERPNS_15__tree_end_nodeISH_EERKT_, symObjAddr: 0x14F00, symBinAddr: 0x100018D80, symSize: 0x180 }
  - { offsetInCU: 0x34890, offset: 0x34890, size: 0x8, addend: 0x0, symName: __ZNSt3__16__treeINS_4pairIiNS_12basic_stringIcNS_11char_traitsIcEENS_9allocatorIcEEEEEENS_4lessIS8_EENS5_IS8_EEE16__construct_nodeIJS8_EEENS_10unique_ptrINS_11__tree_nodeIS8_PvEENS_22__tree_node_destructorINS5_ISH_EEEEEEDpOT_, symObjAddr: 0x15080, symBinAddr: 0x100018F00, symSize: 0xF0 }
  - { offsetInCU: 0x348F1, offset: 0x348F1, size: 0x8, addend: 0x0, symName: __ZNSt3__16__treeINS_4pairIiNS_12basic_stringIcNS_11char_traitsIcEENS_9allocatorIcEEEEEENS_4lessIS8_EENS5_IS8_EEE16__insert_node_atEPNS_15__tree_end_nodeIPNS_16__tree_node_baseIPvEEEERSH_SH_, symObjAddr: 0x15170, symBinAddr: 0x100018FF0, symSize: 0xC0 }
  - { offsetInCU: 0x34946, offset: 0x34946, size: 0x8, addend: 0x0, symName: __ZNKSt3__110unique_ptrINS_11__tree_nodeINS_4pairIiNS_12basic_stringIcNS_11char_traitsIcEENS_9allocatorIcEEEEEEPvEENS_22__tree_node_destructorINS6_ISB_EEEEE3getB7v160006Ev, symObjAddr: 0x15230, symBinAddr: 0x1000190B0, symSize: 0x20 }
  - { offsetInCU: 0x3496C, offset: 0x3496C, size: 0x8, addend: 0x0, symName: __ZNSt3__110unique_ptrINS_11__tree_nodeINS_4pairIiNS_12basic_stringIcNS_11char_traitsIcEENS_9allocatorIcEEEEEEPvEENS_22__tree_node_destructorINS6_ISB_EEEEE7releaseB7v160006Ev, symObjAddr: 0x15250, symBinAddr: 0x1000190D0, symSize: 0x40 }
  - { offsetInCU: 0x349A1, offset: 0x349A1, size: 0x8, addend: 0x0, symName: __ZNSt3__110unique_ptrINS_11__tree_nodeINS_4pairIiNS_12basic_stringIcNS_11char_traitsIcEENS_9allocatorIcEEEEEEPvEENS_22__tree_node_destructorINS6_ISB_EEEEED1B7v160006Ev, symObjAddr: 0x15290, symBinAddr: 0x100019110, symSize: 0x20 }
  - { offsetInCU: 0x349CB, offset: 0x349CB, size: 0x8, addend: 0x0, symName: __ZNSt3__115__tree_iteratorINS_4pairIiNS_12basic_stringIcNS_11char_traitsIcEENS_9allocatorIcEEEEEEPNS_11__tree_nodeIS8_PvEElEC1B7v160006ESC_, symObjAddr: 0x152B0, symBinAddr: 0x100019130, symSize: 0x30 }
  - { offsetInCU: 0x34A09, offset: 0x34A09, size: 0x8, addend: 0x0, symName: __ZNSt3__14pairINS_15__tree_iteratorINS0_IiNS_12basic_stringIcNS_11char_traitsIcEENS_9allocatorIcEEEEEEPNS_11__tree_nodeIS8_PvEElEEbEC1B7v160006ISD_RbLSA_0EEEOT_OT0_, symObjAddr: 0x152E0, symBinAddr: 0x100019160, symSize: 0x30 }
  - { offsetInCU: 0x34A67, offset: 0x34A67, size: 0x8, addend: 0x0, symName: __ZNKSt3__16__treeINS_4pairIiNS_12basic_stringIcNS_11char_traitsIcEENS_9allocatorIcEEEEEENS_4lessIS8_EENS5_IS8_EEE10__root_ptrEv, symObjAddr: 0x15310, symBinAddr: 0x100019190, symSize: 0x20 }
  - { offsetInCU: 0x34A8D, offset: 0x34A8D, size: 0x8, addend: 0x0, symName: __ZNSt3__16__treeINS_4pairIiNS_12basic_stringIcNS_11char_traitsIcEENS_9allocatorIcEEEEEENS_4lessIS8_EENS5_IS8_EEE10value_compB7v160006Ev, symObjAddr: 0x15330, symBinAddr: 0x1000191B0, symSize: 0x20 }
  - { offsetInCU: 0x34AB3, offset: 0x34AB3, size: 0x8, addend: 0x0, symName: __ZNKSt3__14lessINS_4pairIiNS_12basic_stringIcNS_11char_traitsIcEENS_9allocatorIcEEEEEEEclB7v160006ERKS8_SB_, symObjAddr: 0x15350, symBinAddr: 0x1000191D0, symSize: 0x30 }
  - { offsetInCU: 0x34AF7, offset: 0x34AF7, size: 0x8, addend: 0x0, symName: __ZNSt3__117__compressed_pairImNS_4lessINS_4pairIiNS_12basic_stringIcNS_11char_traitsIcEENS_9allocatorIcEEEEEEEEE6secondB7v160006Ev, symObjAddr: 0x15380, symBinAddr: 0x100019200, symSize: 0x20 }
  - { offsetInCU: 0x34B1D, offset: 0x34B1D, size: 0x8, addend: 0x0, symName: __ZNSt3__122__compressed_pair_elemINS_4lessINS_4pairIiNS_12basic_stringIcNS_11char_traitsIcEENS_9allocatorIcEEEEEEEELi1ELb1EE5__getB7v160006Ev, symObjAddr: 0x153A0, symBinAddr: 0x100019220, symSize: 0x10 }
  - { offsetInCU: 0x34B43, offset: 0x34B43, size: 0x8, addend: 0x0, symName: __ZNSt3__116allocator_traitsINS_9allocatorINS_11__tree_nodeINS_4pairIiNS_12basic_stringIcNS_11char_traitsIcEENS1_IcEEEEEEPvEEEEE8allocateB7v160006ERSC_m, symObjAddr: 0x15420, symBinAddr: 0x1000192A0, symSize: 0x30 }
  - { offsetInCU: 0x34B76, offset: 0x34B76, size: 0x8, addend: 0x0, symName: __ZNSt3__122__tree_node_destructorINS_9allocatorINS_11__tree_nodeINS_4pairIiNS_12basic_stringIcNS_11char_traitsIcEENS1_IcEEEEEEPvEEEEEC1B7v160006ERSC_b, symObjAddr: 0x15450, symBinAddr: 0x1000192D0, symSize: 0x40 }
  - { offsetInCU: 0x34BC3, offset: 0x34BC3, size: 0x8, addend: 0x0, symName: __ZNSt3__110unique_ptrINS_11__tree_nodeINS_4pairIiNS_12basic_stringIcNS_11char_traitsIcEENS_9allocatorIcEEEEEEPvEENS_22__tree_node_destructorINS6_ISB_EEEEEC1B7v160006ILb1EvEEPSB_NS_16__dependent_typeINS_27__unique_ptr_deleter_sfinaeISE_EEXT_EE20__good_rval_ref_typeE, symObjAddr: 0x15490, symBinAddr: 0x100019310, symSize: 0x30 }
  - { offsetInCU: 0x34C14, offset: 0x34C14, size: 0x8, addend: 0x0, symName: __ZNSt3__116allocator_traitsINS_9allocatorINS_11__tree_nodeINS_4pairIiNS_12basic_stringIcNS_11char_traitsIcEENS1_IcEEEEEEPvEEEEE9constructB7v160006IS9_JS9_EvEEvRSC_PT_DpOT0_, symObjAddr: 0x154C0, symBinAddr: 0x100019340, symSize: 0x30 }
  - { offsetInCU: 0x34C6B, offset: 0x34C6B, size: 0x8, addend: 0x0, symName: __ZNKSt3__110unique_ptrINS_11__tree_nodeINS_4pairIiNS_12basic_stringIcNS_11char_traitsIcEENS_9allocatorIcEEEEEEPvEENS_22__tree_node_destructorINS6_ISB_EEEEEptB7v160006Ev, symObjAddr: 0x154F0, symBinAddr: 0x100019370, symSize: 0x20 }
  - { offsetInCU: 0x34C91, offset: 0x34C91, size: 0x8, addend: 0x0, symName: __ZNSt3__110unique_ptrINS_11__tree_nodeINS_4pairIiNS_12basic_stringIcNS_11char_traitsIcEENS_9allocatorIcEEEEEEPvEENS_22__tree_node_destructorINS6_ISB_EEEEE11get_deleterB7v160006Ev, symObjAddr: 0x15510, symBinAddr: 0x100019390, symSize: 0x20 }
  - { offsetInCU: 0x34CB7, offset: 0x34CB7, size: 0x8, addend: 0x0, symName: __ZNSt3__19allocatorINS_11__tree_nodeINS_4pairIiNS_12basic_stringIcNS_11char_traitsIcEENS0_IcEEEEEEPvEEE8allocateB7v160006Em, symObjAddr: 0x15530, symBinAddr: 0x1000193B0, symSize: 0x50 }
  - { offsetInCU: 0x34CF5, offset: 0x34CF5, size: 0x8, addend: 0x0, symName: __ZNSt3__116allocator_traitsINS_9allocatorINS_11__tree_nodeINS_4pairIiNS_12basic_stringIcNS_11char_traitsIcEENS1_IcEEEEEEPvEEEEE8max_sizeB7v160006ISC_vEEmRKSC_, symObjAddr: 0x15580, symBinAddr: 0x100019400, symSize: 0x20 }
  - { offsetInCU: 0x34D23, offset: 0x34D23, size: 0x8, addend: 0x0, symName: __ZNKSt3__19allocatorINS_11__tree_nodeINS_4pairIiNS_12basic_stringIcNS_11char_traitsIcEENS0_IcEEEEEEPvEEE8max_sizeB7v160006Ev, symObjAddr: 0x155A0, symBinAddr: 0x100019420, symSize: 0x20 }
  - { offsetInCU: 0x34D49, offset: 0x34D49, size: 0x8, addend: 0x0, symName: __ZNSt3__122__tree_node_destructorINS_9allocatorINS_11__tree_nodeINS_4pairIiNS_12basic_stringIcNS_11char_traitsIcEENS1_IcEEEEEEPvEEEEEC2B7v160006ERSC_b, symObjAddr: 0x155C0, symBinAddr: 0x100019440, symSize: 0x30 }
  - { offsetInCU: 0x34D91, offset: 0x34D91, size: 0x8, addend: 0x0, symName: __ZNSt3__110unique_ptrINS_11__tree_nodeINS_4pairIiNS_12basic_stringIcNS_11char_traitsIcEENS_9allocatorIcEEEEEEPvEENS_22__tree_node_destructorINS6_ISB_EEEEEC2B7v160006ILb1EvEEPSB_NS_16__dependent_typeINS_27__unique_ptr_deleter_sfinaeISE_EEXT_EE20__good_rval_ref_typeE, symObjAddr: 0x155F0, symBinAddr: 0x100019470, symSize: 0x40 }
  - { offsetInCU: 0x34DE2, offset: 0x34DE2, size: 0x8, addend: 0x0, symName: __ZNSt3__117__compressed_pairIPNS_11__tree_nodeINS_4pairIiNS_12basic_stringIcNS_11char_traitsIcEENS_9allocatorIcEEEEEEPvEENS_22__tree_node_destructorINS6_ISB_EEEEEC1B7v160006IRSC_SF_EEOT_OT0_, symObjAddr: 0x15630, symBinAddr: 0x1000194B0, symSize: 0x30 }
  - { offsetInCU: 0x34E3A, offset: 0x34E3A, size: 0x8, addend: 0x0, symName: __ZNSt3__117__compressed_pairIPNS_11__tree_nodeINS_4pairIiNS_12basic_stringIcNS_11char_traitsIcEENS_9allocatorIcEEEEEEPvEENS_22__tree_node_destructorINS6_ISB_EEEEEC2B7v160006IRSC_SF_EEOT_OT0_, symObjAddr: 0x15660, symBinAddr: 0x1000194E0, symSize: 0x40 }
  - { offsetInCU: 0x34E92, offset: 0x34E92, size: 0x8, addend: 0x0, symName: __ZNSt3__122__compressed_pair_elemIPNS_11__tree_nodeINS_4pairIiNS_12basic_stringIcNS_11char_traitsIcEENS_9allocatorIcEEEEEEPvEELi0ELb0EEC2B7v160006IRSC_vEEOT_, symObjAddr: 0x156A0, symBinAddr: 0x100019520, symSize: 0x20 }
  - { offsetInCU: 0x34ED4, offset: 0x34ED4, size: 0x8, addend: 0x0, symName: __ZNSt3__122__compressed_pair_elemINS_22__tree_node_destructorINS_9allocatorINS_11__tree_nodeINS_4pairIiNS_12basic_stringIcNS_11char_traitsIcEENS2_IcEEEEEEPvEEEEEELi1ELb0EEC2B7v160006ISE_vEEOT_, symObjAddr: 0x156C0, symBinAddr: 0x100019540, symSize: 0x30 }
  - { offsetInCU: 0x34F16, offset: 0x34F16, size: 0x8, addend: 0x0, symName: __ZNSt3__19allocatorINS_11__tree_nodeINS_4pairIiNS_12basic_stringIcNS_11char_traitsIcEENS0_IcEEEEEEPvEEE9constructB7v160006IS8_JS8_EEEvPT_DpOT0_, symObjAddr: 0x156F0, symBinAddr: 0x100019570, symSize: 0x30 }
  - { offsetInCU: 0x34F6C, offset: 0x34F6C, size: 0x8, addend: 0x0, symName: __ZNSt3__14pairIiNS_12basic_stringIcNS_11char_traitsIcEENS_9allocatorIcEEEEEC1EOS7_, symObjAddr: 0x15720, symBinAddr: 0x1000195A0, symSize: 0x30 }
  - { offsetInCU: 0x34FA1, offset: 0x34FA1, size: 0x8, addend: 0x0, symName: __ZNSt3__14pairIiNS_12basic_stringIcNS_11char_traitsIcEENS_9allocatorIcEEEEEC2EOS7_, symObjAddr: 0x15750, symBinAddr: 0x1000195D0, symSize: 0x40 }
  - { offsetInCU: 0x34FD6, offset: 0x34FD6, size: 0x8, addend: 0x0, symName: __ZNKSt3__117__compressed_pairIPNS_11__tree_nodeINS_4pairIiNS_12basic_stringIcNS_11char_traitsIcEENS_9allocatorIcEEEEEEPvEENS_22__tree_node_destructorINS6_ISB_EEEEE5firstB7v160006Ev, symObjAddr: 0x15790, symBinAddr: 0x100019610, symSize: 0x20 }
  - { offsetInCU: 0x34FFC, offset: 0x34FFC, size: 0x8, addend: 0x0, symName: __ZNKSt3__122__compressed_pair_elemIPNS_11__tree_nodeINS_4pairIiNS_12basic_stringIcNS_11char_traitsIcEENS_9allocatorIcEEEEEEPvEELi0ELb0EE5__getB7v160006Ev, symObjAddr: 0x157B0, symBinAddr: 0x100019630, symSize: 0x10 }
  - { offsetInCU: 0x35022, offset: 0x35022, size: 0x8, addend: 0x0, symName: __ZNSt3__117__compressed_pairIPNS_11__tree_nodeINS_4pairIiNS_12basic_stringIcNS_11char_traitsIcEENS_9allocatorIcEEEEEEPvEENS_22__tree_node_destructorINS6_ISB_EEEEE6secondB7v160006Ev, symObjAddr: 0x157C0, symBinAddr: 0x100019640, symSize: 0x20 }
  - { offsetInCU: 0x35048, offset: 0x35048, size: 0x8, addend: 0x0, symName: __ZNSt3__122__compressed_pair_elemINS_22__tree_node_destructorINS_9allocatorINS_11__tree_nodeINS_4pairIiNS_12basic_stringIcNS_11char_traitsIcEENS2_IcEEEEEEPvEEEEEELi1ELb0EE5__getB7v160006Ev, symObjAddr: 0x157E0, symBinAddr: 0x100019660, symSize: 0x10 }
  - { offsetInCU: 0x3506E, offset: 0x3506E, size: 0x8, addend: 0x0, symName: __ZNSt3__16__treeINS_4pairIiNS_12basic_stringIcNS_11char_traitsIcEENS_9allocatorIcEEEEEENS_4lessIS8_EENS5_IS8_EEE4sizeB7v160006Ev, symObjAddr: 0x157F0, symBinAddr: 0x100019670, symSize: 0x20 }
  - { offsetInCU: 0x35094, offset: 0x35094, size: 0x8, addend: 0x0, symName: __ZNSt3__117__compressed_pairImNS_4lessINS_4pairIiNS_12basic_stringIcNS_11char_traitsIcEENS_9allocatorIcEEEEEEEEE5firstB7v160006Ev, symObjAddr: 0x15810, symBinAddr: 0x100019690, symSize: 0x20 }
  - { offsetInCU: 0x350BA, offset: 0x350BA, size: 0x8, addend: 0x0, symName: __ZNSt3__117__compressed_pairIPNS_11__tree_nodeINS_4pairIiNS_12basic_stringIcNS_11char_traitsIcEENS_9allocatorIcEEEEEEPvEENS_22__tree_node_destructorINS6_ISB_EEEEE5firstB7v160006Ev, symObjAddr: 0x15830, symBinAddr: 0x1000196B0, symSize: 0x20 }
  - { offsetInCU: 0x350E0, offset: 0x350E0, size: 0x8, addend: 0x0, symName: __ZNSt3__122__compressed_pair_elemIPNS_11__tree_nodeINS_4pairIiNS_12basic_stringIcNS_11char_traitsIcEENS_9allocatorIcEEEEEEPvEELi0ELb0EE5__getB7v160006Ev, symObjAddr: 0x15850, symBinAddr: 0x1000196D0, symSize: 0x10 }
  - { offsetInCU: 0x35106, offset: 0x35106, size: 0x8, addend: 0x0, symName: __ZNSt3__110unique_ptrINS_11__tree_nodeINS_4pairIiNS_12basic_stringIcNS_11char_traitsIcEENS_9allocatorIcEEEEEEPvEENS_22__tree_node_destructorINS6_ISB_EEEEED2B7v160006Ev, symObjAddr: 0x15860, symBinAddr: 0x1000196E0, symSize: 0x20 }
  - { offsetInCU: 0x35130, offset: 0x35130, size: 0x8, addend: 0x0, symName: __ZNSt3__110unique_ptrINS_11__tree_nodeINS_4pairIiNS_12basic_stringIcNS_11char_traitsIcEENS_9allocatorIcEEEEEEPvEENS_22__tree_node_destructorINS6_ISB_EEEEE5resetB7v160006EPSB_, symObjAddr: 0x15880, symBinAddr: 0x100019700, symSize: 0x70 }
  - { offsetInCU: 0x35174, offset: 0x35174, size: 0x8, addend: 0x0, symName: __ZNSt3__122__tree_node_destructorINS_9allocatorINS_11__tree_nodeINS_4pairIiNS_12basic_stringIcNS_11char_traitsIcEENS1_IcEEEEEEPvEEEEEclB7v160006EPSB_, symObjAddr: 0x158F0, symBinAddr: 0x100019770, symSize: 0x70 }
  - { offsetInCU: 0x351A9, offset: 0x351A9, size: 0x8, addend: 0x0, symName: __ZNSt3__115__tree_iteratorINS_4pairIiNS_12basic_stringIcNS_11char_traitsIcEENS_9allocatorIcEEEEEEPNS_11__tree_nodeIS8_PvEElEC2B7v160006ESC_, symObjAddr: 0x15960, symBinAddr: 0x1000197E0, symSize: 0x20 }
  - { offsetInCU: 0x351E2, offset: 0x351E2, size: 0x8, addend: 0x0, symName: __ZNSt3__14pairINS_15__tree_iteratorINS0_IiNS_12basic_stringIcNS_11char_traitsIcEENS_9allocatorIcEEEEEEPNS_11__tree_nodeIS8_PvEElEEbEC2B7v160006ISD_RbLSA_0EEEOT_OT0_, symObjAddr: 0x15980, symBinAddr: 0x100019800, symSize: 0x30 }
  - { offsetInCU: 0x35240, offset: 0x35240, size: 0x8, addend: 0x0, symName: __ZNSt3__14pairINS_21__tree_const_iteratorINS0_IiNS_12basic_stringIcNS_11char_traitsIcEENS_9allocatorIcEEEEEEPNS_11__tree_nodeIS8_PvEElEEbEC2B7v160006INS_15__tree_iteratorIS8_SC_lEEbLSA_0EEEONS0_IT_T0_EE, symObjAddr: 0x159B0, symBinAddr: 0x100019830, symSize: 0x50 }
  - { offsetInCU: 0x35291, offset: 0x35291, size: 0x8, addend: 0x0, symName: __ZNSt3__121__tree_const_iteratorINS_4pairIiNS_12basic_stringIcNS_11char_traitsIcEENS_9allocatorIcEEEEEEPNS_11__tree_nodeIS8_PvEElEC1B7v160006ENS_15__tree_iteratorIS8_SC_lEE, symObjAddr: 0x15A00, symBinAddr: 0x100019880, symSize: 0x30 }
  - { offsetInCU: 0x352CA, offset: 0x352CA, size: 0x8, addend: 0x0, symName: __ZNSt3__121__tree_const_iteratorINS_4pairIiNS_12basic_stringIcNS_11char_traitsIcEENS_9allocatorIcEEEEEEPNS_11__tree_nodeIS8_PvEElEC2B7v160006ENS_15__tree_iteratorIS8_SC_lEE, symObjAddr: 0x15A30, symBinAddr: 0x1000198B0, symSize: 0x20 }
  - { offsetInCU: 0x35303, offset: 0x35303, size: 0x8, addend: 0x0, symName: __ZNSt3__16__treeINS_12__value_typeINS_12basic_stringIcNS_11char_traitsIcEENS_9allocatorIcEEEES7_EENS_19__map_value_compareIS7_S8_NS_4lessIS7_EELb1EEENS5_IS8_EEE25__emplace_unique_key_argsIS7_JRKNS_21piecewise_construct_tENS_5tupleIJRKS7_EEENSJ_IJEEEEEENS_4pairINS_15__tree_iteratorIS8_PNS_11__tree_nodeIS8_PvEElEEbEERKT_DpOT0_, symObjAddr: 0x15A50, symBinAddr: 0x1000198D0, symSize: 0x100 }
  - { offsetInCU: 0x353E2, offset: 0x353E2, size: 0x8, addend: 0x0, symName: __ZNKSt3__115__tree_iteratorINS_12__value_typeINS_12basic_stringIcNS_11char_traitsIcEENS_9allocatorIcEEEES7_EEPNS_11__tree_nodeIS8_PvEElEptB7v160006Ev, symObjAddr: 0x15B50, symBinAddr: 0x1000199D0, symSize: 0x30 }
  - { offsetInCU: 0x35408, offset: 0x35408, size: 0x8, addend: 0x0, symName: __ZNSt3__112__value_typeINS_12basic_stringIcNS_11char_traitsIcEENS_9allocatorIcEEEES6_E11__get_valueB7v160006Ev, symObjAddr: 0x15B80, symBinAddr: 0x100019A00, symSize: 0x10 }
  - { offsetInCU: 0x3542E, offset: 0x3542E, size: 0x8, addend: 0x0, symName: __ZNSt3__16__treeINS_12__value_typeINS_12basic_stringIcNS_11char_traitsIcEENS_9allocatorIcEEEES7_EENS_19__map_value_compareIS7_S8_NS_4lessIS7_EELb1EEENS5_IS8_EEE12__find_equalIS7_EERPNS_16__tree_node_baseIPvEERPNS_15__tree_end_nodeISJ_EERKT_, symObjAddr: 0x15B90, symBinAddr: 0x100019A10, symSize: 0x180 }
  - { offsetInCU: 0x3549B, offset: 0x3549B, size: 0x8, addend: 0x0, symName: __ZNSt3__16__treeINS_12__value_typeINS_12basic_stringIcNS_11char_traitsIcEENS_9allocatorIcEEEES7_EENS_19__map_value_compareIS7_S8_NS_4lessIS7_EELb1EEENS5_IS8_EEE16__construct_nodeIJRKNS_21piecewise_construct_tENS_5tupleIJRKS7_EEENSJ_IJEEEEEENS_10unique_ptrINS_11__tree_nodeIS8_PvEENS_22__tree_node_destructorINS5_ISR_EEEEEEDpOT_, symObjAddr: 0x15D10, symBinAddr: 0x100019B90, symSize: 0x120 }
  - { offsetInCU: 0x35524, offset: 0x35524, size: 0x8, addend: 0x0, symName: __ZNSt3__16__treeINS_12__value_typeINS_12basic_stringIcNS_11char_traitsIcEENS_9allocatorIcEEEES7_EENS_19__map_value_compareIS7_S8_NS_4lessIS7_EELb1EEENS5_IS8_EEE16__insert_node_atEPNS_15__tree_end_nodeIPNS_16__tree_node_baseIPvEEEERSJ_SJ_, symObjAddr: 0x15E30, symBinAddr: 0x100019CB0, symSize: 0xC0 }
  - { offsetInCU: 0x35579, offset: 0x35579, size: 0x8, addend: 0x0, symName: __ZNKSt3__110unique_ptrINS_11__tree_nodeINS_12__value_typeINS_12basic_stringIcNS_11char_traitsIcEENS_9allocatorIcEEEES8_EEPvEENS_22__tree_node_destructorINS6_ISB_EEEEE3getB7v160006Ev, symObjAddr: 0x15EF0, symBinAddr: 0x100019D70, symSize: 0x20 }
  - { offsetInCU: 0x3559F, offset: 0x3559F, size: 0x8, addend: 0x0, symName: __ZNSt3__110unique_ptrINS_11__tree_nodeINS_12__value_typeINS_12basic_stringIcNS_11char_traitsIcEENS_9allocatorIcEEEES8_EEPvEENS_22__tree_node_destructorINS6_ISB_EEEEE7releaseB7v160006Ev, symObjAddr: 0x15F10, symBinAddr: 0x100019D90, symSize: 0x40 }
  - { offsetInCU: 0x355D4, offset: 0x355D4, size: 0x8, addend: 0x0, symName: __ZNSt3__110unique_ptrINS_11__tree_nodeINS_12__value_typeINS_12basic_stringIcNS_11char_traitsIcEENS_9allocatorIcEEEES8_EEPvEENS_22__tree_node_destructorINS6_ISB_EEEEED1B7v160006Ev, symObjAddr: 0x15F50, symBinAddr: 0x100019DD0, symSize: 0x20 }
  - { offsetInCU: 0x355FE, offset: 0x355FE, size: 0x8, addend: 0x0, symName: __ZNSt3__115__tree_iteratorINS_12__value_typeINS_12basic_stringIcNS_11char_traitsIcEENS_9allocatorIcEEEES7_EEPNS_11__tree_nodeIS8_PvEElEC1B7v160006ESC_, symObjAddr: 0x15F70, symBinAddr: 0x100019DF0, symSize: 0x30 }
  - { offsetInCU: 0x3563C, offset: 0x3563C, size: 0x8, addend: 0x0, symName: __ZNSt3__14pairINS_15__tree_iteratorINS_12__value_typeINS_12basic_stringIcNS_11char_traitsIcEENS_9allocatorIcEEEES8_EEPNS_11__tree_nodeIS9_PvEElEEbEC1B7v160006ISE_RbLSB_0EEEOT_OT0_, symObjAddr: 0x15FA0, symBinAddr: 0x100019E20, symSize: 0x30 }
  - { offsetInCU: 0x3569A, offset: 0x3569A, size: 0x8, addend: 0x0, symName: __ZNKSt3__16__treeINS_12__value_typeINS_12basic_stringIcNS_11char_traitsIcEENS_9allocatorIcEEEES7_EENS_19__map_value_compareIS7_S8_NS_4lessIS7_EELb1EEENS5_IS8_EEE6__rootB7v160006Ev, symObjAddr: 0x15FD0, symBinAddr: 0x100019E50, symSize: 0x20 }
  - { offsetInCU: 0x356C0, offset: 0x356C0, size: 0x8, addend: 0x0, symName: __ZNKSt3__16__treeINS_12__value_typeINS_12basic_stringIcNS_11char_traitsIcEENS_9allocatorIcEEEES7_EENS_19__map_value_compareIS7_S8_NS_4lessIS7_EELb1EEENS5_IS8_EEE10__root_ptrEv, symObjAddr: 0x15FF0, symBinAddr: 0x100019E70, symSize: 0x20 }
  - { offsetInCU: 0x356E6, offset: 0x356E6, size: 0x8, addend: 0x0, symName: __ZNSt3__16__treeINS_12__value_typeINS_12basic_stringIcNS_11char_traitsIcEENS_9allocatorIcEEEES7_EENS_19__map_value_compareIS7_S8_NS_4lessIS7_EELb1EEENS5_IS8_EEE10value_compB7v160006Ev, symObjAddr: 0x16010, symBinAddr: 0x100019E90, symSize: 0x20 }
  - { offsetInCU: 0x3570C, offset: 0x3570C, size: 0x8, addend: 0x0, symName: __ZNKSt3__119__map_value_compareINS_12basic_stringIcNS_11char_traitsIcEENS_9allocatorIcEEEENS_12__value_typeIS6_S6_EENS_4lessIS6_EELb1EEclB7v160006ERKS6_RKS8_, symObjAddr: 0x16030, symBinAddr: 0x100019EB0, symSize: 0x50 }
  - { offsetInCU: 0x35750, offset: 0x35750, size: 0x8, addend: 0x0, symName: __ZNKSt3__119__map_value_compareINS_12basic_stringIcNS_11char_traitsIcEENS_9allocatorIcEEEENS_12__value_typeIS6_S6_EENS_4lessIS6_EELb1EEclB7v160006ERKS8_RKS6_, symObjAddr: 0x16080, symBinAddr: 0x100019F00, symSize: 0x40 }
  - { offsetInCU: 0x35794, offset: 0x35794, size: 0x8, addend: 0x0, symName: __ZNSt3__16__treeINS_12__value_typeINS_12basic_stringIcNS_11char_traitsIcEENS_9allocatorIcEEEES7_EENS_19__map_value_compareIS7_S8_NS_4lessIS7_EELb1EEENS5_IS8_EEE10__end_nodeB7v160006Ev, symObjAddr: 0x160C0, symBinAddr: 0x100019F40, symSize: 0x30 }
  - { offsetInCU: 0x357BA, offset: 0x357BA, size: 0x8, addend: 0x0, symName: __ZNKSt3__16__treeINS_12__value_typeINS_12basic_stringIcNS_11char_traitsIcEENS_9allocatorIcEEEES7_EENS_19__map_value_compareIS7_S8_NS_4lessIS7_EELb1EEENS5_IS8_EEE10__end_nodeB7v160006Ev, symObjAddr: 0x160F0, symBinAddr: 0x100019F70, symSize: 0x30 }
  - { offsetInCU: 0x357E0, offset: 0x357E0, size: 0x8, addend: 0x0, symName: __ZNKSt3__117__compressed_pairINS_15__tree_end_nodeIPNS_16__tree_node_baseIPvEEEENS_9allocatorINS_11__tree_nodeINS_12__value_typeINS_12basic_stringIcNS_11char_traitsIcEENS7_IcEEEESE_EES3_EEEEE5firstB7v160006Ev, symObjAddr: 0x16120, symBinAddr: 0x100019FA0, symSize: 0x20 }
  - { offsetInCU: 0x35806, offset: 0x35806, size: 0x8, addend: 0x0, symName: __ZNSt3__117__compressed_pairImNS_19__map_value_compareINS_12basic_stringIcNS_11char_traitsIcEENS_9allocatorIcEEEENS_12__value_typeIS7_S7_EENS_4lessIS7_EELb1EEEE6secondB7v160006Ev, symObjAddr: 0x16140, symBinAddr: 0x100019FC0, symSize: 0x20 }
  - { offsetInCU: 0x3582C, offset: 0x3582C, size: 0x8, addend: 0x0, symName: __ZNSt3__122__compressed_pair_elemINS_19__map_value_compareINS_12basic_stringIcNS_11char_traitsIcEENS_9allocatorIcEEEENS_12__value_typeIS7_S7_EENS_4lessIS7_EELb1EEELi1ELb1EE5__getB7v160006Ev, symObjAddr: 0x16160, symBinAddr: 0x100019FE0, symSize: 0x10 }
  - { offsetInCU: 0x35852, offset: 0x35852, size: 0x8, addend: 0x0, symName: __ZNKSt3__112__value_typeINS_12basic_stringIcNS_11char_traitsIcEENS_9allocatorIcEEEES6_E11__get_valueB7v160006Ev, symObjAddr: 0x16170, symBinAddr: 0x100019FF0, symSize: 0x10 }
  - { offsetInCU: 0x35878, offset: 0x35878, size: 0x8, addend: 0x0, symName: __ZNSt3__117__compressed_pairINS_15__tree_end_nodeIPNS_16__tree_node_baseIPvEEEENS_9allocatorINS_11__tree_nodeINS_12__value_typeINS_12basic_stringIcNS_11char_traitsIcEENS7_IcEEEESE_EES3_EEEEE5firstB7v160006Ev, symObjAddr: 0x16180, symBinAddr: 0x10001A000, symSize: 0x20 }
  - { offsetInCU: 0x3589E, offset: 0x3589E, size: 0x8, addend: 0x0, symName: __ZNSt3__16__treeINS_12__value_typeINS_12basic_stringIcNS_11char_traitsIcEENS_9allocatorIcEEEES7_EENS_19__map_value_compareIS7_S8_NS_4lessIS7_EELb1EEENS5_IS8_EEE12__node_allocB7v160006Ev, symObjAddr: 0x161A0, symBinAddr: 0x10001A020, symSize: 0x20 }
  - { offsetInCU: 0x358C4, offset: 0x358C4, size: 0x8, addend: 0x0, symName: __ZNSt3__116allocator_traitsINS_9allocatorINS_11__tree_nodeINS_12__value_typeINS_12basic_stringIcNS_11char_traitsIcEENS1_IcEEEES8_EEPvEEEEE8allocateB7v160006ERSC_m, symObjAddr: 0x161C0, symBinAddr: 0x10001A040, symSize: 0x30 }
  - { offsetInCU: 0x358F7, offset: 0x358F7, size: 0x8, addend: 0x0, symName: __ZNSt3__122__tree_node_destructorINS_9allocatorINS_11__tree_nodeINS_12__value_typeINS_12basic_stringIcNS_11char_traitsIcEENS1_IcEEEES8_EEPvEEEEEC1B7v160006ERSC_b, symObjAddr: 0x161F0, symBinAddr: 0x10001A070, symSize: 0x40 }
  - { offsetInCU: 0x35944, offset: 0x35944, size: 0x8, addend: 0x0, symName: __ZNSt3__110unique_ptrINS_11__tree_nodeINS_12__value_typeINS_12basic_stringIcNS_11char_traitsIcEENS_9allocatorIcEEEES8_EEPvEENS_22__tree_node_destructorINS6_ISB_EEEEEC1B7v160006ILb1EvEEPSB_NS_16__dependent_typeINS_27__unique_ptr_deleter_sfinaeISE_EEXT_EE20__good_rval_ref_typeE, symObjAddr: 0x16230, symBinAddr: 0x10001A0B0, symSize: 0x30 }
  - { offsetInCU: 0x35995, offset: 0x35995, size: 0x8, addend: 0x0, symName: __ZNSt3__116allocator_traitsINS_9allocatorINS_11__tree_nodeINS_12__value_typeINS_12basic_stringIcNS_11char_traitsIcEENS1_IcEEEES8_EEPvEEEEE9constructB7v160006INS_4pairIKS8_S8_EEJRKNS_21piecewise_construct_tENS_5tupleIJRSG_EEENSL_IJEEEEvEEvRSC_PT_DpOT0_, symObjAddr: 0x16260, symBinAddr: 0x10001A0E0, symSize: 0x40 }
  - { offsetInCU: 0x35A14, offset: 0x35A14, size: 0x8, addend: 0x0, symName: __ZNSt3__122__tree_key_value_typesINS_12__value_typeINS_12basic_stringIcNS_11char_traitsIcEENS_9allocatorIcEEEES7_EEE9__get_ptrB7v160006ERS8_, symObjAddr: 0x162A0, symBinAddr: 0x10001A120, symSize: 0x20 }
  - { offsetInCU: 0x35A38, offset: 0x35A38, size: 0x8, addend: 0x0, symName: __ZNKSt3__110unique_ptrINS_11__tree_nodeINS_12__value_typeINS_12basic_stringIcNS_11char_traitsIcEENS_9allocatorIcEEEES8_EEPvEENS_22__tree_node_destructorINS6_ISB_EEEEEptB7v160006Ev, symObjAddr: 0x162C0, symBinAddr: 0x10001A140, symSize: 0x20 }
  - { offsetInCU: 0x35A5E, offset: 0x35A5E, size: 0x8, addend: 0x0, symName: __ZNSt3__110unique_ptrINS_11__tree_nodeINS_12__value_typeINS_12basic_stringIcNS_11char_traitsIcEENS_9allocatorIcEEEES8_EEPvEENS_22__tree_node_destructorINS6_ISB_EEEEE11get_deleterB7v160006Ev, symObjAddr: 0x162E0, symBinAddr: 0x10001A160, symSize: 0x20 }
  - { offsetInCU: 0x35A84, offset: 0x35A84, size: 0x8, addend: 0x0, symName: __ZNSt3__117__compressed_pairINS_15__tree_end_nodeIPNS_16__tree_node_baseIPvEEEENS_9allocatorINS_11__tree_nodeINS_12__value_typeINS_12basic_stringIcNS_11char_traitsIcEENS7_IcEEEESE_EES3_EEEEE6secondB7v160006Ev, symObjAddr: 0x16300, symBinAddr: 0x10001A180, symSize: 0x20 }
  - { offsetInCU: 0x35AAA, offset: 0x35AAA, size: 0x8, addend: 0x0, symName: __ZNSt3__122__compressed_pair_elemINS_9allocatorINS_11__tree_nodeINS_12__value_typeINS_12basic_stringIcNS_11char_traitsIcEENS1_IcEEEES8_EEPvEEEELi1ELb1EE5__getB7v160006Ev, symObjAddr: 0x16320, symBinAddr: 0x10001A1A0, symSize: 0x10 }
  - { offsetInCU: 0x35AD0, offset: 0x35AD0, size: 0x8, addend: 0x0, symName: __ZNSt3__19allocatorINS_11__tree_nodeINS_12__value_typeINS_12basic_stringIcNS_11char_traitsIcEENS0_IcEEEES7_EEPvEEE8allocateB7v160006Em, symObjAddr: 0x16330, symBinAddr: 0x10001A1B0, symSize: 0x50 }
  - { offsetInCU: 0x35B0E, offset: 0x35B0E, size: 0x8, addend: 0x0, symName: __ZNSt3__116allocator_traitsINS_9allocatorINS_11__tree_nodeINS_12__value_typeINS_12basic_stringIcNS_11char_traitsIcEENS1_IcEEEES8_EEPvEEEEE8max_sizeB7v160006ISC_vEEmRKSC_, symObjAddr: 0x16380, symBinAddr: 0x10001A200, symSize: 0x20 }
  - { offsetInCU: 0x35B3C, offset: 0x35B3C, size: 0x8, addend: 0x0, symName: __ZNKSt3__19allocatorINS_11__tree_nodeINS_12__value_typeINS_12basic_stringIcNS_11char_traitsIcEENS0_IcEEEES7_EEPvEEE8max_sizeB7v160006Ev, symObjAddr: 0x163A0, symBinAddr: 0x10001A220, symSize: 0x20 }
  - { offsetInCU: 0x35B62, offset: 0x35B62, size: 0x8, addend: 0x0, symName: __ZNSt3__122__tree_node_destructorINS_9allocatorINS_11__tree_nodeINS_12__value_typeINS_12basic_stringIcNS_11char_traitsIcEENS1_IcEEEES8_EEPvEEEEEC2B7v160006ERSC_b, symObjAddr: 0x163C0, symBinAddr: 0x10001A240, symSize: 0x30 }
  - { offsetInCU: 0x35BAA, offset: 0x35BAA, size: 0x8, addend: 0x0, symName: __ZNSt3__110unique_ptrINS_11__tree_nodeINS_12__value_typeINS_12basic_stringIcNS_11char_traitsIcEENS_9allocatorIcEEEES8_EEPvEENS_22__tree_node_destructorINS6_ISB_EEEEEC2B7v160006ILb1EvEEPSB_NS_16__dependent_typeINS_27__unique_ptr_deleter_sfinaeISE_EEXT_EE20__good_rval_ref_typeE, symObjAddr: 0x163F0, symBinAddr: 0x10001A270, symSize: 0x40 }
  - { offsetInCU: 0x35BFB, offset: 0x35BFB, size: 0x8, addend: 0x0, symName: __ZNSt3__117__compressed_pairIPNS_11__tree_nodeINS_12__value_typeINS_12basic_stringIcNS_11char_traitsIcEENS_9allocatorIcEEEES8_EEPvEENS_22__tree_node_destructorINS6_ISB_EEEEEC1B7v160006IRSC_SF_EEOT_OT0_, symObjAddr: 0x16430, symBinAddr: 0x10001A2B0, symSize: 0x30 }
  - { offsetInCU: 0x35C53, offset: 0x35C53, size: 0x8, addend: 0x0, symName: __ZNSt3__117__compressed_pairIPNS_11__tree_nodeINS_12__value_typeINS_12basic_stringIcNS_11char_traitsIcEENS_9allocatorIcEEEES8_EEPvEENS_22__tree_node_destructorINS6_ISB_EEEEEC2B7v160006IRSC_SF_EEOT_OT0_, symObjAddr: 0x16460, symBinAddr: 0x10001A2E0, symSize: 0x40 }
  - { offsetInCU: 0x35CAB, offset: 0x35CAB, size: 0x8, addend: 0x0, symName: __ZNSt3__122__compressed_pair_elemIPNS_11__tree_nodeINS_12__value_typeINS_12basic_stringIcNS_11char_traitsIcEENS_9allocatorIcEEEES8_EEPvEELi0ELb0EEC2B7v160006IRSC_vEEOT_, symObjAddr: 0x164A0, symBinAddr: 0x10001A320, symSize: 0x20 }
  - { offsetInCU: 0x35CED, offset: 0x35CED, size: 0x8, addend: 0x0, symName: __ZNSt3__122__compressed_pair_elemINS_22__tree_node_destructorINS_9allocatorINS_11__tree_nodeINS_12__value_typeINS_12basic_stringIcNS_11char_traitsIcEENS2_IcEEEES9_EEPvEEEEEELi1ELb0EEC2B7v160006ISE_vEEOT_, symObjAddr: 0x164C0, symBinAddr: 0x10001A340, symSize: 0x30 }
  - { offsetInCU: 0x35D2F, offset: 0x35D2F, size: 0x8, addend: 0x0, symName: __ZNSt3__19allocatorINS_11__tree_nodeINS_12__value_typeINS_12basic_stringIcNS_11char_traitsIcEENS0_IcEEEES7_EEPvEEE9constructB7v160006INS_4pairIKS7_S7_EEJRKNS_21piecewise_construct_tENS_5tupleIJRSE_EEENSJ_IJEEEEEEvPT_DpOT0_, symObjAddr: 0x164F0, symBinAddr: 0x10001A370, symSize: 0x40 }
  - { offsetInCU: 0x35DAB, offset: 0x35DAB, size: 0x8, addend: 0x0, symName: __ZNSt3__14pairIKNS_12basic_stringIcNS_11char_traitsIcEENS_9allocatorIcEEEES6_EC1B7v160006IJRS7_EJEEENS_21piecewise_construct_tENS_5tupleIJDpT_EEENSC_IJDpT0_EEE, symObjAddr: 0x16530, symBinAddr: 0x10001A3B0, symSize: 0x30 }
  - { offsetInCU: 0x35E12, offset: 0x35E12, size: 0x8, addend: 0x0, symName: __ZNSt3__14pairIKNS_12basic_stringIcNS_11char_traitsIcEENS_9allocatorIcEEEES6_EC1B7v160006IJRS7_EJEJLm0EEJEEENS_21piecewise_construct_tERNS_5tupleIJDpT_EEERNSC_IJDpT0_EEENS_15__tuple_indicesIJXspT1_EEEENSL_IJXspT2_EEEE, symObjAddr: 0x16560, symBinAddr: 0x10001A3E0, symSize: 0x30 }
  - { offsetInCU: 0x35EA2, offset: 0x35EA2, size: 0x8, addend: 0x0, symName: __ZNSt3__14pairIKNS_12basic_stringIcNS_11char_traitsIcEENS_9allocatorIcEEEES6_EC2B7v160006IJRS7_EJEJLm0EEJEEENS_21piecewise_construct_tERNS_5tupleIJDpT_EEERNSC_IJDpT0_EEENS_15__tuple_indicesIJXspT1_EEEENSL_IJXspT2_EEEE, symObjAddr: 0x16590, symBinAddr: 0x10001A410, symSize: 0x50 }
  - { offsetInCU: 0x35F32, offset: 0x35F32, size: 0x8, addend: 0x0, symName: __ZNKSt3__117__compressed_pairIPNS_11__tree_nodeINS_12__value_typeINS_12basic_stringIcNS_11char_traitsIcEENS_9allocatorIcEEEES8_EEPvEENS_22__tree_node_destructorINS6_ISB_EEEEE5firstB7v160006Ev, symObjAddr: 0x165E0, symBinAddr: 0x10001A460, symSize: 0x20 }
  - { offsetInCU: 0x35F58, offset: 0x35F58, size: 0x8, addend: 0x0, symName: __ZNKSt3__122__compressed_pair_elemIPNS_11__tree_nodeINS_12__value_typeINS_12basic_stringIcNS_11char_traitsIcEENS_9allocatorIcEEEES8_EEPvEELi0ELb0EE5__getB7v160006Ev, symObjAddr: 0x16600, symBinAddr: 0x10001A480, symSize: 0x10 }
  - { offsetInCU: 0x35F7E, offset: 0x35F7E, size: 0x8, addend: 0x0, symName: __ZNSt3__117__compressed_pairIPNS_11__tree_nodeINS_12__value_typeINS_12basic_stringIcNS_11char_traitsIcEENS_9allocatorIcEEEES8_EEPvEENS_22__tree_node_destructorINS6_ISB_EEEEE6secondB7v160006Ev, symObjAddr: 0x16610, symBinAddr: 0x10001A490, symSize: 0x20 }
  - { offsetInCU: 0x35FA4, offset: 0x35FA4, size: 0x8, addend: 0x0, symName: __ZNSt3__122__compressed_pair_elemINS_22__tree_node_destructorINS_9allocatorINS_11__tree_nodeINS_12__value_typeINS_12basic_stringIcNS_11char_traitsIcEENS2_IcEEEES9_EEPvEEEEEELi1ELb0EE5__getB7v160006Ev, symObjAddr: 0x16630, symBinAddr: 0x10001A4B0, symSize: 0x10 }
  - { offsetInCU: 0x35FCA, offset: 0x35FCA, size: 0x8, addend: 0x0, symName: __ZNSt3__16__treeINS_12__value_typeINS_12basic_stringIcNS_11char_traitsIcEENS_9allocatorIcEEEES7_EENS_19__map_value_compareIS7_S8_NS_4lessIS7_EELb1EEENS5_IS8_EEE12__begin_nodeB7v160006Ev, symObjAddr: 0x16640, symBinAddr: 0x10001A4C0, symSize: 0x10 }
  - { offsetInCU: 0x35FF0, offset: 0x35FF0, size: 0x8, addend: 0x0, symName: __ZNSt3__16__treeINS_12__value_typeINS_12basic_stringIcNS_11char_traitsIcEENS_9allocatorIcEEEES7_EENS_19__map_value_compareIS7_S8_NS_4lessIS7_EELb1EEENS5_IS8_EEE4sizeB7v160006Ev, symObjAddr: 0x16650, symBinAddr: 0x10001A4D0, symSize: 0x20 }
  - { offsetInCU: 0x36016, offset: 0x36016, size: 0x8, addend: 0x0, symName: __ZNSt3__117__compressed_pairImNS_19__map_value_compareINS_12basic_stringIcNS_11char_traitsIcEENS_9allocatorIcEEEENS_12__value_typeIS7_S7_EENS_4lessIS7_EELb1EEEE5firstB7v160006Ev, symObjAddr: 0x16670, symBinAddr: 0x10001A4F0, symSize: 0x20 }
  - { offsetInCU: 0x3603C, offset: 0x3603C, size: 0x8, addend: 0x0, symName: __ZNSt3__117__compressed_pairIPNS_11__tree_nodeINS_12__value_typeINS_12basic_stringIcNS_11char_traitsIcEENS_9allocatorIcEEEES8_EEPvEENS_22__tree_node_destructorINS6_ISB_EEEEE5firstB7v160006Ev, symObjAddr: 0x16690, symBinAddr: 0x10001A510, symSize: 0x20 }
  - { offsetInCU: 0x36062, offset: 0x36062, size: 0x8, addend: 0x0, symName: __ZNSt3__122__compressed_pair_elemIPNS_11__tree_nodeINS_12__value_typeINS_12basic_stringIcNS_11char_traitsIcEENS_9allocatorIcEEEES8_EEPvEELi0ELb0EE5__getB7v160006Ev, symObjAddr: 0x166B0, symBinAddr: 0x10001A530, symSize: 0x10 }
  - { offsetInCU: 0x36088, offset: 0x36088, size: 0x8, addend: 0x0, symName: __ZNSt3__110unique_ptrINS_11__tree_nodeINS_12__value_typeINS_12basic_stringIcNS_11char_traitsIcEENS_9allocatorIcEEEES8_EEPvEENS_22__tree_node_destructorINS6_ISB_EEEEED2B7v160006Ev, symObjAddr: 0x166C0, symBinAddr: 0x10001A540, symSize: 0x20 }
  - { offsetInCU: 0x360B2, offset: 0x360B2, size: 0x8, addend: 0x0, symName: __ZNSt3__110unique_ptrINS_11__tree_nodeINS_12__value_typeINS_12basic_stringIcNS_11char_traitsIcEENS_9allocatorIcEEEES8_EEPvEENS_22__tree_node_destructorINS6_ISB_EEEEE5resetB7v160006EPSB_, symObjAddr: 0x166E0, symBinAddr: 0x10001A560, symSize: 0x70 }
  - { offsetInCU: 0x360F6, offset: 0x360F6, size: 0x8, addend: 0x0, symName: __ZNSt3__122__tree_node_destructorINS_9allocatorINS_11__tree_nodeINS_12__value_typeINS_12basic_stringIcNS_11char_traitsIcEENS1_IcEEEES8_EEPvEEEEEclB7v160006EPSB_, symObjAddr: 0x16750, symBinAddr: 0x10001A5D0, symSize: 0x90 }
  - { offsetInCU: 0x3612B, offset: 0x3612B, size: 0x8, addend: 0x0, symName: __ZNSt3__116allocator_traitsINS_9allocatorINS_11__tree_nodeINS_12__value_typeINS_12basic_stringIcNS_11char_traitsIcEENS1_IcEEEES8_EEPvEEEEE7destroyB7v160006INS_4pairIKS8_S8_EEvvEEvRSC_PT_, symObjAddr: 0x167E0, symBinAddr: 0x10001A660, symSize: 0x20 }
  - { offsetInCU: 0x36166, offset: 0x36166, size: 0x8, addend: 0x0, symName: __ZNSt3__116allocator_traitsINS_9allocatorINS_11__tree_nodeINS_12__value_typeINS_12basic_stringIcNS_11char_traitsIcEENS1_IcEEEES8_EEPvEEEEE10deallocateB7v160006ERSC_PSB_m, symObjAddr: 0x16800, symBinAddr: 0x10001A680, symSize: 0x30 }
  - { offsetInCU: 0x361A8, offset: 0x361A8, size: 0x8, addend: 0x0, symName: __ZNSt3__14pairIKNS_12basic_stringIcNS_11char_traitsIcEENS_9allocatorIcEEEES6_ED1Ev, symObjAddr: 0x16830, symBinAddr: 0x10001A6B0, symSize: 0x20 }
  - { offsetInCU: 0x361D4, offset: 0x361D4, size: 0x8, addend: 0x0, symName: __ZNSt3__14pairIKNS_12basic_stringIcNS_11char_traitsIcEENS_9allocatorIcEEEES6_ED2Ev, symObjAddr: 0x16850, symBinAddr: 0x10001A6D0, symSize: 0x30 }
  - { offsetInCU: 0x36200, offset: 0x36200, size: 0x8, addend: 0x0, symName: __ZNSt3__19allocatorINS_11__tree_nodeINS_12__value_typeINS_12basic_stringIcNS_11char_traitsIcEENS0_IcEEEES7_EEPvEEE10deallocateB7v160006EPSA_m, symObjAddr: 0x16880, symBinAddr: 0x10001A700, symSize: 0x50 }
  - { offsetInCU: 0x36242, offset: 0x36242, size: 0x8, addend: 0x0, symName: __ZNSt3__115__tree_iteratorINS_12__value_typeINS_12basic_stringIcNS_11char_traitsIcEENS_9allocatorIcEEEES7_EEPNS_11__tree_nodeIS8_PvEElEC2B7v160006ESC_, symObjAddr: 0x168D0, symBinAddr: 0x10001A750, symSize: 0x20 }
  - { offsetInCU: 0x3627B, offset: 0x3627B, size: 0x8, addend: 0x0, symName: __ZNSt3__14pairINS_15__tree_iteratorINS_12__value_typeINS_12basic_stringIcNS_11char_traitsIcEENS_9allocatorIcEEEES8_EEPNS_11__tree_nodeIS9_PvEElEEbEC2B7v160006ISE_RbLSB_0EEEOT_OT0_, symObjAddr: 0x168F0, symBinAddr: 0x10001A770, symSize: 0x30 }
  - { offsetInCU: 0x362D9, offset: 0x362D9, size: 0x8, addend: 0x0, symName: __ZNSt3__114pointer_traitsIPNS_12__value_typeINS_12basic_stringIcNS_11char_traitsIcEENS_9allocatorIcEEEES7_EEE10pointer_toB7v160006ERS8_, symObjAddr: 0x16920, symBinAddr: 0x10001A7A0, symSize: 0x10 }
  - { offsetInCU: 0x362FC, offset: 0x362FC, size: 0x8, addend: 0x0, symName: __ZNKSt3__115__tree_iteratorINS_12__value_typeINS_12basic_stringIcNS_11char_traitsIcEENS_9allocatorIcEEEES7_EEPNS_11__tree_nodeIS8_PvEElE8__get_npB7v160006Ev, symObjAddr: 0x16930, symBinAddr: 0x10001A7B0, symSize: 0x20 }
  - { offsetInCU: 0x36322, offset: 0x36322, size: 0x8, addend: 0x0, symName: __ZNKSt3__16__treeINS_4pairIiNS_12basic_stringIcNS_11char_traitsIcEENS_9allocatorIcEEEEEENS_4lessIS8_EENS5_IS8_EEE4sizeB7v160006Ev, symObjAddr: 0x16950, symBinAddr: 0x10001A7D0, symSize: 0x20 }
  - { offsetInCU: 0x36348, offset: 0x36348, size: 0x8, addend: 0x0, symName: __ZNKSt3__117__compressed_pairImNS_4lessINS_4pairIiNS_12basic_stringIcNS_11char_traitsIcEENS_9allocatorIcEEEEEEEEE5firstB7v160006Ev, symObjAddr: 0x16970, symBinAddr: 0x10001A7F0, symSize: 0x20 }
  - { offsetInCU: 0x3636E, offset: 0x3636E, size: 0x8, addend: 0x0, symName: __ZNSt3__16__treeINS_4pairIiNS_12basic_stringIcNS_11char_traitsIcEENS_9allocatorIcEEEEEENS_4lessIS8_EENS5_IS8_EEE5beginB7v160006Ev, symObjAddr: 0x16990, symBinAddr: 0x10001A810, symSize: 0x30 }
  - { offsetInCU: 0x36394, offset: 0x36394, size: 0x8, addend: 0x0, symName: __ZNSt3__115__tree_iteratorINS_4pairIiNS_12basic_stringIcNS_11char_traitsIcEENS_9allocatorIcEEEEEEPNS_11__tree_nodeIS8_PvEElEC1B7v160006EPNS_15__tree_end_nodeIPNS_16__tree_node_baseISA_EEEE, symObjAddr: 0x169C0, symBinAddr: 0x10001A840, symSize: 0x30 }
  - { offsetInCU: 0x363CD, offset: 0x363CD, size: 0x8, addend: 0x0, symName: __ZNSt3__115__tree_iteratorINS_4pairIiNS_12basic_stringIcNS_11char_traitsIcEENS_9allocatorIcEEEEEEPNS_11__tree_nodeIS8_PvEElEC2B7v160006EPNS_15__tree_end_nodeIPNS_16__tree_node_baseISA_EEEE, symObjAddr: 0x169F0, symBinAddr: 0x10001A870, symSize: 0x20 }
  - { offsetInCU: 0x36406, offset: 0x36406, size: 0x8, addend: 0x0, symName: __ZNKSt3__121__tree_const_iteratorINS_4pairIiNS_12basic_stringIcNS_11char_traitsIcEENS_9allocatorIcEEEEEEPNS_11__tree_nodeIS8_PvEElE8__get_npB7v160006Ev, symObjAddr: 0x16A10, symBinAddr: 0x10001A890, symSize: 0x20 }
  - { offsetInCU: 0x3642C, offset: 0x3642C, size: 0x8, addend: 0x0, symName: __ZNSt3__16__treeINS_4pairIiNS_12basic_stringIcNS_11char_traitsIcEENS_9allocatorIcEEEEEENS_4lessIS8_EENS5_IS8_EEE5eraseENS_21__tree_const_iteratorIS8_PNS_11__tree_nodeIS8_PvEElEE, symObjAddr: 0x16A30, symBinAddr: 0x10001A8B0, symSize: 0x90 }
  - { offsetInCU: 0x36490, offset: 0x36490, size: 0x8, addend: 0x0, symName: __ZNSt3__16__treeINS_4pairIiNS_12basic_stringIcNS_11char_traitsIcEENS_9allocatorIcEEEEEENS_4lessIS8_EENS5_IS8_EEE21__remove_node_pointerEPNS_11__tree_nodeIS8_PvEE, symObjAddr: 0x16AC0, symBinAddr: 0x10001A940, symSize: 0xA0 }
  - { offsetInCU: 0x364D6, offset: 0x364D6, size: 0x8, addend: 0x0, symName: __ZNSt3__115__tree_iteratorINS_4pairIiNS_12basic_stringIcNS_11char_traitsIcEENS_9allocatorIcEEEEEEPNS_11__tree_nodeIS8_PvEElEppB7v160006Ev, symObjAddr: 0x16B60, symBinAddr: 0x10001A9E0, symSize: 0x30 }
  - { offsetInCU: 0x364FC, offset: 0x364FC, size: 0x8, addend: 0x0, symName: __ZNSt3__110__list_impINS_4pairINS_12basic_stringIcNS_11char_traitsIcEENS_9allocatorIcEEEEiEENS5_IS8_EEE5beginB7v160006Ev, symObjAddr: 0x171F0, symBinAddr: 0x10001B070, symSize: 0x30 }
  - { offsetInCU: 0x36522, offset: 0x36522, size: 0x8, addend: 0x0, symName: __ZNSt3__115__list_iteratorINS_4pairINS_12basic_stringIcNS_11char_traitsIcEENS_9allocatorIcEEEEiEEPvEC1B7v160006EPNS_16__list_node_baseIS8_S9_EEPKv, symObjAddr: 0x17220, symBinAddr: 0x10001B0A0, symSize: 0x30 }
  - { offsetInCU: 0x3656A, offset: 0x3656A, size: 0x8, addend: 0x0, symName: __ZNSt3__115__list_iteratorINS_4pairINS_12basic_stringIcNS_11char_traitsIcEENS_9allocatorIcEEEEiEEPvEC2B7v160006EPNS_16__list_node_baseIS8_S9_EEPKv, symObjAddr: 0x17250, symBinAddr: 0x10001B0D0, symSize: 0x20 }
  - { offsetInCU: 0x365B2, offset: 0x365B2, size: 0x8, addend: 0x0, symName: __ZNSt3__110__list_impINS_4pairINS_12basic_stringIcNS_11char_traitsIcEENS_9allocatorIcEEEEiEENS5_IS8_EEE3endB7v160006Ev, symObjAddr: 0x17270, symBinAddr: 0x10001B0F0, symSize: 0x40 }
  - { offsetInCU: 0x365D8, offset: 0x365D8, size: 0x8, addend: 0x0, symName: __ZNSt3__16__treeINS_4pairIiNS_12basic_stringIcNS_11char_traitsIcEENS_9allocatorIcEEEEEENS_4lessIS8_EENS5_IS8_EEE4findIS8_EENS_15__tree_iteratorIS8_PNS_11__tree_nodeIS8_PvEElEERKT_, symObjAddr: 0x172E0, symBinAddr: 0x10001B160, symSize: 0xE0 }
  - { offsetInCU: 0x36627, offset: 0x36627, size: 0x8, addend: 0x0, symName: __ZNSt3__16__treeINS_4pairIiNS_12basic_stringIcNS_11char_traitsIcEENS_9allocatorIcEEEEEENS_4lessIS8_EENS5_IS8_EEE13__lower_boundIS8_EENS_15__tree_iteratorIS8_PNS_11__tree_nodeIS8_PvEElEERKT_SI_PNS_15__tree_end_nodeIPNS_16__tree_node_baseISG_EEEE, symObjAddr: 0x173C0, symBinAddr: 0x10001B240, symSize: 0x90 }
  - { offsetInCU: 0x36685, offset: 0x36685, size: 0x8, addend: 0x0, symName: __ZNSt3__16__treeINS_4pairIiNS_12basic_stringIcNS_11char_traitsIcEENS_9allocatorIcEEEEEENS_4lessIS8_EENS5_IS8_EEE3endB7v160006Ev, symObjAddr: 0x17480, symBinAddr: 0x10001B300, symSize: 0x30 }
  - { offsetInCU: 0x366AB, offset: 0x366AB, size: 0x8, addend: 0x0, symName: __ZNKSt3__115__tree_iteratorINS_4pairIiNS_12basic_stringIcNS_11char_traitsIcEENS_9allocatorIcEEEEEEPNS_11__tree_nodeIS8_PvEElEdeB7v160006Ev, symObjAddr: 0x174B0, symBinAddr: 0x10001B330, symSize: 0x20 }
  - { offsetInCU: 0x366D1, offset: 0x366D1, size: 0x8, addend: 0x0, symName: __ZNKSt3__115__tree_iteratorINS_4pairIiNS_12basic_stringIcNS_11char_traitsIcEENS_9allocatorIcEEEEEEPNS_11__tree_nodeIS8_PvEElE8__get_npB7v160006Ev, symObjAddr: 0x17500, symBinAddr: 0x10001B380, symSize: 0x20 }
  - { offsetInCU: 0x366F7, offset: 0x366F7, size: 0x8, addend: 0x0, symName: __ZNSt3__113unordered_mapINS_12basic_stringIcNS_11char_traitsIcEENS_9allocatorIcEEEEfNS_4hashIS6_EENS_8equal_toIS6_EENS4_INS_4pairIKS6_fEEEEEC2B7v160006Ev, symObjAddr: 0x17550, symBinAddr: 0x10001B3D0, symSize: 0x40 }
  - { offsetInCU: 0x36721, offset: 0x36721, size: 0x8, addend: 0x0, symName: __ZNSt3__112__hash_tableINS_17__hash_value_typeINS_12basic_stringIcNS_11char_traitsIcEENS_9allocatorIcEEEEfEENS_22__unordered_map_hasherIS7_S8_NS_4hashIS7_EENS_8equal_toIS7_EELb1EEENS_21__unordered_map_equalIS7_S8_SD_SB_Lb1EEENS5_IS8_EEEC1Ev, symObjAddr: 0x17590, symBinAddr: 0x10001B410, symSize: 0x20 }
  - { offsetInCU: 0x3674D, offset: 0x3674D, size: 0x8, addend: 0x0, symName: __ZNSt3__112__hash_tableINS_17__hash_value_typeINS_12basic_stringIcNS_11char_traitsIcEENS_9allocatorIcEEEEfEENS_22__unordered_map_hasherIS7_S8_NS_4hashIS7_EENS_8equal_toIS7_EELb1EEENS_21__unordered_map_equalIS7_S8_SD_SB_Lb1EEENS5_IS8_EEEC2Ev, symObjAddr: 0x175C0, symBinAddr: 0x10001B440, symSize: 0x80 }
  - { offsetInCU: 0x36779, offset: 0x36779, size: 0x8, addend: 0x0, symName: __ZNSt3__110unique_ptrIA_PNS_16__hash_node_baseIPNS_11__hash_nodeINS_17__hash_value_typeINS_12basic_stringIcNS_11char_traitsIcEENS_9allocatorIcEEEEfEEPvEEEENS_25__bucket_list_deallocatorINS7_ISF_EEEEEC1B7v160006ILb1EvEEv, symObjAddr: 0x17640, symBinAddr: 0x10001B4C0, symSize: 0x20 }
  - { offsetInCU: 0x367AE, offset: 0x367AE, size: 0x8, addend: 0x0, symName: __ZNSt3__117__compressed_pairINS_16__hash_node_baseIPNS_11__hash_nodeINS_17__hash_value_typeINS_12basic_stringIcNS_11char_traitsIcEENS_9allocatorIcEEEEfEEPvEEEENS7_ISC_EEEC1B7v160006ILb1EvEEv, symObjAddr: 0x17660, symBinAddr: 0x10001B4E0, symSize: 0x20 }
  - { offsetInCU: 0x367E3, offset: 0x367E3, size: 0x8, addend: 0x0, symName: __ZNSt3__117__compressed_pairImNS_22__unordered_map_hasherINS_12basic_stringIcNS_11char_traitsIcEENS_9allocatorIcEEEENS_17__hash_value_typeIS7_fEENS_4hashIS7_EENS_8equal_toIS7_EELb1EEEEC1B7v160006IiNS_18__default_init_tagEEEOT_OT0_, symObjAddr: 0x17680, symBinAddr: 0x10001B500, symSize: 0x30 }
  - { offsetInCU: 0x3683B, offset: 0x3683B, size: 0x8, addend: 0x0, symName: __ZNSt3__117__compressed_pairIfNS_21__unordered_map_equalINS_12basic_stringIcNS_11char_traitsIcEENS_9allocatorIcEEEENS_17__hash_value_typeIS7_fEENS_8equal_toIS7_EENS_4hashIS7_EELb1EEEEC1B7v160006IfNS_18__default_init_tagEEEOT_OT0_, symObjAddr: 0x176B0, symBinAddr: 0x10001B530, symSize: 0x30 }
  - { offsetInCU: 0x36893, offset: 0x36893, size: 0x8, addend: 0x0, symName: __ZNSt3__110unique_ptrIA_PNS_16__hash_node_baseIPNS_11__hash_nodeINS_17__hash_value_typeINS_12basic_stringIcNS_11char_traitsIcEENS_9allocatorIcEEEEfEEPvEEEENS_25__bucket_list_deallocatorINS7_ISF_EEEEEC2B7v160006ILb1EvEEv, symObjAddr: 0x176E0, symBinAddr: 0x10001B560, symSize: 0x30 }
  - { offsetInCU: 0x368C8, offset: 0x368C8, size: 0x8, addend: 0x0, symName: __ZNSt3__117__compressed_pairIPPNS_16__hash_node_baseIPNS_11__hash_nodeINS_17__hash_value_typeINS_12basic_stringIcNS_11char_traitsIcEENS_9allocatorIcEEEEfEEPvEEEENS_25__bucket_list_deallocatorINS7_ISF_EEEEEC1B7v160006INS_16__value_init_tagESM_EEOT_OT0_, symObjAddr: 0x17710, symBinAddr: 0x10001B590, symSize: 0x30 }
  - { offsetInCU: 0x36920, offset: 0x36920, size: 0x8, addend: 0x0, symName: __ZNSt3__117__compressed_pairIPPNS_16__hash_node_baseIPNS_11__hash_nodeINS_17__hash_value_typeINS_12basic_stringIcNS_11char_traitsIcEENS_9allocatorIcEEEEfEEPvEEEENS_25__bucket_list_deallocatorINS7_ISF_EEEEEC2B7v160006INS_16__value_init_tagESM_EEOT_OT0_, symObjAddr: 0x17740, symBinAddr: 0x10001B5C0, symSize: 0x40 }
  - { offsetInCU: 0x36978, offset: 0x36978, size: 0x8, addend: 0x0, symName: __ZNSt3__122__compressed_pair_elemIPPNS_16__hash_node_baseIPNS_11__hash_nodeINS_17__hash_value_typeINS_12basic_stringIcNS_11char_traitsIcEENS_9allocatorIcEEEEfEEPvEEEELi0ELb0EEC2B7v160006ENS_16__value_init_tagE, symObjAddr: 0x17780, symBinAddr: 0x10001B600, symSize: 0x20 }
  - { offsetInCU: 0x369AD, offset: 0x369AD, size: 0x8, addend: 0x0, symName: __ZNSt3__122__compressed_pair_elemINS_25__bucket_list_deallocatorINS_9allocatorIPNS_16__hash_node_baseIPNS_11__hash_nodeINS_17__hash_value_typeINS_12basic_stringIcNS_11char_traitsIcEENS2_IcEEEEfEEPvEEEEEEEELi1ELb0EEC2B7v160006ENS_16__value_init_tagE, symObjAddr: 0x177A0, symBinAddr: 0x10001B620, symSize: 0x20 }
  - { offsetInCU: 0x369E2, offset: 0x369E2, size: 0x8, addend: 0x0, symName: __ZNSt3__125__bucket_list_deallocatorINS_9allocatorIPNS_16__hash_node_baseIPNS_11__hash_nodeINS_17__hash_value_typeINS_12basic_stringIcNS_11char_traitsIcEENS1_IcEEEEfEEPvEEEEEEEC1B7v160006Ev, symObjAddr: 0x177C0, symBinAddr: 0x10001B640, symSize: 0x20 }
  - { offsetInCU: 0x36A0C, offset: 0x36A0C, size: 0x8, addend: 0x0, symName: __ZNSt3__125__bucket_list_deallocatorINS_9allocatorIPNS_16__hash_node_baseIPNS_11__hash_nodeINS_17__hash_value_typeINS_12basic_stringIcNS_11char_traitsIcEENS1_IcEEEEfEEPvEEEEEEEC2B7v160006Ev, symObjAddr: 0x177E0, symBinAddr: 0x10001B660, symSize: 0x40 }
  - { offsetInCU: 0x36A36, offset: 0x36A36, size: 0x8, addend: 0x0, symName: __ZNSt3__117__compressed_pairImNS_9allocatorIPNS_16__hash_node_baseIPNS_11__hash_nodeINS_17__hash_value_typeINS_12basic_stringIcNS_11char_traitsIcEENS1_IcEEEEfEEPvEEEEEEEC1B7v160006IiNS_18__default_init_tagEEEOT_OT0_, symObjAddr: 0x17820, symBinAddr: 0x10001B6A0, symSize: 0x30 }
  - { offsetInCU: 0x36A8E, offset: 0x36A8E, size: 0x8, addend: 0x0, symName: __ZNSt3__117__compressed_pairImNS_9allocatorIPNS_16__hash_node_baseIPNS_11__hash_nodeINS_17__hash_value_typeINS_12basic_stringIcNS_11char_traitsIcEENS1_IcEEEEfEEPvEEEEEEEC2B7v160006IiNS_18__default_init_tagEEEOT_OT0_, symObjAddr: 0x17850, symBinAddr: 0x10001B6D0, symSize: 0x40 }
  - { offsetInCU: 0x36AE6, offset: 0x36AE6, size: 0x8, addend: 0x0, symName: __ZNSt3__122__compressed_pair_elemINS_9allocatorIPNS_16__hash_node_baseIPNS_11__hash_nodeINS_17__hash_value_typeINS_12basic_stringIcNS_11char_traitsIcEENS1_IcEEEEfEEPvEEEEEELi1ELb1EEC2B7v160006ENS_18__default_init_tagE, symObjAddr: 0x17890, symBinAddr: 0x10001B710, symSize: 0x20 }
  - { offsetInCU: 0x36B1B, offset: 0x36B1B, size: 0x8, addend: 0x0, symName: __ZNSt3__19allocatorIPNS_16__hash_node_baseIPNS_11__hash_nodeINS_17__hash_value_typeINS_12basic_stringIcNS_11char_traitsIcEENS0_IcEEEEfEEPvEEEEEC2B7v160006Ev, symObjAddr: 0x178B0, symBinAddr: 0x10001B730, symSize: 0x20 }
  - { offsetInCU: 0x36B45, offset: 0x36B45, size: 0x8, addend: 0x0, symName: __ZNSt3__116__non_trivial_ifILb1ENS_9allocatorIPNS_16__hash_node_baseIPNS_11__hash_nodeINS_17__hash_value_typeINS_12basic_stringIcNS_11char_traitsIcEENS1_IcEEEEfEEPvEEEEEEEC2B7v160006Ev, symObjAddr: 0x178D0, symBinAddr: 0x10001B750, symSize: 0x10 }
  - { offsetInCU: 0x36B6F, offset: 0x36B6F, size: 0x8, addend: 0x0, symName: __ZNSt3__117__compressed_pairINS_16__hash_node_baseIPNS_11__hash_nodeINS_17__hash_value_typeINS_12basic_stringIcNS_11char_traitsIcEENS_9allocatorIcEEEEfEEPvEEEENS7_ISC_EEEC2B7v160006ILb1EvEEv, symObjAddr: 0x178E0, symBinAddr: 0x10001B760, symSize: 0x30 }
  - { offsetInCU: 0x36BA4, offset: 0x36BA4, size: 0x8, addend: 0x0, symName: __ZNSt3__122__compressed_pair_elemINS_16__hash_node_baseIPNS_11__hash_nodeINS_17__hash_value_typeINS_12basic_stringIcNS_11char_traitsIcEENS_9allocatorIcEEEEfEEPvEEEELi0ELb0EEC2B7v160006ENS_16__value_init_tagE, symObjAddr: 0x17910, symBinAddr: 0x10001B790, symSize: 0x20 }
  - { offsetInCU: 0x36BD9, offset: 0x36BD9, size: 0x8, addend: 0x0, symName: __ZNSt3__122__compressed_pair_elemINS_9allocatorINS_11__hash_nodeINS_17__hash_value_typeINS_12basic_stringIcNS_11char_traitsIcEENS1_IcEEEEfEEPvEEEELi1ELb1EEC2B7v160006ENS_16__value_init_tagE, symObjAddr: 0x17930, symBinAddr: 0x10001B7B0, symSize: 0x20 }
  - { offsetInCU: 0x36C0E, offset: 0x36C0E, size: 0x8, addend: 0x0, symName: __ZNSt3__116__hash_node_baseIPNS_11__hash_nodeINS_17__hash_value_typeINS_12basic_stringIcNS_11char_traitsIcEENS_9allocatorIcEEEEfEEPvEEEC1B7v160006Ev, symObjAddr: 0x17950, symBinAddr: 0x10001B7D0, symSize: 0x20 }
  - { offsetInCU: 0x36C38, offset: 0x36C38, size: 0x8, addend: 0x0, symName: __ZNSt3__116__hash_node_baseIPNS_11__hash_nodeINS_17__hash_value_typeINS_12basic_stringIcNS_11char_traitsIcEENS_9allocatorIcEEEEfEEPvEEEC2B7v160006Ev, symObjAddr: 0x17970, symBinAddr: 0x10001B7F0, symSize: 0x20 }
  - { offsetInCU: 0x36C62, offset: 0x36C62, size: 0x8, addend: 0x0, symName: __ZNSt3__19allocatorINS_11__hash_nodeINS_17__hash_value_typeINS_12basic_stringIcNS_11char_traitsIcEENS0_IcEEEEfEEPvEEEC2B7v160006Ev, symObjAddr: 0x17990, symBinAddr: 0x10001B810, symSize: 0x20 }
  - { offsetInCU: 0x36C8C, offset: 0x36C8C, size: 0x8, addend: 0x0, symName: __ZNSt3__116__non_trivial_ifILb1ENS_9allocatorINS_11__hash_nodeINS_17__hash_value_typeINS_12basic_stringIcNS_11char_traitsIcEENS1_IcEEEEfEEPvEEEEEC2B7v160006Ev, symObjAddr: 0x179B0, symBinAddr: 0x10001B830, symSize: 0x10 }
  - { offsetInCU: 0x36CB6, offset: 0x36CB6, size: 0x8, addend: 0x0, symName: __ZNSt3__117__compressed_pairImNS_22__unordered_map_hasherINS_12basic_stringIcNS_11char_traitsIcEENS_9allocatorIcEEEENS_17__hash_value_typeIS7_fEENS_4hashIS7_EENS_8equal_toIS7_EELb1EEEEC2B7v160006IiNS_18__default_init_tagEEEOT_OT0_, symObjAddr: 0x179C0, symBinAddr: 0x10001B840, symSize: 0x40 }
  - { offsetInCU: 0x36D0E, offset: 0x36D0E, size: 0x8, addend: 0x0, symName: __ZNSt3__122__compressed_pair_elemINS_22__unordered_map_hasherINS_12basic_stringIcNS_11char_traitsIcEENS_9allocatorIcEEEENS_17__hash_value_typeIS7_fEENS_4hashIS7_EENS_8equal_toIS7_EELb1EEELi1ELb1EEC2B7v160006ENS_18__default_init_tagE, symObjAddr: 0x17A00, symBinAddr: 0x10001B880, symSize: 0x20 }
  - { offsetInCU: 0x36D43, offset: 0x36D43, size: 0x8, addend: 0x0, symName: __ZNSt3__122__unordered_map_hasherINS_12basic_stringIcNS_11char_traitsIcEENS_9allocatorIcEEEENS_17__hash_value_typeIS6_fEENS_4hashIS6_EENS_8equal_toIS6_EELb1EEC2B7v160006Ev, symObjAddr: 0x17A20, symBinAddr: 0x10001B8A0, symSize: 0x10 }
  - { offsetInCU: 0x36D6D, offset: 0x36D6D, size: 0x8, addend: 0x0, symName: __ZNSt3__117__compressed_pairIfNS_21__unordered_map_equalINS_12basic_stringIcNS_11char_traitsIcEENS_9allocatorIcEEEENS_17__hash_value_typeIS7_fEENS_8equal_toIS7_EENS_4hashIS7_EELb1EEEEC2B7v160006IfNS_18__default_init_tagEEEOT_OT0_, symObjAddr: 0x17A30, symBinAddr: 0x10001B8B0, symSize: 0x40 }
  - { offsetInCU: 0x36DC5, offset: 0x36DC5, size: 0x8, addend: 0x0, symName: __ZNSt3__122__compressed_pair_elemINS_21__unordered_map_equalINS_12basic_stringIcNS_11char_traitsIcEENS_9allocatorIcEEEENS_17__hash_value_typeIS7_fEENS_8equal_toIS7_EENS_4hashIS7_EELb1EEELi1ELb1EEC2B7v160006ENS_18__default_init_tagE, symObjAddr: 0x17A70, symBinAddr: 0x10001B8F0, symSize: 0x20 }
  - { offsetInCU: 0x36DFA, offset: 0x36DFA, size: 0x8, addend: 0x0, symName: __ZNSt3__121__unordered_map_equalINS_12basic_stringIcNS_11char_traitsIcEENS_9allocatorIcEEEENS_17__hash_value_typeIS6_fEENS_8equal_toIS6_EENS_4hashIS6_EELb1EEC2B7v160006Ev, symObjAddr: 0x17A90, symBinAddr: 0x10001B910, symSize: 0x10 }
  - { offsetInCU: 0x36E24, offset: 0x36E24, size: 0x8, addend: 0x0, symName: __ZNSt3__113unordered_mapINS_12basic_stringIcNS_11char_traitsIcEENS_9allocatorIcEEEEfNS_4hashIS6_EENS_8equal_toIS6_EENS4_INS_4pairIKS6_fEEEEED2B7v160006Ev, symObjAddr: 0x17AA0, symBinAddr: 0x10001B920, symSize: 0x20 }
  - { offsetInCU: 0x36E4E, offset: 0x36E4E, size: 0x8, addend: 0x0, symName: __ZNSt3__112__hash_tableINS_17__hash_value_typeINS_12basic_stringIcNS_11char_traitsIcEENS_9allocatorIcEEEEfEENS_22__unordered_map_hasherIS7_S8_NS_4hashIS7_EENS_8equal_toIS7_EELb1EEENS_21__unordered_map_equalIS7_S8_SD_SB_Lb1EEENS5_IS8_EEED1Ev, symObjAddr: 0x17AC0, symBinAddr: 0x10001B940, symSize: 0x20 }
  - { offsetInCU: 0x36E7A, offset: 0x36E7A, size: 0x8, addend: 0x0, symName: __ZNSt3__112__hash_tableINS_17__hash_value_typeINS_12basic_stringIcNS_11char_traitsIcEENS_9allocatorIcEEEEfEENS_22__unordered_map_hasherIS7_S8_NS_4hashIS7_EENS_8equal_toIS7_EELb1EEENS_21__unordered_map_equalIS7_S8_SD_SB_Lb1EEENS5_IS8_EEED2Ev, symObjAddr: 0x17AE0, symBinAddr: 0x10001B960, symSize: 0x50 }
  - { offsetInCU: 0x36EA6, offset: 0x36EA6, size: 0x8, addend: 0x0, symName: __ZNSt3__112__hash_tableINS_17__hash_value_typeINS_12basic_stringIcNS_11char_traitsIcEENS_9allocatorIcEEEEfEENS_22__unordered_map_hasherIS7_S8_NS_4hashIS7_EENS_8equal_toIS7_EELb1EEENS_21__unordered_map_equalIS7_S8_SD_SB_Lb1EEENS5_IS8_EEE17__deallocate_nodeEPNS_16__hash_node_baseIPNS_11__hash_nodeIS8_PvEEEE, symObjAddr: 0x17B30, symBinAddr: 0x10001B9B0, symSize: 0xA0 }
  - { offsetInCU: 0x36F10, offset: 0x36F10, size: 0x8, addend: 0x0, symName: __ZNSt3__117__compressed_pairINS_16__hash_node_baseIPNS_11__hash_nodeINS_17__hash_value_typeINS_12basic_stringIcNS_11char_traitsIcEENS_9allocatorIcEEEEfEEPvEEEENS7_ISC_EEE5firstB7v160006Ev, symObjAddr: 0x17BD0, symBinAddr: 0x10001BA50, symSize: 0x20 }
  - { offsetInCU: 0x36F36, offset: 0x36F36, size: 0x8, addend: 0x0, symName: __ZNSt3__110unique_ptrIA_PNS_16__hash_node_baseIPNS_11__hash_nodeINS_17__hash_value_typeINS_12basic_stringIcNS_11char_traitsIcEENS_9allocatorIcEEEEfEEPvEEEENS_25__bucket_list_deallocatorINS7_ISF_EEEEED1B7v160006Ev, symObjAddr: 0x17C00, symBinAddr: 0x10001BA80, symSize: 0x20 }
  - { offsetInCU: 0x36F60, offset: 0x36F60, size: 0x8, addend: 0x0, symName: __ZNSt3__112__hash_tableINS_17__hash_value_typeINS_12basic_stringIcNS_11char_traitsIcEENS_9allocatorIcEEEEfEENS_22__unordered_map_hasherIS7_S8_NS_4hashIS7_EENS_8equal_toIS7_EELb1EEENS_21__unordered_map_equalIS7_S8_SD_SB_Lb1EEENS5_IS8_EEE12__node_allocB7v160006Ev, symObjAddr: 0x17C20, symBinAddr: 0x10001BAA0, symSize: 0x20 }
  - { offsetInCU: 0x36F86, offset: 0x36F86, size: 0x8, addend: 0x0, symName: __ZNSt3__116__hash_node_baseIPNS_11__hash_nodeINS_17__hash_value_typeINS_12basic_stringIcNS_11char_traitsIcEENS_9allocatorIcEEEEfEEPvEEE8__upcastB7v160006Ev, symObjAddr: 0x17C40, symBinAddr: 0x10001BAC0, symSize: 0x20 }
  - { offsetInCU: 0x36FAC, offset: 0x36FAC, size: 0x8, addend: 0x0, symName: __ZNSt3__116allocator_traitsINS_9allocatorINS_11__hash_nodeINS_17__hash_value_typeINS_12basic_stringIcNS_11char_traitsIcEENS1_IcEEEEfEEPvEEEEE7destroyB7v160006INS_4pairIKS8_fEEvvEEvRSC_PT_, symObjAddr: 0x17C60, symBinAddr: 0x10001BAE0, symSize: 0x20 }
  - { offsetInCU: 0x36FE7, offset: 0x36FE7, size: 0x8, addend: 0x0, symName: __ZNSt3__122__hash_key_value_typesINS_17__hash_value_typeINS_12basic_stringIcNS_11char_traitsIcEENS_9allocatorIcEEEEfEEE9__get_ptrB7v160006ERS8_, symObjAddr: 0x17C80, symBinAddr: 0x10001BB00, symSize: 0x20 }
  - { offsetInCU: 0x3700A, offset: 0x3700A, size: 0x8, addend: 0x0, symName: __ZNSt3__116allocator_traitsINS_9allocatorINS_11__hash_nodeINS_17__hash_value_typeINS_12basic_stringIcNS_11char_traitsIcEENS1_IcEEEEfEEPvEEEEE10deallocateB7v160006ERSC_PSB_m, symObjAddr: 0x17CA0, symBinAddr: 0x10001BB20, symSize: 0x30 }
  - { offsetInCU: 0x3704C, offset: 0x3704C, size: 0x8, addend: 0x0, symName: __ZNSt3__117__compressed_pairINS_16__hash_node_baseIPNS_11__hash_nodeINS_17__hash_value_typeINS_12basic_stringIcNS_11char_traitsIcEENS_9allocatorIcEEEEfEEPvEEEENS7_ISC_EEE6secondB7v160006Ev, symObjAddr: 0x17CD0, symBinAddr: 0x10001BB50, symSize: 0x20 }
  - { offsetInCU: 0x37072, offset: 0x37072, size: 0x8, addend: 0x0, symName: __ZNSt3__122__compressed_pair_elemINS_9allocatorINS_11__hash_nodeINS_17__hash_value_typeINS_12basic_stringIcNS_11char_traitsIcEENS1_IcEEEEfEEPvEEEELi1ELb1EE5__getB7v160006Ev, symObjAddr: 0x17CF0, symBinAddr: 0x10001BB70, symSize: 0x10 }
  - { offsetInCU: 0x37098, offset: 0x37098, size: 0x8, addend: 0x0, symName: __ZNSt3__114pointer_traitsIPNS_16__hash_node_baseIPNS_11__hash_nodeINS_17__hash_value_typeINS_12basic_stringIcNS_11char_traitsIcEENS_9allocatorIcEEEEfEEPvEEEEE10pointer_toB7v160006ERSE_, symObjAddr: 0x17D00, symBinAddr: 0x10001BB80, symSize: 0x10 }
  - { offsetInCU: 0x370BB, offset: 0x370BB, size: 0x8, addend: 0x0, symName: __ZNSt3__14pairIKNS_12basic_stringIcNS_11char_traitsIcEENS_9allocatorIcEEEEfED1Ev, symObjAddr: 0x17D10, symBinAddr: 0x10001BB90, symSize: 0x20 }
  - { offsetInCU: 0x370E7, offset: 0x370E7, size: 0x8, addend: 0x0, symName: __ZNSt3__14pairIKNS_12basic_stringIcNS_11char_traitsIcEENS_9allocatorIcEEEEfED2Ev, symObjAddr: 0x17D30, symBinAddr: 0x10001BBB0, symSize: 0x20 }
  - { offsetInCU: 0x37113, offset: 0x37113, size: 0x8, addend: 0x0, symName: __ZNSt3__117__hash_value_typeINS_12basic_stringIcNS_11char_traitsIcEENS_9allocatorIcEEEEfE11__get_valueB7v160006Ev, symObjAddr: 0x17D50, symBinAddr: 0x10001BBD0, symSize: 0x10 }
  - { offsetInCU: 0x37139, offset: 0x37139, size: 0x8, addend: 0x0, symName: __ZNSt3__19allocatorINS_11__hash_nodeINS_17__hash_value_typeINS_12basic_stringIcNS_11char_traitsIcEENS0_IcEEEEfEEPvEEE10deallocateB7v160006EPSA_m, symObjAddr: 0x17D60, symBinAddr: 0x10001BBE0, symSize: 0x50 }
  - { offsetInCU: 0x3717B, offset: 0x3717B, size: 0x8, addend: 0x0, symName: __ZNSt3__122__compressed_pair_elemINS_16__hash_node_baseIPNS_11__hash_nodeINS_17__hash_value_typeINS_12basic_stringIcNS_11char_traitsIcEENS_9allocatorIcEEEEfEEPvEEEELi0ELb0EE5__getB7v160006Ev, symObjAddr: 0x17DB0, symBinAddr: 0x10001BC30, symSize: 0x10 }
  - { offsetInCU: 0x371A1, offset: 0x371A1, size: 0x8, addend: 0x0, symName: __ZNSt3__110unique_ptrIA_PNS_16__hash_node_baseIPNS_11__hash_nodeINS_17__hash_value_typeINS_12basic_stringIcNS_11char_traitsIcEENS_9allocatorIcEEEEfEEPvEEEENS_25__bucket_list_deallocatorINS7_ISF_EEEEED2B7v160006Ev, symObjAddr: 0x17DC0, symBinAddr: 0x10001BC40, symSize: 0x20 }
  - { offsetInCU: 0x371CB, offset: 0x371CB, size: 0x8, addend: 0x0, symName: __ZNSt3__110unique_ptrIA_PNS_16__hash_node_baseIPNS_11__hash_nodeINS_17__hash_value_typeINS_12basic_stringIcNS_11char_traitsIcEENS_9allocatorIcEEEEfEEPvEEEENS_25__bucket_list_deallocatorINS7_ISF_EEEEE5resetB7v160006EDn, symObjAddr: 0x17DE0, symBinAddr: 0x10001BC60, symSize: 0x60 }
  - { offsetInCU: 0x3720C, offset: 0x3720C, size: 0x8, addend: 0x0, symName: __ZNSt3__117__compressed_pairIPPNS_16__hash_node_baseIPNS_11__hash_nodeINS_17__hash_value_typeINS_12basic_stringIcNS_11char_traitsIcEENS_9allocatorIcEEEEfEEPvEEEENS_25__bucket_list_deallocatorINS7_ISF_EEEEE5firstB7v160006Ev, symObjAddr: 0x17E40, symBinAddr: 0x10001BCC0, symSize: 0x20 }
  - { offsetInCU: 0x37232, offset: 0x37232, size: 0x8, addend: 0x0, symName: __ZNSt3__117__compressed_pairIPPNS_16__hash_node_baseIPNS_11__hash_nodeINS_17__hash_value_typeINS_12basic_stringIcNS_11char_traitsIcEENS_9allocatorIcEEEEfEEPvEEEENS_25__bucket_list_deallocatorINS7_ISF_EEEEE6secondB7v160006Ev, symObjAddr: 0x17E60, symBinAddr: 0x10001BCE0, symSize: 0x20 }
  - { offsetInCU: 0x37258, offset: 0x37258, size: 0x8, addend: 0x0, symName: __ZNSt3__125__bucket_list_deallocatorINS_9allocatorIPNS_16__hash_node_baseIPNS_11__hash_nodeINS_17__hash_value_typeINS_12basic_stringIcNS_11char_traitsIcEENS1_IcEEEEfEEPvEEEEEEEclB7v160006EPSF_, symObjAddr: 0x17E80, symBinAddr: 0x10001BD00, symSize: 0x50 }
  - { offsetInCU: 0x3728D, offset: 0x3728D, size: 0x8, addend: 0x0, symName: __ZNSt3__122__compressed_pair_elemIPPNS_16__hash_node_baseIPNS_11__hash_nodeINS_17__hash_value_typeINS_12basic_stringIcNS_11char_traitsIcEENS_9allocatorIcEEEEfEEPvEEEELi0ELb0EE5__getB7v160006Ev, symObjAddr: 0x17ED0, symBinAddr: 0x10001BD50, symSize: 0x10 }
  - { offsetInCU: 0x372B3, offset: 0x372B3, size: 0x8, addend: 0x0, symName: __ZNSt3__122__compressed_pair_elemINS_25__bucket_list_deallocatorINS_9allocatorIPNS_16__hash_node_baseIPNS_11__hash_nodeINS_17__hash_value_typeINS_12basic_stringIcNS_11char_traitsIcEENS2_IcEEEEfEEPvEEEEEEEELi1ELb0EE5__getB7v160006Ev, symObjAddr: 0x17EE0, symBinAddr: 0x10001BD60, symSize: 0x10 }
  - { offsetInCU: 0x372D9, offset: 0x372D9, size: 0x8, addend: 0x0, symName: __ZNSt3__116allocator_traitsINS_9allocatorIPNS_16__hash_node_baseIPNS_11__hash_nodeINS_17__hash_value_typeINS_12basic_stringIcNS_11char_traitsIcEENS1_IcEEEEfEEPvEEEEEEE10deallocateB7v160006ERSG_PSF_m, symObjAddr: 0x17EF0, symBinAddr: 0x10001BD70, symSize: 0x30 }
  - { offsetInCU: 0x3731B, offset: 0x3731B, size: 0x8, addend: 0x0, symName: __ZNSt3__125__bucket_list_deallocatorINS_9allocatorIPNS_16__hash_node_baseIPNS_11__hash_nodeINS_17__hash_value_typeINS_12basic_stringIcNS_11char_traitsIcEENS1_IcEEEEfEEPvEEEEEEE7__allocB7v160006Ev, symObjAddr: 0x17F20, symBinAddr: 0x10001BDA0, symSize: 0x20 }
  - { offsetInCU: 0x37341, offset: 0x37341, size: 0x8, addend: 0x0, symName: __ZNSt3__125__bucket_list_deallocatorINS_9allocatorIPNS_16__hash_node_baseIPNS_11__hash_nodeINS_17__hash_value_typeINS_12basic_stringIcNS_11char_traitsIcEENS1_IcEEEEfEEPvEEEEEEE4sizeB7v160006Ev, symObjAddr: 0x17F40, symBinAddr: 0x10001BDC0, symSize: 0x20 }
  - { offsetInCU: 0x37367, offset: 0x37367, size: 0x8, addend: 0x0, symName: __ZNSt3__19allocatorIPNS_16__hash_node_baseIPNS_11__hash_nodeINS_17__hash_value_typeINS_12basic_stringIcNS_11char_traitsIcEENS0_IcEEEEfEEPvEEEEE10deallocateB7v160006EPSE_m, symObjAddr: 0x17F60, symBinAddr: 0x10001BDE0, symSize: 0x40 }
  - { offsetInCU: 0x373A9, offset: 0x373A9, size: 0x8, addend: 0x0, symName: __ZNSt3__117__compressed_pairImNS_9allocatorIPNS_16__hash_node_baseIPNS_11__hash_nodeINS_17__hash_value_typeINS_12basic_stringIcNS_11char_traitsIcEENS1_IcEEEEfEEPvEEEEEEE6secondB7v160006Ev, symObjAddr: 0x17FA0, symBinAddr: 0x10001BE20, symSize: 0x20 }
  - { offsetInCU: 0x373CF, offset: 0x373CF, size: 0x8, addend: 0x0, symName: __ZNSt3__122__compressed_pair_elemINS_9allocatorIPNS_16__hash_node_baseIPNS_11__hash_nodeINS_17__hash_value_typeINS_12basic_stringIcNS_11char_traitsIcEENS1_IcEEEEfEEPvEEEEEELi1ELb1EE5__getB7v160006Ev, symObjAddr: 0x17FC0, symBinAddr: 0x10001BE40, symSize: 0x10 }
  - { offsetInCU: 0x373F5, offset: 0x373F5, size: 0x8, addend: 0x0, symName: __ZNSt3__117__compressed_pairImNS_9allocatorIPNS_16__hash_node_baseIPNS_11__hash_nodeINS_17__hash_value_typeINS_12basic_stringIcNS_11char_traitsIcEENS1_IcEEEEfEEPvEEEEEEE5firstB7v160006Ev, symObjAddr: 0x17FD0, symBinAddr: 0x10001BE50, symSize: 0x20 }
  - { offsetInCU: 0x3741B, offset: 0x3741B, size: 0x8, addend: 0x0, symName: __ZNSt3__16__treeINS_12__value_typeINS_12basic_stringIcNS_11char_traitsIcEENS_9allocatorIcEEEENS_4listINS_4pairIS7_fEENS5_ISA_EEEEEENS_19__map_value_compareIS7_SD_NS_4lessIS7_EELb1EEENS5_ISD_EEE5beginB7v160006Ev, symObjAddr: 0x17FF0, symBinAddr: 0x10001BE70, symSize: 0x30 }
  - { offsetInCU: 0x37441, offset: 0x37441, size: 0x8, addend: 0x0, symName: __ZNSt3__114__map_iteratorINS_15__tree_iteratorINS_12__value_typeINS_12basic_stringIcNS_11char_traitsIcEENS_9allocatorIcEEEENS_4listINS_4pairIS8_fEENS6_ISB_EEEEEEPNS_11__tree_nodeISE_PvEElEEEC1B7v160006ESJ_, symObjAddr: 0x18020, symBinAddr: 0x10001BEA0, symSize: 0x30 }
  - { offsetInCU: 0x3747A, offset: 0x3747A, size: 0x8, addend: 0x0, symName: __ZNSt3__115__tree_iteratorINS_12__value_typeINS_12basic_stringIcNS_11char_traitsIcEENS_9allocatorIcEEEENS_4listINS_4pairIS7_fEENS5_ISA_EEEEEEPNS_11__tree_nodeISD_PvEElEC1B7v160006EPNS_15__tree_end_nodeIPNS_16__tree_node_baseISF_EEEE, symObjAddr: 0x18050, symBinAddr: 0x10001BED0, symSize: 0x30 }
  - { offsetInCU: 0x374B3, offset: 0x374B3, size: 0x8, addend: 0x0, symName: __ZNSt3__115__tree_iteratorINS_12__value_typeINS_12basic_stringIcNS_11char_traitsIcEENS_9allocatorIcEEEENS_4listINS_4pairIS7_fEENS5_ISA_EEEEEEPNS_11__tree_nodeISD_PvEElEC2B7v160006EPNS_15__tree_end_nodeIPNS_16__tree_node_baseISF_EEEE, symObjAddr: 0x18080, symBinAddr: 0x10001BF00, symSize: 0x20 }
  - { offsetInCU: 0x374EC, offset: 0x374EC, size: 0x8, addend: 0x0, symName: __ZNSt3__114__map_iteratorINS_15__tree_iteratorINS_12__value_typeINS_12basic_stringIcNS_11char_traitsIcEENS_9allocatorIcEEEENS_4listINS_4pairIS8_fEENS6_ISB_EEEEEEPNS_11__tree_nodeISE_PvEElEEEC2B7v160006ESJ_, symObjAddr: 0x180A0, symBinAddr: 0x10001BF20, symSize: 0x20 }
  - { offsetInCU: 0x37525, offset: 0x37525, size: 0x8, addend: 0x0, symName: __ZNSt3__16__treeINS_12__value_typeINS_12basic_stringIcNS_11char_traitsIcEENS_9allocatorIcEEEENS_4listINS_4pairIS7_fEENS5_ISA_EEEEEENS_19__map_value_compareIS7_SD_NS_4lessIS7_EELb1EEENS5_ISD_EEE3endB7v160006Ev, symObjAddr: 0x180C0, symBinAddr: 0x10001BF40, symSize: 0x30 }
  - { offsetInCU: 0x3754B, offset: 0x3754B, size: 0x8, addend: 0x0, symName: __ZNSt3__115__tree_iteratorINS_12__value_typeINS_12basic_stringIcNS_11char_traitsIcEENS_9allocatorIcEEEENS_4listINS_4pairIS7_fEENS5_ISA_EEEEEEPNS_11__tree_nodeISD_PvEElEppB7v160006Ev, symObjAddr: 0x18150, symBinAddr: 0x10001BFD0, symSize: 0x30 }
  - { offsetInCU: 0x37571, offset: 0x37571, size: 0x8, addend: 0x0, symName: __ZNSt3__112__hash_tableINS_17__hash_value_typeINS_12basic_stringIcNS_11char_traitsIcEENS_9allocatorIcEEEEfEENS_22__unordered_map_hasherIS7_S8_NS_4hashIS7_EENS_8equal_toIS7_EELb1EEENS_21__unordered_map_equalIS7_S8_SD_SB_Lb1EEENS5_IS8_EEE25__emplace_unique_key_argsIS7_JRKNS_21piecewise_construct_tENS_5tupleIJRKS7_EEENSN_IJEEEEEENS_4pairINS_15__hash_iteratorIPNS_11__hash_nodeIS8_PvEEEEbEERKT_DpOT0_, symObjAddr: 0x18180, symBinAddr: 0x10001C000, symSize: 0x600 }
  - { offsetInCU: 0x37679, offset: 0x37679, size: 0x8, addend: 0x0, symName: __ZNKSt3__115__hash_iteratorIPNS_11__hash_nodeINS_17__hash_value_typeINS_12basic_stringIcNS_11char_traitsIcEENS_9allocatorIcEEEEfEEPvEEEptB7v160006Ev, symObjAddr: 0x18780, symBinAddr: 0x10001C600, symSize: 0x30 }
  - { offsetInCU: 0x3769F, offset: 0x3769F, size: 0x8, addend: 0x0, symName: __ZNSt3__112__hash_tableINS_17__hash_value_typeINS_12basic_stringIcNS_11char_traitsIcEENS_9allocatorIcEEEEfEENS_22__unordered_map_hasherIS7_S8_NS_4hashIS7_EENS_8equal_toIS7_EELb1EEENS_21__unordered_map_equalIS7_S8_SD_SB_Lb1EEENS5_IS8_EEE13hash_functionB7v160006Ev, symObjAddr: 0x187B0, symBinAddr: 0x10001C630, symSize: 0x20 }
  - { offsetInCU: 0x376C5, offset: 0x376C5, size: 0x8, addend: 0x0, symName: __ZNKSt3__122__unordered_map_hasherINS_12basic_stringIcNS_11char_traitsIcEENS_9allocatorIcEEEENS_17__hash_value_typeIS6_fEENS_4hashIS6_EENS_8equal_toIS6_EELb1EEclB7v160006ERKS6_, symObjAddr: 0x187D0, symBinAddr: 0x10001C650, symSize: 0x30 }
  - { offsetInCU: 0x376FA, offset: 0x376FA, size: 0x8, addend: 0x0, symName: __ZNKSt3__112__hash_tableINS_17__hash_value_typeINS_12basic_stringIcNS_11char_traitsIcEENS_9allocatorIcEEEEfEENS_22__unordered_map_hasherIS7_S8_NS_4hashIS7_EENS_8equal_toIS7_EELb1EEENS_21__unordered_map_equalIS7_S8_SD_SB_Lb1EEENS5_IS8_EEE12bucket_countB7v160006Ev, symObjAddr: 0x18800, symBinAddr: 0x10001C680, symSize: 0x30 }
  - { offsetInCU: 0x37720, offset: 0x37720, size: 0x8, addend: 0x0, symName: __ZNKSt3__110unique_ptrIA_PNS_16__hash_node_baseIPNS_11__hash_nodeINS_17__hash_value_typeINS_12basic_stringIcNS_11char_traitsIcEENS_9allocatorIcEEEEfEEPvEEEENS_25__bucket_list_deallocatorINS7_ISF_EEEEEixB7v160006Em, symObjAddr: 0x18830, symBinAddr: 0x10001C6B0, symSize: 0x30 }
  - { offsetInCU: 0x37755, offset: 0x37755, size: 0x8, addend: 0x0, symName: __ZNKSt3__116__hash_node_baseIPNS_11__hash_nodeINS_17__hash_value_typeINS_12basic_stringIcNS_11char_traitsIcEENS_9allocatorIcEEEEfEEPvEEE6__hashB7v160006Ev, symObjAddr: 0x18860, symBinAddr: 0x10001C6E0, symSize: 0x20 }
  - { offsetInCU: 0x3777B, offset: 0x3777B, size: 0x8, addend: 0x0, symName: __ZNSt3__112__hash_tableINS_17__hash_value_typeINS_12basic_stringIcNS_11char_traitsIcEENS_9allocatorIcEEEEfEENS_22__unordered_map_hasherIS7_S8_NS_4hashIS7_EENS_8equal_toIS7_EELb1EEENS_21__unordered_map_equalIS7_S8_SD_SB_Lb1EEENS5_IS8_EEE6key_eqB7v160006Ev, symObjAddr: 0x18880, symBinAddr: 0x10001C700, symSize: 0x20 }
  - { offsetInCU: 0x377A1, offset: 0x377A1, size: 0x8, addend: 0x0, symName: __ZNKSt3__121__unordered_map_equalINS_12basic_stringIcNS_11char_traitsIcEENS_9allocatorIcEEEENS_17__hash_value_typeIS6_fEENS_8equal_toIS6_EENS_4hashIS6_EELb1EEclB7v160006ERKS8_RKS6_, symObjAddr: 0x188A0, symBinAddr: 0x10001C720, symSize: 0x40 }
  - { offsetInCU: 0x377E5, offset: 0x377E5, size: 0x8, addend: 0x0, symName: __ZNSt3__112__hash_tableINS_17__hash_value_typeINS_12basic_stringIcNS_11char_traitsIcEENS_9allocatorIcEEEEfEENS_22__unordered_map_hasherIS7_S8_NS_4hashIS7_EENS_8equal_toIS7_EELb1EEENS_21__unordered_map_equalIS7_S8_SD_SB_Lb1EEENS5_IS8_EEE21__construct_node_hashIRKNS_21piecewise_construct_tEJNS_5tupleIJRKS7_EEENSN_IJEEEEEENS_10unique_ptrINS_11__hash_nodeIS8_PvEENS_22__hash_node_destructorINS5_ISV_EEEEEEmOT_DpOT0_, symObjAddr: 0x188E0, symBinAddr: 0x10001C760, symSize: 0x150 }
  - { offsetInCU: 0x37881, offset: 0x37881, size: 0x8, addend: 0x0, symName: __ZNSt3__112__hash_tableINS_17__hash_value_typeINS_12basic_stringIcNS_11char_traitsIcEENS_9allocatorIcEEEEfEENS_22__unordered_map_hasherIS7_S8_NS_4hashIS7_EENS_8equal_toIS7_EELb1EEENS_21__unordered_map_equalIS7_S8_SD_SB_Lb1EEENS5_IS8_EEE4sizeB7v160006Ev, symObjAddr: 0x18A30, symBinAddr: 0x10001C8B0, symSize: 0x20 }
  - { offsetInCU: 0x378A7, offset: 0x378A7, size: 0x8, addend: 0x0, symName: __ZNSt3__112__hash_tableINS_17__hash_value_typeINS_12basic_stringIcNS_11char_traitsIcEENS_9allocatorIcEEEEfEENS_22__unordered_map_hasherIS7_S8_NS_4hashIS7_EENS_8equal_toIS7_EELb1EEENS_21__unordered_map_equalIS7_S8_SD_SB_Lb1EEENS5_IS8_EEE15max_load_factorB7v160006Ev, symObjAddr: 0x18A50, symBinAddr: 0x10001C8D0, symSize: 0x20 }
  - { offsetInCU: 0x378CD, offset: 0x378CD, size: 0x8, addend: 0x0, symName: __ZNSt3__112__hash_tableINS_17__hash_value_typeINS_12basic_stringIcNS_11char_traitsIcEENS_9allocatorIcEEEEfEENS_22__unordered_map_hasherIS7_S8_NS_4hashIS7_EENS_8equal_toIS7_EELb1EEENS_21__unordered_map_equalIS7_S8_SD_SB_Lb1EEENS5_IS8_EEE15__rehash_uniqueB7v160006Em, symObjAddr: 0x18A70, symBinAddr: 0x10001C8F0, symSize: 0x30 }
  - { offsetInCU: 0x37902, offset: 0x37902, size: 0x8, addend: 0x0, symName: __ZNSt3__116__hash_node_baseIPNS_11__hash_nodeINS_17__hash_value_typeINS_12basic_stringIcNS_11char_traitsIcEENS_9allocatorIcEEEEfEEPvEEE5__ptrB7v160006Ev, symObjAddr: 0x18AA0, symBinAddr: 0x10001C920, symSize: 0x20 }
  - { offsetInCU: 0x37928, offset: 0x37928, size: 0x8, addend: 0x0, symName: __ZNKSt3__110unique_ptrINS_11__hash_nodeINS_17__hash_value_typeINS_12basic_stringIcNS_11char_traitsIcEENS_9allocatorIcEEEEfEEPvEENS_22__hash_node_destructorINS6_ISB_EEEEEptB7v160006Ev, symObjAddr: 0x18AC0, symBinAddr: 0x10001C940, symSize: 0x20 }
  - { offsetInCU: 0x3794E, offset: 0x3794E, size: 0x8, addend: 0x0, symName: __ZNKSt3__110unique_ptrINS_11__hash_nodeINS_17__hash_value_typeINS_12basic_stringIcNS_11char_traitsIcEENS_9allocatorIcEEEEfEEPvEENS_22__hash_node_destructorINS6_ISB_EEEEE3getB7v160006Ev, symObjAddr: 0x18AE0, symBinAddr: 0x10001C960, symSize: 0x20 }
  - { offsetInCU: 0x37974, offset: 0x37974, size: 0x8, addend: 0x0, symName: __ZNSt3__110unique_ptrINS_11__hash_nodeINS_17__hash_value_typeINS_12basic_stringIcNS_11char_traitsIcEENS_9allocatorIcEEEEfEEPvEENS_22__hash_node_destructorINS6_ISB_EEEEE7releaseB7v160006Ev, symObjAddr: 0x18B00, symBinAddr: 0x10001C980, symSize: 0x40 }
  - { offsetInCU: 0x379A9, offset: 0x379A9, size: 0x8, addend: 0x0, symName: __ZNSt3__110unique_ptrINS_11__hash_nodeINS_17__hash_value_typeINS_12basic_stringIcNS_11char_traitsIcEENS_9allocatorIcEEEEfEEPvEENS_22__hash_node_destructorINS6_ISB_EEEEED1B7v160006Ev, symObjAddr: 0x18B40, symBinAddr: 0x10001C9C0, symSize: 0x20 }
  - { offsetInCU: 0x379D3, offset: 0x379D3, size: 0x8, addend: 0x0, symName: __ZNSt3__115__hash_iteratorIPNS_11__hash_nodeINS_17__hash_value_typeINS_12basic_stringIcNS_11char_traitsIcEENS_9allocatorIcEEEEfEEPvEEEC1B7v160006EPNS_16__hash_node_baseISC_EEPKv, symObjAddr: 0x18B60, symBinAddr: 0x10001C9E0, symSize: 0x30 }
  - { offsetInCU: 0x37A20, offset: 0x37A20, size: 0x8, addend: 0x0, symName: __ZNSt3__14pairINS_15__hash_iteratorIPNS_11__hash_nodeINS_17__hash_value_typeINS_12basic_stringIcNS_11char_traitsIcEENS_9allocatorIcEEEEfEEPvEEEEbEC1B7v160006ISE_RbLSB_0EEEOT_OT0_, symObjAddr: 0x18B90, symBinAddr: 0x10001CA10, symSize: 0x30 }
  - { offsetInCU: 0x37A7E, offset: 0x37A7E, size: 0x8, addend: 0x0, symName: __ZNSt3__117__compressed_pairImNS_22__unordered_map_hasherINS_12basic_stringIcNS_11char_traitsIcEENS_9allocatorIcEEEENS_17__hash_value_typeIS7_fEENS_4hashIS7_EENS_8equal_toIS7_EELb1EEEE6secondB7v160006Ev, symObjAddr: 0x18BC0, symBinAddr: 0x10001CA40, symSize: 0x20 }
  - { offsetInCU: 0x37AA4, offset: 0x37AA4, size: 0x8, addend: 0x0, symName: __ZNSt3__122__compressed_pair_elemINS_22__unordered_map_hasherINS_12basic_stringIcNS_11char_traitsIcEENS_9allocatorIcEEEENS_17__hash_value_typeIS7_fEENS_4hashIS7_EENS_8equal_toIS7_EELb1EEELi1ELb1EE5__getB7v160006Ev, symObjAddr: 0x18BE0, symBinAddr: 0x10001CA60, symSize: 0x10 }
  - { offsetInCU: 0x37ACA, offset: 0x37ACA, size: 0x8, addend: 0x0, symName: __ZNKSt3__113__string_hashIcNS_9allocatorIcEEEclERKNS_12basic_stringIcNS_11char_traitsIcEES2_EE, symObjAddr: 0x18BF0, symBinAddr: 0x10001CA70, symSize: 0x60 }
  - { offsetInCU: 0x37AFF, offset: 0x37AFF, size: 0x8, addend: 0x0, symName: __ZNSt3__121__murmur2_or_cityhashImLm64EEclEPKvm, symObjAddr: 0x18C90, symBinAddr: 0x10001CB10, symSize: 0x3D0 }
  - { offsetInCU: 0x37B98, offset: 0x37B98, size: 0x8, addend: 0x0, symName: __ZNSt3__121__murmur2_or_cityhashImLm64EE18__hash_len_0_to_16EPKcm, symObjAddr: 0x19060, symBinAddr: 0x10001CEE0, symSize: 0x180 }
  - { offsetInCU: 0x37C71, offset: 0x37C71, size: 0x8, addend: 0x0, symName: __ZNSt3__121__murmur2_or_cityhashImLm64EE19__hash_len_17_to_32EPKcm, symObjAddr: 0x191E0, symBinAddr: 0x10001D060, symSize: 0x100 }
  - { offsetInCU: 0x37CDA, offset: 0x37CDA, size: 0x8, addend: 0x0, symName: __ZNSt3__121__murmur2_or_cityhashImLm64EE19__hash_len_33_to_64EPKcm, symObjAddr: 0x192E0, symBinAddr: 0x10001D160, symSize: 0x260 }
  - { offsetInCU: 0x37D8C, offset: 0x37D8C, size: 0x8, addend: 0x0, symName: __ZNSt3__121__murmur2_or_cityhashImLm64EE13__hash_len_16Emm, symObjAddr: 0x19560, symBinAddr: 0x10001D3E0, symSize: 0x90 }
  - { offsetInCU: 0x37DE7, offset: 0x37DE7, size: 0x8, addend: 0x0, symName: __ZNSt3__121__murmur2_or_cityhashImLm64EE29__weak_hash_len_32_with_seedsEPKcmm, symObjAddr: 0x195F0, symBinAddr: 0x10001D470, symSize: 0x90 }
  - { offsetInCU: 0x37E26, offset: 0x37E26, size: 0x8, addend: 0x0, symName: __ZNSt3__121__murmur2_or_cityhashImLm64EE8__rotateEmi, symObjAddr: 0x19680, symBinAddr: 0x10001D500, symSize: 0x50 }
  - { offsetInCU: 0x37E57, offset: 0x37E57, size: 0x8, addend: 0x0, symName: __ZNSt3__14pairImmEaSB7v160006EOS1_, symObjAddr: 0x196D0, symBinAddr: 0x10001D550, symSize: 0x30 }
  - { offsetInCU: 0x37E8C, offset: 0x37E8C, size: 0x8, addend: 0x0, symName: __ZNSt3__121__murmur2_or_cityhashImLm64EE11__shift_mixEm, symObjAddr: 0x19740, symBinAddr: 0x10001D5C0, symSize: 0x20 }
  - { offsetInCU: 0x37EAF, offset: 0x37EAF, size: 0x8, addend: 0x0, symName: __ZNSt3__121__murmur2_or_cityhashImLm64EE22__rotate_by_at_least_1Emi, symObjAddr: 0x19760, symBinAddr: 0x10001D5E0, symSize: 0x30 }
  - { offsetInCU: 0x37EE0, offset: 0x37EE0, size: 0x8, addend: 0x0, symName: __ZNSt3__121__murmur2_or_cityhashImLm64EE29__weak_hash_len_32_with_seedsEmmmmmm, symObjAddr: 0x197B0, symBinAddr: 0x10001D630, symSize: 0xD0 }
  - { offsetInCU: 0x37F5D, offset: 0x37F5D, size: 0x8, addend: 0x0, symName: __ZNSt3__14pairImmEC1B7v160006ImmLPv0EEEOT_OT0_, symObjAddr: 0x19880, symBinAddr: 0x10001D700, symSize: 0x30 }
  - { offsetInCU: 0x37FBB, offset: 0x37FBB, size: 0x8, addend: 0x0, symName: __ZNSt3__14pairImmEC2B7v160006ImmLPv0EEEOT_OT0_, symObjAddr: 0x198B0, symBinAddr: 0x10001D730, symSize: 0x30 }
  - { offsetInCU: 0x38019, offset: 0x38019, size: 0x8, addend: 0x0, symName: __ZNKSt3__110unique_ptrIA_PNS_16__hash_node_baseIPNS_11__hash_nodeINS_17__hash_value_typeINS_12basic_stringIcNS_11char_traitsIcEENS_9allocatorIcEEEEfEEPvEEEENS_25__bucket_list_deallocatorINS7_ISF_EEEEE11get_deleterB7v160006Ev, symObjAddr: 0x198E0, symBinAddr: 0x10001D760, symSize: 0x20 }
  - { offsetInCU: 0x3803F, offset: 0x3803F, size: 0x8, addend: 0x0, symName: __ZNKSt3__125__bucket_list_deallocatorINS_9allocatorIPNS_16__hash_node_baseIPNS_11__hash_nodeINS_17__hash_value_typeINS_12basic_stringIcNS_11char_traitsIcEENS1_IcEEEEfEEPvEEEEEEE4sizeB7v160006Ev, symObjAddr: 0x19900, symBinAddr: 0x10001D780, symSize: 0x20 }
  - { offsetInCU: 0x38065, offset: 0x38065, size: 0x8, addend: 0x0, symName: __ZNKSt3__117__compressed_pairIPPNS_16__hash_node_baseIPNS_11__hash_nodeINS_17__hash_value_typeINS_12basic_stringIcNS_11char_traitsIcEENS_9allocatorIcEEEEfEEPvEEEENS_25__bucket_list_deallocatorINS7_ISF_EEEEE6secondB7v160006Ev, symObjAddr: 0x19920, symBinAddr: 0x10001D7A0, symSize: 0x20 }
  - { offsetInCU: 0x3808B, offset: 0x3808B, size: 0x8, addend: 0x0, symName: __ZNKSt3__122__compressed_pair_elemINS_25__bucket_list_deallocatorINS_9allocatorIPNS_16__hash_node_baseIPNS_11__hash_nodeINS_17__hash_value_typeINS_12basic_stringIcNS_11char_traitsIcEENS2_IcEEEEfEEPvEEEEEEEELi1ELb0EE5__getB7v160006Ev, symObjAddr: 0x19940, symBinAddr: 0x10001D7C0, symSize: 0x10 }
  - { offsetInCU: 0x380B1, offset: 0x380B1, size: 0x8, addend: 0x0, symName: __ZNKSt3__117__compressed_pairImNS_9allocatorIPNS_16__hash_node_baseIPNS_11__hash_nodeINS_17__hash_value_typeINS_12basic_stringIcNS_11char_traitsIcEENS1_IcEEEEfEEPvEEEEEEE5firstB7v160006Ev, symObjAddr: 0x19950, symBinAddr: 0x10001D7D0, symSize: 0x20 }
  - { offsetInCU: 0x380D7, offset: 0x380D7, size: 0x8, addend: 0x0, symName: __ZNKSt3__117__compressed_pairIPPNS_16__hash_node_baseIPNS_11__hash_nodeINS_17__hash_value_typeINS_12basic_stringIcNS_11char_traitsIcEENS_9allocatorIcEEEEfEEPvEEEENS_25__bucket_list_deallocatorINS7_ISF_EEEEE5firstB7v160006Ev, symObjAddr: 0x19970, symBinAddr: 0x10001D7F0, symSize: 0x20 }
  - { offsetInCU: 0x380FD, offset: 0x380FD, size: 0x8, addend: 0x0, symName: __ZNKSt3__122__compressed_pair_elemIPPNS_16__hash_node_baseIPNS_11__hash_nodeINS_17__hash_value_typeINS_12basic_stringIcNS_11char_traitsIcEENS_9allocatorIcEEEEfEEPvEEEELi0ELb0EE5__getB7v160006Ev, symObjAddr: 0x19990, symBinAddr: 0x10001D810, symSize: 0x10 }
  - { offsetInCU: 0x38123, offset: 0x38123, size: 0x8, addend: 0x0, symName: __ZNSt3__117__compressed_pairIfNS_21__unordered_map_equalINS_12basic_stringIcNS_11char_traitsIcEENS_9allocatorIcEEEENS_17__hash_value_typeIS7_fEENS_8equal_toIS7_EENS_4hashIS7_EELb1EEEE6secondB7v160006Ev, symObjAddr: 0x199A0, symBinAddr: 0x10001D820, symSize: 0x20 }
  - { offsetInCU: 0x38149, offset: 0x38149, size: 0x8, addend: 0x0, symName: __ZNSt3__122__compressed_pair_elemINS_21__unordered_map_equalINS_12basic_stringIcNS_11char_traitsIcEENS_9allocatorIcEEEENS_17__hash_value_typeIS7_fEENS_8equal_toIS7_EENS_4hashIS7_EELb1EEELi1ELb1EE5__getB7v160006Ev, symObjAddr: 0x199C0, symBinAddr: 0x10001D840, symSize: 0x10 }
  - { offsetInCU: 0x3816F, offset: 0x3816F, size: 0x8, addend: 0x0, symName: __ZNKSt3__18equal_toINS_12basic_stringIcNS_11char_traitsIcEENS_9allocatorIcEEEEEclB7v160006ERKS6_S9_, symObjAddr: 0x199D0, symBinAddr: 0x10001D850, symSize: 0x30 }
  - { offsetInCU: 0x381B3, offset: 0x381B3, size: 0x8, addend: 0x0, symName: __ZNKSt3__117__hash_value_typeINS_12basic_stringIcNS_11char_traitsIcEENS_9allocatorIcEEEEfE11__get_valueB7v160006Ev, symObjAddr: 0x19A00, symBinAddr: 0x10001D880, symSize: 0x10 }
  - { offsetInCU: 0x381D9, offset: 0x381D9, size: 0x8, addend: 0x0, symName: __ZNSt3__116allocator_traitsINS_9allocatorINS_11__hash_nodeINS_17__hash_value_typeINS_12basic_stringIcNS_11char_traitsIcEENS1_IcEEEEfEEPvEEEEE8allocateB7v160006ERSC_m, symObjAddr: 0x19A10, symBinAddr: 0x10001D890, symSize: 0x30 }
  - { offsetInCU: 0x3820C, offset: 0x3820C, size: 0x8, addend: 0x0, symName: __ZNSt3__122__hash_node_destructorINS_9allocatorINS_11__hash_nodeINS_17__hash_value_typeINS_12basic_stringIcNS_11char_traitsIcEENS1_IcEEEEfEEPvEEEEEC1B7v160006ERSC_b, symObjAddr: 0x19A40, symBinAddr: 0x10001D8C0, symSize: 0x40 }
  - { offsetInCU: 0x38259, offset: 0x38259, size: 0x8, addend: 0x0, symName: __ZNSt3__110unique_ptrINS_11__hash_nodeINS_17__hash_value_typeINS_12basic_stringIcNS_11char_traitsIcEENS_9allocatorIcEEEEfEEPvEENS_22__hash_node_destructorINS6_ISB_EEEEEC1B7v160006ILb1EvEEPSB_NS_16__dependent_typeINS_27__unique_ptr_deleter_sfinaeISE_EEXT_EE20__good_rval_ref_typeE, symObjAddr: 0x19A80, symBinAddr: 0x10001D900, symSize: 0x30 }
  - { offsetInCU: 0x382AA, offset: 0x382AA, size: 0x8, addend: 0x0, symName: __ZNSt3__116allocator_traitsINS_9allocatorINS_11__hash_nodeINS_17__hash_value_typeINS_12basic_stringIcNS_11char_traitsIcEENS1_IcEEEEfEEPvEEEEE9constructB7v160006INS_4pairIKS8_fEEJRKNS_21piecewise_construct_tENS_5tupleIJRSG_EEENSL_IJEEEEvEEvRSC_PT_DpOT0_, symObjAddr: 0x19AB0, symBinAddr: 0x10001D930, symSize: 0x40 }
  - { offsetInCU: 0x38329, offset: 0x38329, size: 0x8, addend: 0x0, symName: __ZNSt3__110unique_ptrINS_11__hash_nodeINS_17__hash_value_typeINS_12basic_stringIcNS_11char_traitsIcEENS_9allocatorIcEEEEfEEPvEENS_22__hash_node_destructorINS6_ISB_EEEEE11get_deleterB7v160006Ev, symObjAddr: 0x19AF0, symBinAddr: 0x10001D970, symSize: 0x20 }
  - { offsetInCU: 0x3834F, offset: 0x3834F, size: 0x8, addend: 0x0, symName: __ZNSt3__19allocatorINS_11__hash_nodeINS_17__hash_value_typeINS_12basic_stringIcNS_11char_traitsIcEENS0_IcEEEEfEEPvEEE8allocateB7v160006Em, symObjAddr: 0x19B10, symBinAddr: 0x10001D990, symSize: 0x50 }
  - { offsetInCU: 0x3838D, offset: 0x3838D, size: 0x8, addend: 0x0, symName: __ZNSt3__116allocator_traitsINS_9allocatorINS_11__hash_nodeINS_17__hash_value_typeINS_12basic_stringIcNS_11char_traitsIcEENS1_IcEEEEfEEPvEEEEE8max_sizeB7v160006ISC_vEEmRKSC_, symObjAddr: 0x19B60, symBinAddr: 0x10001D9E0, symSize: 0x20 }
  - { offsetInCU: 0x383BB, offset: 0x383BB, size: 0x8, addend: 0x0, symName: __ZNKSt3__19allocatorINS_11__hash_nodeINS_17__hash_value_typeINS_12basic_stringIcNS_11char_traitsIcEENS0_IcEEEEfEEPvEEE8max_sizeB7v160006Ev, symObjAddr: 0x19B80, symBinAddr: 0x10001DA00, symSize: 0x20 }
  - { offsetInCU: 0x383E1, offset: 0x383E1, size: 0x8, addend: 0x0, symName: __ZNSt3__122__hash_node_destructorINS_9allocatorINS_11__hash_nodeINS_17__hash_value_typeINS_12basic_stringIcNS_11char_traitsIcEENS1_IcEEEEfEEPvEEEEEC2B7v160006ERSC_b, symObjAddr: 0x19BA0, symBinAddr: 0x10001DA20, symSize: 0x30 }
  - { offsetInCU: 0x38429, offset: 0x38429, size: 0x8, addend: 0x0, symName: __ZNSt3__110unique_ptrINS_11__hash_nodeINS_17__hash_value_typeINS_12basic_stringIcNS_11char_traitsIcEENS_9allocatorIcEEEEfEEPvEENS_22__hash_node_destructorINS6_ISB_EEEEEC2B7v160006ILb1EvEEPSB_NS_16__dependent_typeINS_27__unique_ptr_deleter_sfinaeISE_EEXT_EE20__good_rval_ref_typeE, symObjAddr: 0x19BD0, symBinAddr: 0x10001DA50, symSize: 0x40 }
  - { offsetInCU: 0x3847A, offset: 0x3847A, size: 0x8, addend: 0x0, symName: __ZNSt3__117__compressed_pairIPNS_11__hash_nodeINS_17__hash_value_typeINS_12basic_stringIcNS_11char_traitsIcEENS_9allocatorIcEEEEfEEPvEENS_22__hash_node_destructorINS6_ISB_EEEEEC1B7v160006IRSC_SF_EEOT_OT0_, symObjAddr: 0x19C10, symBinAddr: 0x10001DA90, symSize: 0x30 }
  - { offsetInCU: 0x384D2, offset: 0x384D2, size: 0x8, addend: 0x0, symName: __ZNSt3__117__compressed_pairIPNS_11__hash_nodeINS_17__hash_value_typeINS_12basic_stringIcNS_11char_traitsIcEENS_9allocatorIcEEEEfEEPvEENS_22__hash_node_destructorINS6_ISB_EEEEEC2B7v160006IRSC_SF_EEOT_OT0_, symObjAddr: 0x19C40, symBinAddr: 0x10001DAC0, symSize: 0x40 }
  - { offsetInCU: 0x3852A, offset: 0x3852A, size: 0x8, addend: 0x0, symName: __ZNSt3__122__compressed_pair_elemIPNS_11__hash_nodeINS_17__hash_value_typeINS_12basic_stringIcNS_11char_traitsIcEENS_9allocatorIcEEEEfEEPvEELi0ELb0EEC2B7v160006IRSC_vEEOT_, symObjAddr: 0x19C80, symBinAddr: 0x10001DB00, symSize: 0x20 }
  - { offsetInCU: 0x3856C, offset: 0x3856C, size: 0x8, addend: 0x0, symName: __ZNSt3__122__compressed_pair_elemINS_22__hash_node_destructorINS_9allocatorINS_11__hash_nodeINS_17__hash_value_typeINS_12basic_stringIcNS_11char_traitsIcEENS2_IcEEEEfEEPvEEEEEELi1ELb0EEC2B7v160006ISE_vEEOT_, symObjAddr: 0x19CA0, symBinAddr: 0x10001DB20, symSize: 0x30 }
  - { offsetInCU: 0x385AE, offset: 0x385AE, size: 0x8, addend: 0x0, symName: __ZNSt3__19allocatorINS_11__hash_nodeINS_17__hash_value_typeINS_12basic_stringIcNS_11char_traitsIcEENS0_IcEEEEfEEPvEEE9constructB7v160006INS_4pairIKS7_fEEJRKNS_21piecewise_construct_tENS_5tupleIJRSE_EEENSJ_IJEEEEEEvPT_DpOT0_, symObjAddr: 0x19CD0, symBinAddr: 0x10001DB50, symSize: 0x40 }
  - { offsetInCU: 0x3862A, offset: 0x3862A, size: 0x8, addend: 0x0, symName: __ZNSt3__14pairIKNS_12basic_stringIcNS_11char_traitsIcEENS_9allocatorIcEEEEfEC1B7v160006IJRS7_EJEEENS_21piecewise_construct_tENS_5tupleIJDpT_EEENSC_IJDpT0_EEE, symObjAddr: 0x19D10, symBinAddr: 0x10001DB90, symSize: 0x30 }
  - { offsetInCU: 0x38691, offset: 0x38691, size: 0x8, addend: 0x0, symName: __ZNSt3__14pairIKNS_12basic_stringIcNS_11char_traitsIcEENS_9allocatorIcEEEEfEC1B7v160006IJRS7_EJEJLm0EEJEEENS_21piecewise_construct_tERNS_5tupleIJDpT_EEERNSC_IJDpT0_EEENS_15__tuple_indicesIJXspT1_EEEENSL_IJXspT2_EEEE, symObjAddr: 0x19D40, symBinAddr: 0x10001DBC0, symSize: 0x30 }
  - { offsetInCU: 0x38721, offset: 0x38721, size: 0x8, addend: 0x0, symName: __ZNSt3__14pairIKNS_12basic_stringIcNS_11char_traitsIcEENS_9allocatorIcEEEEfEC2B7v160006IJRS7_EJEJLm0EEJEEENS_21piecewise_construct_tERNS_5tupleIJDpT_EEERNSC_IJDpT0_EEENS_15__tuple_indicesIJXspT1_EEEENSL_IJXspT2_EEEE, symObjAddr: 0x19D70, symBinAddr: 0x10001DBF0, symSize: 0x50 }
  - { offsetInCU: 0x387B1, offset: 0x387B1, size: 0x8, addend: 0x0, symName: __ZNSt3__117__compressed_pairIPNS_11__hash_nodeINS_17__hash_value_typeINS_12basic_stringIcNS_11char_traitsIcEENS_9allocatorIcEEEEfEEPvEENS_22__hash_node_destructorINS6_ISB_EEEEE6secondB7v160006Ev, symObjAddr: 0x19DC0, symBinAddr: 0x10001DC40, symSize: 0x20 }
  - { offsetInCU: 0x387D7, offset: 0x387D7, size: 0x8, addend: 0x0, symName: __ZNSt3__122__compressed_pair_elemINS_22__hash_node_destructorINS_9allocatorINS_11__hash_nodeINS_17__hash_value_typeINS_12basic_stringIcNS_11char_traitsIcEENS2_IcEEEEfEEPvEEEEEELi1ELb0EE5__getB7v160006Ev, symObjAddr: 0x19DE0, symBinAddr: 0x10001DC60, symSize: 0x10 }
  - { offsetInCU: 0x387FD, offset: 0x387FD, size: 0x8, addend: 0x0, symName: __ZNSt3__117__compressed_pairImNS_22__unordered_map_hasherINS_12basic_stringIcNS_11char_traitsIcEENS_9allocatorIcEEEENS_17__hash_value_typeIS7_fEENS_4hashIS7_EENS_8equal_toIS7_EELb1EEEE5firstB7v160006Ev, symObjAddr: 0x19DF0, symBinAddr: 0x10001DC70, symSize: 0x20 }
  - { offsetInCU: 0x38823, offset: 0x38823, size: 0x8, addend: 0x0, symName: __ZNSt3__117__compressed_pairIfNS_21__unordered_map_equalINS_12basic_stringIcNS_11char_traitsIcEENS_9allocatorIcEEEENS_17__hash_value_typeIS7_fEENS_8equal_toIS7_EENS_4hashIS7_EELb1EEEE5firstB7v160006Ev, symObjAddr: 0x19E10, symBinAddr: 0x10001DC90, symSize: 0x20 }
  - { offsetInCU: 0x38849, offset: 0x38849, size: 0x8, addend: 0x0, symName: __ZNSt3__112__hash_tableINS_17__hash_value_typeINS_12basic_stringIcNS_11char_traitsIcEENS_9allocatorIcEEEEfEENS_22__unordered_map_hasherIS7_S8_NS_4hashIS7_EENS_8equal_toIS7_EELb1EEENS_21__unordered_map_equalIS7_S8_SD_SB_Lb1EEENS5_IS8_EEE8__rehashILb1EEEvm, symObjAddr: 0x19E30, symBinAddr: 0x10001DCB0, symSize: 0x230 }
  - { offsetInCU: 0x38899, offset: 0x38899, size: 0x8, addend: 0x0, symName: __ZNSt3__112__hash_tableINS_17__hash_value_typeINS_12basic_stringIcNS_11char_traitsIcEENS_9allocatorIcEEEEfEENS_22__unordered_map_hasherIS7_S8_NS_4hashIS7_EENS_8equal_toIS7_EELb1EEENS_21__unordered_map_equalIS7_S8_SD_SB_Lb1EEENS5_IS8_EEE11__do_rehashILb1EEEvm, symObjAddr: 0x1A060, symBinAddr: 0x10001DEE0, symSize: 0x260 }
  - { offsetInCU: 0x3897C, offset: 0x3897C, size: 0x8, addend: 0x0, symName: __ZNSt3__110unique_ptrIA_PNS_16__hash_node_baseIPNS_11__hash_nodeINS_17__hash_value_typeINS_12basic_stringIcNS_11char_traitsIcEENS_9allocatorIcEEEEfEEPvEEEENS_25__bucket_list_deallocatorINS7_ISF_EEEEE11get_deleterB7v160006Ev, symObjAddr: 0x1A2D0, symBinAddr: 0x10001E150, symSize: 0x20 }
  - { offsetInCU: 0x389A2, offset: 0x389A2, size: 0x8, addend: 0x0, symName: __ZNSt3__110unique_ptrIA_PNS_16__hash_node_baseIPNS_11__hash_nodeINS_17__hash_value_typeINS_12basic_stringIcNS_11char_traitsIcEENS_9allocatorIcEEEEfEEPvEEEENS_25__bucket_list_deallocatorINS7_ISF_EEEEE5resetB7v160006IPSF_EENS_9enable_ifIXsr28_CheckArrayPointerConversionIT_EE5valueEvE4typeESO_, symObjAddr: 0x1A2F0, symBinAddr: 0x10001E170, symSize: 0x70 }
  - { offsetInCU: 0x389EF, offset: 0x389EF, size: 0x8, addend: 0x0, symName: __ZNSt3__116allocator_traitsINS_9allocatorIPNS_16__hash_node_baseIPNS_11__hash_nodeINS_17__hash_value_typeINS_12basic_stringIcNS_11char_traitsIcEENS1_IcEEEEfEEPvEEEEEEE8allocateB7v160006ERSG_m, symObjAddr: 0x1A360, symBinAddr: 0x10001E1E0, symSize: 0x30 }
  - { offsetInCU: 0x38A22, offset: 0x38A22, size: 0x8, addend: 0x0, symName: __ZNSt3__19allocatorIPNS_16__hash_node_baseIPNS_11__hash_nodeINS_17__hash_value_typeINS_12basic_stringIcNS_11char_traitsIcEENS0_IcEEEEfEEPvEEEEE8allocateB7v160006Em, symObjAddr: 0x1A390, symBinAddr: 0x10001E210, symSize: 0x50 }
  - { offsetInCU: 0x38A60, offset: 0x38A60, size: 0x8, addend: 0x0, symName: __ZNSt3__116allocator_traitsINS_9allocatorIPNS_16__hash_node_baseIPNS_11__hash_nodeINS_17__hash_value_typeINS_12basic_stringIcNS_11char_traitsIcEENS1_IcEEEEfEEPvEEEEEEE8max_sizeB7v160006ISG_vEEmRKSG_, symObjAddr: 0x1A3E0, symBinAddr: 0x10001E260, symSize: 0x20 }
  - { offsetInCU: 0x38A8E, offset: 0x38A8E, size: 0x8, addend: 0x0, symName: __ZNKSt3__19allocatorIPNS_16__hash_node_baseIPNS_11__hash_nodeINS_17__hash_value_typeINS_12basic_stringIcNS_11char_traitsIcEENS0_IcEEEEfEEPvEEEEE8max_sizeB7v160006Ev, symObjAddr: 0x1A400, symBinAddr: 0x10001E280, symSize: 0x20 }
  - { offsetInCU: 0x38AB4, offset: 0x38AB4, size: 0x8, addend: 0x0, symName: __ZNKSt3__117__compressed_pairIPNS_11__hash_nodeINS_17__hash_value_typeINS_12basic_stringIcNS_11char_traitsIcEENS_9allocatorIcEEEEfEEPvEENS_22__hash_node_destructorINS6_ISB_EEEEE5firstB7v160006Ev, symObjAddr: 0x1A420, symBinAddr: 0x10001E2A0, symSize: 0x20 }
  - { offsetInCU: 0x38ADA, offset: 0x38ADA, size: 0x8, addend: 0x0, symName: __ZNKSt3__122__compressed_pair_elemIPNS_11__hash_nodeINS_17__hash_value_typeINS_12basic_stringIcNS_11char_traitsIcEENS_9allocatorIcEEEEfEEPvEELi0ELb0EE5__getB7v160006Ev, symObjAddr: 0x1A440, symBinAddr: 0x10001E2C0, symSize: 0x10 }
  - { offsetInCU: 0x38B00, offset: 0x38B00, size: 0x8, addend: 0x0, symName: __ZNSt3__117__compressed_pairIPNS_11__hash_nodeINS_17__hash_value_typeINS_12basic_stringIcNS_11char_traitsIcEENS_9allocatorIcEEEEfEEPvEENS_22__hash_node_destructorINS6_ISB_EEEEE5firstB7v160006Ev, symObjAddr: 0x1A450, symBinAddr: 0x10001E2D0, symSize: 0x20 }
  - { offsetInCU: 0x38B26, offset: 0x38B26, size: 0x8, addend: 0x0, symName: __ZNSt3__122__compressed_pair_elemIPNS_11__hash_nodeINS_17__hash_value_typeINS_12basic_stringIcNS_11char_traitsIcEENS_9allocatorIcEEEEfEEPvEELi0ELb0EE5__getB7v160006Ev, symObjAddr: 0x1A470, symBinAddr: 0x10001E2F0, symSize: 0x10 }
  - { offsetInCU: 0x38B4C, offset: 0x38B4C, size: 0x8, addend: 0x0, symName: __ZNSt3__110unique_ptrINS_11__hash_nodeINS_17__hash_value_typeINS_12basic_stringIcNS_11char_traitsIcEENS_9allocatorIcEEEEfEEPvEENS_22__hash_node_destructorINS6_ISB_EEEEED2B7v160006Ev, symObjAddr: 0x1A480, symBinAddr: 0x10001E300, symSize: 0x20 }
  - { offsetInCU: 0x38B76, offset: 0x38B76, size: 0x8, addend: 0x0, symName: __ZNSt3__110unique_ptrINS_11__hash_nodeINS_17__hash_value_typeINS_12basic_stringIcNS_11char_traitsIcEENS_9allocatorIcEEEEfEEPvEENS_22__hash_node_destructorINS6_ISB_EEEEE5resetB7v160006EPSB_, symObjAddr: 0x1A4A0, symBinAddr: 0x10001E320, symSize: 0x70 }
  - { offsetInCU: 0x38BBA, offset: 0x38BBA, size: 0x8, addend: 0x0, symName: __ZNSt3__122__hash_node_destructorINS_9allocatorINS_11__hash_nodeINS_17__hash_value_typeINS_12basic_stringIcNS_11char_traitsIcEENS1_IcEEEEfEEPvEEEEEclB7v160006EPSB_, symObjAddr: 0x1A510, symBinAddr: 0x10001E390, symSize: 0x80 }
  - { offsetInCU: 0x38BEF, offset: 0x38BEF, size: 0x8, addend: 0x0, symName: __ZNSt3__115__hash_iteratorIPNS_11__hash_nodeINS_17__hash_value_typeINS_12basic_stringIcNS_11char_traitsIcEENS_9allocatorIcEEEEfEEPvEEEC2B7v160006EPNS_16__hash_node_baseISC_EEPKv, symObjAddr: 0x1A590, symBinAddr: 0x10001E410, symSize: 0x20 }
  - { offsetInCU: 0x38C37, offset: 0x38C37, size: 0x8, addend: 0x0, symName: __ZNSt3__14pairINS_15__hash_iteratorIPNS_11__hash_nodeINS_17__hash_value_typeINS_12basic_stringIcNS_11char_traitsIcEENS_9allocatorIcEEEEfEEPvEEEEbEC2B7v160006ISE_RbLSB_0EEEOT_OT0_, symObjAddr: 0x1A5B0, symBinAddr: 0x10001E430, symSize: 0x30 }
  - { offsetInCU: 0x38C95, offset: 0x38C95, size: 0x8, addend: 0x0, symName: __ZNSt3__114pointer_traitsIPNS_17__hash_value_typeINS_12basic_stringIcNS_11char_traitsIcEENS_9allocatorIcEEEEfEEE10pointer_toB7v160006ERS8_, symObjAddr: 0x1A5E0, symBinAddr: 0x10001E460, symSize: 0x10 }
  - { offsetInCU: 0x38CB8, offset: 0x38CB8, size: 0x8, addend: 0x0, symName: __ZNSt3__13setINS_4pairIfNS_12basic_stringIcNS_11char_traitsIcEENS_9allocatorIcEEEEEENS_4lessIS8_EENS5_IS8_EEEC2B7v160006Ev, symObjAddr: 0x1A5F0, symBinAddr: 0x10001E470, symSize: 0x20 }
  - { offsetInCU: 0x38CE2, offset: 0x38CE2, size: 0x8, addend: 0x0, symName: __ZNSt3__16__treeINS_4pairIfNS_12basic_stringIcNS_11char_traitsIcEENS_9allocatorIcEEEEEENS_4lessIS8_EENS5_IS8_EEEC1ERKSA_, symObjAddr: 0x1A610, symBinAddr: 0x10001E490, symSize: 0x30 }
  - { offsetInCU: 0x38D1D, offset: 0x38D1D, size: 0x8, addend: 0x0, symName: __ZNSt3__16__treeINS_4pairIfNS_12basic_stringIcNS_11char_traitsIcEENS_9allocatorIcEEEEEENS_4lessIS8_EENS5_IS8_EEEC2ERKSA_, symObjAddr: 0x1A640, symBinAddr: 0x10001E4C0, symSize: 0x80 }
  - { offsetInCU: 0x38D58, offset: 0x38D58, size: 0x8, addend: 0x0, symName: __ZNSt3__117__compressed_pairINS_15__tree_end_nodeIPNS_16__tree_node_baseIPvEEEENS_9allocatorINS_11__tree_nodeINS_4pairIfNS_12basic_stringIcNS_11char_traitsIcEENS7_IcEEEEEES3_EEEEEC1B7v160006ILb1EvEEv, symObjAddr: 0x1A6C0, symBinAddr: 0x10001E540, symSize: 0x20 }
  - { offsetInCU: 0x38D8D, offset: 0x38D8D, size: 0x8, addend: 0x0, symName: __ZNSt3__117__compressed_pairImNS_4lessINS_4pairIfNS_12basic_stringIcNS_11char_traitsIcEENS_9allocatorIcEEEEEEEEEC1B7v160006IiRKSA_EEOT_OT0_, symObjAddr: 0x1A6E0, symBinAddr: 0x10001E560, symSize: 0x30 }
  - { offsetInCU: 0x38DE5, offset: 0x38DE5, size: 0x8, addend: 0x0, symName: __ZNSt3__16__treeINS_4pairIfNS_12basic_stringIcNS_11char_traitsIcEENS_9allocatorIcEEEEEENS_4lessIS8_EENS5_IS8_EEE10__end_nodeB7v160006Ev, symObjAddr: 0x1A710, symBinAddr: 0x10001E590, symSize: 0x30 }
  - { offsetInCU: 0x38E0B, offset: 0x38E0B, size: 0x8, addend: 0x0, symName: __ZNSt3__16__treeINS_4pairIfNS_12basic_stringIcNS_11char_traitsIcEENS_9allocatorIcEEEEEENS_4lessIS8_EENS5_IS8_EEE12__begin_nodeB7v160006Ev, symObjAddr: 0x1A740, symBinAddr: 0x10001E5C0, symSize: 0x10 }
  - { offsetInCU: 0x38E31, offset: 0x38E31, size: 0x8, addend: 0x0, symName: __ZNSt3__117__compressed_pairINS_15__tree_end_nodeIPNS_16__tree_node_baseIPvEEEENS_9allocatorINS_11__tree_nodeINS_4pairIfNS_12basic_stringIcNS_11char_traitsIcEENS7_IcEEEEEES3_EEEEEC2B7v160006ILb1EvEEv, symObjAddr: 0x1A750, symBinAddr: 0x10001E5D0, symSize: 0x30 }
  - { offsetInCU: 0x38E66, offset: 0x38E66, size: 0x8, addend: 0x0, symName: __ZNSt3__122__compressed_pair_elemINS_9allocatorINS_11__tree_nodeINS_4pairIfNS_12basic_stringIcNS_11char_traitsIcEENS1_IcEEEEEEPvEEEELi1ELb1EEC2B7v160006ENS_16__value_init_tagE, symObjAddr: 0x1A780, symBinAddr: 0x10001E600, symSize: 0x20 }
  - { offsetInCU: 0x38E9B, offset: 0x38E9B, size: 0x8, addend: 0x0, symName: __ZNSt3__19allocatorINS_11__tree_nodeINS_4pairIfNS_12basic_stringIcNS_11char_traitsIcEENS0_IcEEEEEEPvEEEC2B7v160006Ev, symObjAddr: 0x1A7A0, symBinAddr: 0x10001E620, symSize: 0x20 }
  - { offsetInCU: 0x38EC5, offset: 0x38EC5, size: 0x8, addend: 0x0, symName: __ZNSt3__116__non_trivial_ifILb1ENS_9allocatorINS_11__tree_nodeINS_4pairIfNS_12basic_stringIcNS_11char_traitsIcEENS1_IcEEEEEEPvEEEEEC2B7v160006Ev, symObjAddr: 0x1A7C0, symBinAddr: 0x10001E640, symSize: 0x10 }
  - { offsetInCU: 0x38EEF, offset: 0x38EEF, size: 0x8, addend: 0x0, symName: __ZNSt3__117__compressed_pairImNS_4lessINS_4pairIfNS_12basic_stringIcNS_11char_traitsIcEENS_9allocatorIcEEEEEEEEEC2B7v160006IiRKSA_EEOT_OT0_, symObjAddr: 0x1A7D0, symBinAddr: 0x10001E650, symSize: 0x40 }
  - { offsetInCU: 0x38F47, offset: 0x38F47, size: 0x8, addend: 0x0, symName: __ZNSt3__122__compressed_pair_elemINS_4lessINS_4pairIfNS_12basic_stringIcNS_11char_traitsIcEENS_9allocatorIcEEEEEEEELi1ELb1EEC2B7v160006IRKSA_vEEOT_, symObjAddr: 0x1A810, symBinAddr: 0x10001E690, symSize: 0x10 }
  - { offsetInCU: 0x38F89, offset: 0x38F89, size: 0x8, addend: 0x0, symName: __ZNSt3__117__compressed_pairINS_15__tree_end_nodeIPNS_16__tree_node_baseIPvEEEENS_9allocatorINS_11__tree_nodeINS_4pairIfNS_12basic_stringIcNS_11char_traitsIcEENS7_IcEEEEEES3_EEEEE5firstB7v160006Ev, symObjAddr: 0x1A820, symBinAddr: 0x10001E6A0, symSize: 0x20 }
  - { offsetInCU: 0x38FAF, offset: 0x38FAF, size: 0x8, addend: 0x0, symName: __ZNSt3__13setINS_4pairIfNS_12basic_stringIcNS_11char_traitsIcEENS_9allocatorIcEEEEEENS_4lessIS8_EENS5_IS8_EEED2B7v160006Ev, symObjAddr: 0x1A840, symBinAddr: 0x10001E6C0, symSize: 0x20 }
  - { offsetInCU: 0x38FD9, offset: 0x38FD9, size: 0x8, addend: 0x0, symName: __ZNSt3__16__treeINS_4pairIfNS_12basic_stringIcNS_11char_traitsIcEENS_9allocatorIcEEEEEENS_4lessIS8_EENS5_IS8_EEED1Ev, symObjAddr: 0x1A860, symBinAddr: 0x10001E6E0, symSize: 0x20 }
  - { offsetInCU: 0x39005, offset: 0x39005, size: 0x8, addend: 0x0, symName: __ZNSt3__16__treeINS_4pairIfNS_12basic_stringIcNS_11char_traitsIcEENS_9allocatorIcEEEEEENS_4lessIS8_EENS5_IS8_EEED2Ev, symObjAddr: 0x1A880, symBinAddr: 0x10001E700, symSize: 0x30 }
  - { offsetInCU: 0x39031, offset: 0x39031, size: 0x8, addend: 0x0, symName: __ZNSt3__16__treeINS_4pairIfNS_12basic_stringIcNS_11char_traitsIcEENS_9allocatorIcEEEEEENS_4lessIS8_EENS5_IS8_EEE7destroyEPNS_11__tree_nodeIS8_PvEE, symObjAddr: 0x1A8B0, symBinAddr: 0x10001E730, symSize: 0xB0 }
  - { offsetInCU: 0x3907D, offset: 0x3907D, size: 0x8, addend: 0x0, symName: __ZNKSt3__16__treeINS_4pairIfNS_12basic_stringIcNS_11char_traitsIcEENS_9allocatorIcEEEEEENS_4lessIS8_EENS5_IS8_EEE6__rootB7v160006Ev, symObjAddr: 0x1A960, symBinAddr: 0x10001E7E0, symSize: 0x20 }
  - { offsetInCU: 0x390A3, offset: 0x390A3, size: 0x8, addend: 0x0, symName: __ZNSt3__16__treeINS_4pairIfNS_12basic_stringIcNS_11char_traitsIcEENS_9allocatorIcEEEEEENS_4lessIS8_EENS5_IS8_EEE12__node_allocB7v160006Ev, symObjAddr: 0x1A980, symBinAddr: 0x10001E800, symSize: 0x20 }
  - { offsetInCU: 0x390C9, offset: 0x390C9, size: 0x8, addend: 0x0, symName: __ZNSt3__116allocator_traitsINS_9allocatorINS_11__tree_nodeINS_4pairIfNS_12basic_stringIcNS_11char_traitsIcEENS1_IcEEEEEEPvEEEEE7destroyB7v160006IS9_vvEEvRSC_PT_, symObjAddr: 0x1A9A0, symBinAddr: 0x10001E820, symSize: 0x20 }
  - { offsetInCU: 0x39104, offset: 0x39104, size: 0x8, addend: 0x0, symName: __ZNSt3__122__tree_key_value_typesINS_4pairIfNS_12basic_stringIcNS_11char_traitsIcEENS_9allocatorIcEEEEEEE9__get_ptrB7v160006ERS8_, symObjAddr: 0x1A9C0, symBinAddr: 0x10001E840, symSize: 0x10 }
  - { offsetInCU: 0x39128, offset: 0x39128, size: 0x8, addend: 0x0, symName: __ZNSt3__116allocator_traitsINS_9allocatorINS_11__tree_nodeINS_4pairIfNS_12basic_stringIcNS_11char_traitsIcEENS1_IcEEEEEEPvEEEEE10deallocateB7v160006ERSC_PSB_m, symObjAddr: 0x1A9D0, symBinAddr: 0x10001E850, symSize: 0x30 }
  - { offsetInCU: 0x3916A, offset: 0x3916A, size: 0x8, addend: 0x0, symName: __ZNSt3__117__compressed_pairINS_15__tree_end_nodeIPNS_16__tree_node_baseIPvEEEENS_9allocatorINS_11__tree_nodeINS_4pairIfNS_12basic_stringIcNS_11char_traitsIcEENS7_IcEEEEEES3_EEEEE6secondB7v160006Ev, symObjAddr: 0x1AA00, symBinAddr: 0x10001E880, symSize: 0x20 }
  - { offsetInCU: 0x39190, offset: 0x39190, size: 0x8, addend: 0x0, symName: __ZNSt3__122__compressed_pair_elemINS_9allocatorINS_11__tree_nodeINS_4pairIfNS_12basic_stringIcNS_11char_traitsIcEENS1_IcEEEEEEPvEEEELi1ELb1EE5__getB7v160006Ev, symObjAddr: 0x1AA20, symBinAddr: 0x10001E8A0, symSize: 0x10 }
  - { offsetInCU: 0x391B6, offset: 0x391B6, size: 0x8, addend: 0x0, symName: __ZNSt3__19allocatorINS_11__tree_nodeINS_4pairIfNS_12basic_stringIcNS_11char_traitsIcEENS0_IcEEEEEEPvEEE10deallocateB7v160006EPSA_m, symObjAddr: 0x1AA30, symBinAddr: 0x10001E8B0, symSize: 0x40 }
  - { offsetInCU: 0x391F8, offset: 0x391F8, size: 0x8, addend: 0x0, symName: __ZNKSt3__16__treeINS_4pairIfNS_12basic_stringIcNS_11char_traitsIcEENS_9allocatorIcEEEEEENS_4lessIS8_EENS5_IS8_EEE10__end_nodeB7v160006Ev, symObjAddr: 0x1AA70, symBinAddr: 0x10001E8F0, symSize: 0x30 }
  - { offsetInCU: 0x3921E, offset: 0x3921E, size: 0x8, addend: 0x0, symName: __ZNKSt3__117__compressed_pairINS_15__tree_end_nodeIPNS_16__tree_node_baseIPvEEEENS_9allocatorINS_11__tree_nodeINS_4pairIfNS_12basic_stringIcNS_11char_traitsIcEENS7_IcEEEEEES3_EEEEE5firstB7v160006Ev, symObjAddr: 0x1AAA0, symBinAddr: 0x10001E920, symSize: 0x20 }
  - { offsetInCU: 0x39244, offset: 0x39244, size: 0x8, addend: 0x0, symName: __ZNSt3__16__treeINS_4pairIfNS_12basic_stringIcNS_11char_traitsIcEENS_9allocatorIcEEEEEENS_4lessIS8_EENS5_IS8_EEE15__insert_uniqueB7v160006EOS8_, symObjAddr: 0x1AAC0, symBinAddr: 0x10001E940, symSize: 0x50 }
  - { offsetInCU: 0x39279, offset: 0x39279, size: 0x8, addend: 0x0, symName: __ZNSt3__14pairINS_21__tree_const_iteratorINS0_IfNS_12basic_stringIcNS_11char_traitsIcEENS_9allocatorIcEEEEEEPNS_11__tree_nodeIS8_PvEElEEbEC1B7v160006INS_15__tree_iteratorIS8_SC_lEEbLSA_0EEEONS0_IT_T0_EE, symObjAddr: 0x1AB10, symBinAddr: 0x10001E990, symSize: 0x30 }
  - { offsetInCU: 0x392CA, offset: 0x392CA, size: 0x8, addend: 0x0, symName: __ZNSt3__16__treeINS_4pairIfNS_12basic_stringIcNS_11char_traitsIcEENS_9allocatorIcEEEEEENS_4lessIS8_EENS5_IS8_EEE25__emplace_unique_key_argsIS8_JS8_EEENS1_INS_15__tree_iteratorIS8_PNS_11__tree_nodeIS8_PvEElEEbEERKT_DpOT0_, symObjAddr: 0x1AB40, symBinAddr: 0x10001E9C0, symSize: 0xE0 }
  - { offsetInCU: 0x3937F, offset: 0x3937F, size: 0x8, addend: 0x0, symName: __ZNSt3__122__tree_key_value_typesINS_4pairIfNS_12basic_stringIcNS_11char_traitsIcEENS_9allocatorIcEEEEEEE9__get_keyB7v160006ERKS8_, symObjAddr: 0x1AC20, symBinAddr: 0x10001EAA0, symSize: 0x10 }
  - { offsetInCU: 0x393A3, offset: 0x393A3, size: 0x8, addend: 0x0, symName: __ZNSt3__16__treeINS_4pairIfNS_12basic_stringIcNS_11char_traitsIcEENS_9allocatorIcEEEEEENS_4lessIS8_EENS5_IS8_EEE12__find_equalIS8_EERPNS_16__tree_node_baseIPvEERPNS_15__tree_end_nodeISH_EERKT_, symObjAddr: 0x1AC30, symBinAddr: 0x10001EAB0, symSize: 0x180 }
  - { offsetInCU: 0x39410, offset: 0x39410, size: 0x8, addend: 0x0, symName: __ZNSt3__16__treeINS_4pairIfNS_12basic_stringIcNS_11char_traitsIcEENS_9allocatorIcEEEEEENS_4lessIS8_EENS5_IS8_EEE16__construct_nodeIJS8_EEENS_10unique_ptrINS_11__tree_nodeIS8_PvEENS_22__tree_node_destructorINS5_ISH_EEEEEEDpOT_, symObjAddr: 0x1ADB0, symBinAddr: 0x10001EC30, symSize: 0xF0 }
  - { offsetInCU: 0x39471, offset: 0x39471, size: 0x8, addend: 0x0, symName: __ZNSt3__16__treeINS_4pairIfNS_12basic_stringIcNS_11char_traitsIcEENS_9allocatorIcEEEEEENS_4lessIS8_EENS5_IS8_EEE16__insert_node_atEPNS_15__tree_end_nodeIPNS_16__tree_node_baseIPvEEEERSH_SH_, symObjAddr: 0x1AEA0, symBinAddr: 0x10001ED20, symSize: 0xC0 }
  - { offsetInCU: 0x394C6, offset: 0x394C6, size: 0x8, addend: 0x0, symName: __ZNKSt3__110unique_ptrINS_11__tree_nodeINS_4pairIfNS_12basic_stringIcNS_11char_traitsIcEENS_9allocatorIcEEEEEEPvEENS_22__tree_node_destructorINS6_ISB_EEEEE3getB7v160006Ev, symObjAddr: 0x1AF60, symBinAddr: 0x10001EDE0, symSize: 0x20 }
  - { offsetInCU: 0x394EC, offset: 0x394EC, size: 0x8, addend: 0x0, symName: __ZNSt3__110unique_ptrINS_11__tree_nodeINS_4pairIfNS_12basic_stringIcNS_11char_traitsIcEENS_9allocatorIcEEEEEEPvEENS_22__tree_node_destructorINS6_ISB_EEEEE7releaseB7v160006Ev, symObjAddr: 0x1AF80, symBinAddr: 0x10001EE00, symSize: 0x40 }
  - { offsetInCU: 0x39521, offset: 0x39521, size: 0x8, addend: 0x0, symName: __ZNSt3__110unique_ptrINS_11__tree_nodeINS_4pairIfNS_12basic_stringIcNS_11char_traitsIcEENS_9allocatorIcEEEEEEPvEENS_22__tree_node_destructorINS6_ISB_EEEEED1B7v160006Ev, symObjAddr: 0x1AFC0, symBinAddr: 0x10001EE40, symSize: 0x20 }
  - { offsetInCU: 0x3954B, offset: 0x3954B, size: 0x8, addend: 0x0, symName: __ZNSt3__115__tree_iteratorINS_4pairIfNS_12basic_stringIcNS_11char_traitsIcEENS_9allocatorIcEEEEEEPNS_11__tree_nodeIS8_PvEElEC1B7v160006ESC_, symObjAddr: 0x1AFE0, symBinAddr: 0x10001EE60, symSize: 0x30 }
  - { offsetInCU: 0x39589, offset: 0x39589, size: 0x8, addend: 0x0, symName: __ZNSt3__14pairINS_15__tree_iteratorINS0_IfNS_12basic_stringIcNS_11char_traitsIcEENS_9allocatorIcEEEEEEPNS_11__tree_nodeIS8_PvEElEEbEC1B7v160006ISD_RbLSA_0EEEOT_OT0_, symObjAddr: 0x1B010, symBinAddr: 0x10001EE90, symSize: 0x30 }
  - { offsetInCU: 0x395E7, offset: 0x395E7, size: 0x8, addend: 0x0, symName: __ZNKSt3__16__treeINS_4pairIfNS_12basic_stringIcNS_11char_traitsIcEENS_9allocatorIcEEEEEENS_4lessIS8_EENS5_IS8_EEE10__root_ptrEv, symObjAddr: 0x1B040, symBinAddr: 0x10001EEC0, symSize: 0x20 }
  - { offsetInCU: 0x3960D, offset: 0x3960D, size: 0x8, addend: 0x0, symName: __ZNSt3__16__treeINS_4pairIfNS_12basic_stringIcNS_11char_traitsIcEENS_9allocatorIcEEEEEENS_4lessIS8_EENS5_IS8_EEE10value_compB7v160006Ev, symObjAddr: 0x1B060, symBinAddr: 0x10001EEE0, symSize: 0x20 }
  - { offsetInCU: 0x39633, offset: 0x39633, size: 0x8, addend: 0x0, symName: __ZNKSt3__14lessINS_4pairIfNS_12basic_stringIcNS_11char_traitsIcEENS_9allocatorIcEEEEEEEclB7v160006ERKS8_SB_, symObjAddr: 0x1B080, symBinAddr: 0x10001EF00, symSize: 0x30 }
  - { offsetInCU: 0x39677, offset: 0x39677, size: 0x8, addend: 0x0, symName: __ZNSt3__117__compressed_pairImNS_4lessINS_4pairIfNS_12basic_stringIcNS_11char_traitsIcEENS_9allocatorIcEEEEEEEEE6secondB7v160006Ev, symObjAddr: 0x1B0B0, symBinAddr: 0x10001EF30, symSize: 0x20 }
  - { offsetInCU: 0x3969D, offset: 0x3969D, size: 0x8, addend: 0x0, symName: __ZNSt3__122__compressed_pair_elemINS_4lessINS_4pairIfNS_12basic_stringIcNS_11char_traitsIcEENS_9allocatorIcEEEEEEEELi1ELb1EE5__getB7v160006Ev, symObjAddr: 0x1B0D0, symBinAddr: 0x10001EF50, symSize: 0x10 }
  - { offsetInCU: 0x396C3, offset: 0x396C3, size: 0x8, addend: 0x0, symName: __ZNSt3__116allocator_traitsINS_9allocatorINS_11__tree_nodeINS_4pairIfNS_12basic_stringIcNS_11char_traitsIcEENS1_IcEEEEEEPvEEEEE8allocateB7v160006ERSC_m, symObjAddr: 0x1B160, symBinAddr: 0x10001EFE0, symSize: 0x30 }
  - { offsetInCU: 0x396F6, offset: 0x396F6, size: 0x8, addend: 0x0, symName: __ZNSt3__122__tree_node_destructorINS_9allocatorINS_11__tree_nodeINS_4pairIfNS_12basic_stringIcNS_11char_traitsIcEENS1_IcEEEEEEPvEEEEEC1B7v160006ERSC_b, symObjAddr: 0x1B190, symBinAddr: 0x10001F010, symSize: 0x40 }
  - { offsetInCU: 0x39743, offset: 0x39743, size: 0x8, addend: 0x0, symName: __ZNSt3__110unique_ptrINS_11__tree_nodeINS_4pairIfNS_12basic_stringIcNS_11char_traitsIcEENS_9allocatorIcEEEEEEPvEENS_22__tree_node_destructorINS6_ISB_EEEEEC1B7v160006ILb1EvEEPSB_NS_16__dependent_typeINS_27__unique_ptr_deleter_sfinaeISE_EEXT_EE20__good_rval_ref_typeE, symObjAddr: 0x1B1D0, symBinAddr: 0x10001F050, symSize: 0x30 }
  - { offsetInCU: 0x39794, offset: 0x39794, size: 0x8, addend: 0x0, symName: __ZNSt3__116allocator_traitsINS_9allocatorINS_11__tree_nodeINS_4pairIfNS_12basic_stringIcNS_11char_traitsIcEENS1_IcEEEEEEPvEEEEE9constructB7v160006IS9_JS9_EvEEvRSC_PT_DpOT0_, symObjAddr: 0x1B200, symBinAddr: 0x10001F080, symSize: 0x30 }
  - { offsetInCU: 0x397EB, offset: 0x397EB, size: 0x8, addend: 0x0, symName: __ZNKSt3__110unique_ptrINS_11__tree_nodeINS_4pairIfNS_12basic_stringIcNS_11char_traitsIcEENS_9allocatorIcEEEEEEPvEENS_22__tree_node_destructorINS6_ISB_EEEEEptB7v160006Ev, symObjAddr: 0x1B230, symBinAddr: 0x10001F0B0, symSize: 0x20 }
  - { offsetInCU: 0x39811, offset: 0x39811, size: 0x8, addend: 0x0, symName: __ZNSt3__110unique_ptrINS_11__tree_nodeINS_4pairIfNS_12basic_stringIcNS_11char_traitsIcEENS_9allocatorIcEEEEEEPvEENS_22__tree_node_destructorINS6_ISB_EEEEE11get_deleterB7v160006Ev, symObjAddr: 0x1B250, symBinAddr: 0x10001F0D0, symSize: 0x20 }
  - { offsetInCU: 0x39837, offset: 0x39837, size: 0x8, addend: 0x0, symName: __ZNSt3__19allocatorINS_11__tree_nodeINS_4pairIfNS_12basic_stringIcNS_11char_traitsIcEENS0_IcEEEEEEPvEEE8allocateB7v160006Em, symObjAddr: 0x1B270, symBinAddr: 0x10001F0F0, symSize: 0x50 }
  - { offsetInCU: 0x39875, offset: 0x39875, size: 0x8, addend: 0x0, symName: __ZNSt3__116allocator_traitsINS_9allocatorINS_11__tree_nodeINS_4pairIfNS_12basic_stringIcNS_11char_traitsIcEENS1_IcEEEEEEPvEEEEE8max_sizeB7v160006ISC_vEEmRKSC_, symObjAddr: 0x1B2C0, symBinAddr: 0x10001F140, symSize: 0x20 }
  - { offsetInCU: 0x398A3, offset: 0x398A3, size: 0x8, addend: 0x0, symName: __ZNKSt3__19allocatorINS_11__tree_nodeINS_4pairIfNS_12basic_stringIcNS_11char_traitsIcEENS0_IcEEEEEEPvEEE8max_sizeB7v160006Ev, symObjAddr: 0x1B2E0, symBinAddr: 0x10001F160, symSize: 0x20 }
  - { offsetInCU: 0x398C9, offset: 0x398C9, size: 0x8, addend: 0x0, symName: __ZNSt3__122__tree_node_destructorINS_9allocatorINS_11__tree_nodeINS_4pairIfNS_12basic_stringIcNS_11char_traitsIcEENS1_IcEEEEEEPvEEEEEC2B7v160006ERSC_b, symObjAddr: 0x1B300, symBinAddr: 0x10001F180, symSize: 0x30 }
  - { offsetInCU: 0x39911, offset: 0x39911, size: 0x8, addend: 0x0, symName: __ZNSt3__110unique_ptrINS_11__tree_nodeINS_4pairIfNS_12basic_stringIcNS_11char_traitsIcEENS_9allocatorIcEEEEEEPvEENS_22__tree_node_destructorINS6_ISB_EEEEEC2B7v160006ILb1EvEEPSB_NS_16__dependent_typeINS_27__unique_ptr_deleter_sfinaeISE_EEXT_EE20__good_rval_ref_typeE, symObjAddr: 0x1B330, symBinAddr: 0x10001F1B0, symSize: 0x40 }
  - { offsetInCU: 0x39962, offset: 0x39962, size: 0x8, addend: 0x0, symName: __ZNSt3__117__compressed_pairIPNS_11__tree_nodeINS_4pairIfNS_12basic_stringIcNS_11char_traitsIcEENS_9allocatorIcEEEEEEPvEENS_22__tree_node_destructorINS6_ISB_EEEEEC1B7v160006IRSC_SF_EEOT_OT0_, symObjAddr: 0x1B370, symBinAddr: 0x10001F1F0, symSize: 0x30 }
  - { offsetInCU: 0x399BA, offset: 0x399BA, size: 0x8, addend: 0x0, symName: __ZNSt3__117__compressed_pairIPNS_11__tree_nodeINS_4pairIfNS_12basic_stringIcNS_11char_traitsIcEENS_9allocatorIcEEEEEEPvEENS_22__tree_node_destructorINS6_ISB_EEEEEC2B7v160006IRSC_SF_EEOT_OT0_, symObjAddr: 0x1B3A0, symBinAddr: 0x10001F220, symSize: 0x40 }
  - { offsetInCU: 0x39A12, offset: 0x39A12, size: 0x8, addend: 0x0, symName: __ZNSt3__122__compressed_pair_elemIPNS_11__tree_nodeINS_4pairIfNS_12basic_stringIcNS_11char_traitsIcEENS_9allocatorIcEEEEEEPvEELi0ELb0EEC2B7v160006IRSC_vEEOT_, symObjAddr: 0x1B3E0, symBinAddr: 0x10001F260, symSize: 0x20 }
  - { offsetInCU: 0x39A54, offset: 0x39A54, size: 0x8, addend: 0x0, symName: __ZNSt3__122__compressed_pair_elemINS_22__tree_node_destructorINS_9allocatorINS_11__tree_nodeINS_4pairIfNS_12basic_stringIcNS_11char_traitsIcEENS2_IcEEEEEEPvEEEEEELi1ELb0EEC2B7v160006ISE_vEEOT_, symObjAddr: 0x1B400, symBinAddr: 0x10001F280, symSize: 0x30 }
  - { offsetInCU: 0x39A96, offset: 0x39A96, size: 0x8, addend: 0x0, symName: __ZNSt3__19allocatorINS_11__tree_nodeINS_4pairIfNS_12basic_stringIcNS_11char_traitsIcEENS0_IcEEEEEEPvEEE9constructB7v160006IS8_JS8_EEEvPT_DpOT0_, symObjAddr: 0x1B430, symBinAddr: 0x10001F2B0, symSize: 0x30 }
  - { offsetInCU: 0x39AEC, offset: 0x39AEC, size: 0x8, addend: 0x0, symName: __ZNSt3__14pairIfNS_12basic_stringIcNS_11char_traitsIcEENS_9allocatorIcEEEEEC1EOS7_, symObjAddr: 0x1B460, symBinAddr: 0x10001F2E0, symSize: 0x30 }
  - { offsetInCU: 0x39B21, offset: 0x39B21, size: 0x8, addend: 0x0, symName: __ZNSt3__14pairIfNS_12basic_stringIcNS_11char_traitsIcEENS_9allocatorIcEEEEEC2EOS7_, symObjAddr: 0x1B490, symBinAddr: 0x10001F310, symSize: 0x40 }
  - { offsetInCU: 0x39B56, offset: 0x39B56, size: 0x8, addend: 0x0, symName: __ZNKSt3__117__compressed_pairIPNS_11__tree_nodeINS_4pairIfNS_12basic_stringIcNS_11char_traitsIcEENS_9allocatorIcEEEEEEPvEENS_22__tree_node_destructorINS6_ISB_EEEEE5firstB7v160006Ev, symObjAddr: 0x1B4D0, symBinAddr: 0x10001F350, symSize: 0x20 }
  - { offsetInCU: 0x39B7C, offset: 0x39B7C, size: 0x8, addend: 0x0, symName: __ZNKSt3__122__compressed_pair_elemIPNS_11__tree_nodeINS_4pairIfNS_12basic_stringIcNS_11char_traitsIcEENS_9allocatorIcEEEEEEPvEELi0ELb0EE5__getB7v160006Ev, symObjAddr: 0x1B4F0, symBinAddr: 0x10001F370, symSize: 0x10 }
  - { offsetInCU: 0x39BA2, offset: 0x39BA2, size: 0x8, addend: 0x0, symName: __ZNSt3__117__compressed_pairIPNS_11__tree_nodeINS_4pairIfNS_12basic_stringIcNS_11char_traitsIcEENS_9allocatorIcEEEEEEPvEENS_22__tree_node_destructorINS6_ISB_EEEEE6secondB7v160006Ev, symObjAddr: 0x1B500, symBinAddr: 0x10001F380, symSize: 0x20 }
  - { offsetInCU: 0x39BC8, offset: 0x39BC8, size: 0x8, addend: 0x0, symName: __ZNSt3__122__compressed_pair_elemINS_22__tree_node_destructorINS_9allocatorINS_11__tree_nodeINS_4pairIfNS_12basic_stringIcNS_11char_traitsIcEENS2_IcEEEEEEPvEEEEEELi1ELb0EE5__getB7v160006Ev, symObjAddr: 0x1B520, symBinAddr: 0x10001F3A0, symSize: 0x10 }
  - { offsetInCU: 0x39BEE, offset: 0x39BEE, size: 0x8, addend: 0x0, symName: __ZNSt3__16__treeINS_4pairIfNS_12basic_stringIcNS_11char_traitsIcEENS_9allocatorIcEEEEEENS_4lessIS8_EENS5_IS8_EEE4sizeB7v160006Ev, symObjAddr: 0x1B530, symBinAddr: 0x10001F3B0, symSize: 0x20 }
  - { offsetInCU: 0x39C14, offset: 0x39C14, size: 0x8, addend: 0x0, symName: __ZNSt3__117__compressed_pairImNS_4lessINS_4pairIfNS_12basic_stringIcNS_11char_traitsIcEENS_9allocatorIcEEEEEEEEE5firstB7v160006Ev, symObjAddr: 0x1B550, symBinAddr: 0x10001F3D0, symSize: 0x20 }
  - { offsetInCU: 0x39C3A, offset: 0x39C3A, size: 0x8, addend: 0x0, symName: __ZNSt3__117__compressed_pairIPNS_11__tree_nodeINS_4pairIfNS_12basic_stringIcNS_11char_traitsIcEENS_9allocatorIcEEEEEEPvEENS_22__tree_node_destructorINS6_ISB_EEEEE5firstB7v160006Ev, symObjAddr: 0x1B570, symBinAddr: 0x10001F3F0, symSize: 0x20 }
  - { offsetInCU: 0x39C60, offset: 0x39C60, size: 0x8, addend: 0x0, symName: __ZNSt3__122__compressed_pair_elemIPNS_11__tree_nodeINS_4pairIfNS_12basic_stringIcNS_11char_traitsIcEENS_9allocatorIcEEEEEEPvEELi0ELb0EE5__getB7v160006Ev, symObjAddr: 0x1B590, symBinAddr: 0x10001F410, symSize: 0x10 }
  - { offsetInCU: 0x39C86, offset: 0x39C86, size: 0x8, addend: 0x0, symName: __ZNSt3__110unique_ptrINS_11__tree_nodeINS_4pairIfNS_12basic_stringIcNS_11char_traitsIcEENS_9allocatorIcEEEEEEPvEENS_22__tree_node_destructorINS6_ISB_EEEEED2B7v160006Ev, symObjAddr: 0x1B5A0, symBinAddr: 0x10001F420, symSize: 0x20 }
  - { offsetInCU: 0x39CB0, offset: 0x39CB0, size: 0x8, addend: 0x0, symName: __ZNSt3__110unique_ptrINS_11__tree_nodeINS_4pairIfNS_12basic_stringIcNS_11char_traitsIcEENS_9allocatorIcEEEEEEPvEENS_22__tree_node_destructorINS6_ISB_EEEEE5resetB7v160006EPSB_, symObjAddr: 0x1B5C0, symBinAddr: 0x10001F440, symSize: 0x70 }
  - { offsetInCU: 0x39CF4, offset: 0x39CF4, size: 0x8, addend: 0x0, symName: __ZNSt3__122__tree_node_destructorINS_9allocatorINS_11__tree_nodeINS_4pairIfNS_12basic_stringIcNS_11char_traitsIcEENS1_IcEEEEEEPvEEEEEclB7v160006EPSB_, symObjAddr: 0x1B630, symBinAddr: 0x10001F4B0, symSize: 0x70 }
  - { offsetInCU: 0x39D29, offset: 0x39D29, size: 0x8, addend: 0x0, symName: __ZNSt3__115__tree_iteratorINS_4pairIfNS_12basic_stringIcNS_11char_traitsIcEENS_9allocatorIcEEEEEEPNS_11__tree_nodeIS8_PvEElEC2B7v160006ESC_, symObjAddr: 0x1B6A0, symBinAddr: 0x10001F520, symSize: 0x20 }
  - { offsetInCU: 0x39D62, offset: 0x39D62, size: 0x8, addend: 0x0, symName: __ZNSt3__14pairINS_15__tree_iteratorINS0_IfNS_12basic_stringIcNS_11char_traitsIcEENS_9allocatorIcEEEEEEPNS_11__tree_nodeIS8_PvEElEEbEC2B7v160006ISD_RbLSA_0EEEOT_OT0_, symObjAddr: 0x1B6C0, symBinAddr: 0x10001F540, symSize: 0x30 }
  - { offsetInCU: 0x39DC0, offset: 0x39DC0, size: 0x8, addend: 0x0, symName: __ZNSt3__14pairINS_21__tree_const_iteratorINS0_IfNS_12basic_stringIcNS_11char_traitsIcEENS_9allocatorIcEEEEEEPNS_11__tree_nodeIS8_PvEElEEbEC2B7v160006INS_15__tree_iteratorIS8_SC_lEEbLSA_0EEEONS0_IT_T0_EE, symObjAddr: 0x1B6F0, symBinAddr: 0x10001F570, symSize: 0x50 }
  - { offsetInCU: 0x39E11, offset: 0x39E11, size: 0x8, addend: 0x0, symName: __ZNSt3__121__tree_const_iteratorINS_4pairIfNS_12basic_stringIcNS_11char_traitsIcEENS_9allocatorIcEEEEEEPNS_11__tree_nodeIS8_PvEElEC1B7v160006ENS_15__tree_iteratorIS8_SC_lEE, symObjAddr: 0x1B740, symBinAddr: 0x10001F5C0, symSize: 0x30 }
  - { offsetInCU: 0x39E4A, offset: 0x39E4A, size: 0x8, addend: 0x0, symName: __ZNSt3__121__tree_const_iteratorINS_4pairIfNS_12basic_stringIcNS_11char_traitsIcEENS_9allocatorIcEEEEEEPNS_11__tree_nodeIS8_PvEElEC2B7v160006ENS_15__tree_iteratorIS8_SC_lEE, symObjAddr: 0x1B770, symBinAddr: 0x10001F5F0, symSize: 0x20 }
  - { offsetInCU: 0x39E83, offset: 0x39E83, size: 0x8, addend: 0x0, symName: __ZNKSt3__16__treeINS_4pairIfNS_12basic_stringIcNS_11char_traitsIcEENS_9allocatorIcEEEEEENS_4lessIS8_EENS5_IS8_EEE4sizeB7v160006Ev, symObjAddr: 0x1B790, symBinAddr: 0x10001F610, symSize: 0x20 }
  - { offsetInCU: 0x39EA9, offset: 0x39EA9, size: 0x8, addend: 0x0, symName: __ZNKSt3__117__compressed_pairImNS_4lessINS_4pairIfNS_12basic_stringIcNS_11char_traitsIcEENS_9allocatorIcEEEEEEEEE5firstB7v160006Ev, symObjAddr: 0x1B7B0, symBinAddr: 0x10001F630, symSize: 0x20 }
  - { offsetInCU: 0x39ECF, offset: 0x39ECF, size: 0x8, addend: 0x0, symName: __ZNSt3__16__treeINS_4pairIfNS_12basic_stringIcNS_11char_traitsIcEENS_9allocatorIcEEEEEENS_4lessIS8_EENS5_IS8_EEE5beginB7v160006Ev, symObjAddr: 0x1B7D0, symBinAddr: 0x10001F650, symSize: 0x30 }
  - { offsetInCU: 0x39EF5, offset: 0x39EF5, size: 0x8, addend: 0x0, symName: __ZNSt3__115__tree_iteratorINS_4pairIfNS_12basic_stringIcNS_11char_traitsIcEENS_9allocatorIcEEEEEEPNS_11__tree_nodeIS8_PvEElEC1B7v160006EPNS_15__tree_end_nodeIPNS_16__tree_node_baseISA_EEEE, symObjAddr: 0x1B800, symBinAddr: 0x10001F680, symSize: 0x30 }
  - { offsetInCU: 0x39F2E, offset: 0x39F2E, size: 0x8, addend: 0x0, symName: __ZNSt3__115__tree_iteratorINS_4pairIfNS_12basic_stringIcNS_11char_traitsIcEENS_9allocatorIcEEEEEEPNS_11__tree_nodeIS8_PvEElEC2B7v160006EPNS_15__tree_end_nodeIPNS_16__tree_node_baseISA_EEEE, symObjAddr: 0x1B830, symBinAddr: 0x10001F6B0, symSize: 0x20 }
  - { offsetInCU: 0x39F67, offset: 0x39F67, size: 0x8, addend: 0x0, symName: __ZNKSt3__121__tree_const_iteratorINS_4pairIfNS_12basic_stringIcNS_11char_traitsIcEENS_9allocatorIcEEEEEEPNS_11__tree_nodeIS8_PvEElE8__get_npB7v160006Ev, symObjAddr: 0x1B850, symBinAddr: 0x10001F6D0, symSize: 0x20 }
  - { offsetInCU: 0x39F8D, offset: 0x39F8D, size: 0x8, addend: 0x0, symName: __ZNSt3__16__treeINS_4pairIfNS_12basic_stringIcNS_11char_traitsIcEENS_9allocatorIcEEEEEENS_4lessIS8_EENS5_IS8_EEE5eraseENS_21__tree_const_iteratorIS8_PNS_11__tree_nodeIS8_PvEElEE, symObjAddr: 0x1B870, symBinAddr: 0x10001F6F0, symSize: 0x90 }
  - { offsetInCU: 0x39FF1, offset: 0x39FF1, size: 0x8, addend: 0x0, symName: __ZNSt3__16__treeINS_4pairIfNS_12basic_stringIcNS_11char_traitsIcEENS_9allocatorIcEEEEEENS_4lessIS8_EENS5_IS8_EEE21__remove_node_pointerEPNS_11__tree_nodeIS8_PvEE, symObjAddr: 0x1B900, symBinAddr: 0x10001F780, symSize: 0xA0 }
  - { offsetInCU: 0x3A037, offset: 0x3A037, size: 0x8, addend: 0x0, symName: __ZNSt3__115__tree_iteratorINS_4pairIfNS_12basic_stringIcNS_11char_traitsIcEENS_9allocatorIcEEEEEEPNS_11__tree_nodeIS8_PvEElEppB7v160006Ev, symObjAddr: 0x1B9A0, symBinAddr: 0x10001F820, symSize: 0x30 }
  - { offsetInCU: 0x3A05D, offset: 0x3A05D, size: 0x8, addend: 0x0, symName: __ZNSt3__110__list_impINS_4pairINS_12basic_stringIcNS_11char_traitsIcEENS_9allocatorIcEEEEfEENS5_IS8_EEE5beginB7v160006Ev, symObjAddr: 0x1B9D0, symBinAddr: 0x10001F850, symSize: 0x30 }
  - { offsetInCU: 0x3A083, offset: 0x3A083, size: 0x8, addend: 0x0, symName: __ZNSt3__115__list_iteratorINS_4pairINS_12basic_stringIcNS_11char_traitsIcEENS_9allocatorIcEEEEfEEPvEC1B7v160006EPNS_16__list_node_baseIS8_S9_EEPKv, symObjAddr: 0x1BA00, symBinAddr: 0x10001F880, symSize: 0x30 }
  - { offsetInCU: 0x3A0CB, offset: 0x3A0CB, size: 0x8, addend: 0x0, symName: __ZNSt3__115__list_iteratorINS_4pairINS_12basic_stringIcNS_11char_traitsIcEENS_9allocatorIcEEEEfEEPvEC2B7v160006EPNS_16__list_node_baseIS8_S9_EEPKv, symObjAddr: 0x1BA30, symBinAddr: 0x10001F8B0, symSize: 0x20 }
  - { offsetInCU: 0x3A113, offset: 0x3A113, size: 0x8, addend: 0x0, symName: __ZNSt3__110__list_impINS_4pairINS_12basic_stringIcNS_11char_traitsIcEENS_9allocatorIcEEEEfEENS5_IS8_EEE3endB7v160006Ev, symObjAddr: 0x1BA50, symBinAddr: 0x10001F8D0, symSize: 0x40 }
  - { offsetInCU: 0x3A139, offset: 0x3A139, size: 0x8, addend: 0x0, symName: __ZNSt3__16__treeINS_4pairIfNS_12basic_stringIcNS_11char_traitsIcEENS_9allocatorIcEEEEEENS_4lessIS8_EENS5_IS8_EEE4findIS8_EENS_15__tree_iteratorIS8_PNS_11__tree_nodeIS8_PvEElEERKT_, symObjAddr: 0x1BAC0, symBinAddr: 0x10001F940, symSize: 0xE0 }
  - { offsetInCU: 0x3A188, offset: 0x3A188, size: 0x8, addend: 0x0, symName: __ZNSt3__16__treeINS_4pairIfNS_12basic_stringIcNS_11char_traitsIcEENS_9allocatorIcEEEEEENS_4lessIS8_EENS5_IS8_EEE13__lower_boundIS8_EENS_15__tree_iteratorIS8_PNS_11__tree_nodeIS8_PvEElEERKT_SI_PNS_15__tree_end_nodeIPNS_16__tree_node_baseISG_EEEE, symObjAddr: 0x1BBA0, symBinAddr: 0x10001FA20, symSize: 0x90 }
  - { offsetInCU: 0x3A1E6, offset: 0x3A1E6, size: 0x8, addend: 0x0, symName: __ZNSt3__16__treeINS_4pairIfNS_12basic_stringIcNS_11char_traitsIcEENS_9allocatorIcEEEEEENS_4lessIS8_EENS5_IS8_EEE3endB7v160006Ev, symObjAddr: 0x1BC60, symBinAddr: 0x10001FAE0, symSize: 0x30 }
  - { offsetInCU: 0x3A20C, offset: 0x3A20C, size: 0x8, addend: 0x0, symName: __ZNKSt3__115__tree_iteratorINS_4pairIfNS_12basic_stringIcNS_11char_traitsIcEENS_9allocatorIcEEEEEEPNS_11__tree_nodeIS8_PvEElEdeB7v160006Ev, symObjAddr: 0x1BC90, symBinAddr: 0x10001FB10, symSize: 0x20 }
  - { offsetInCU: 0x3A232, offset: 0x3A232, size: 0x8, addend: 0x0, symName: __ZNKSt3__115__tree_iteratorINS_4pairIfNS_12basic_stringIcNS_11char_traitsIcEENS_9allocatorIcEEEEEEPNS_11__tree_nodeIS8_PvEElE8__get_npB7v160006Ev, symObjAddr: 0x1BCE0, symBinAddr: 0x10001FB60, symSize: 0x20 }
  - { offsetInCU: 0x3A258, offset: 0x3A258, size: 0x8, addend: 0x0, symName: __ZNSt3__19basic_iosIcNS_11char_traitsIcEEEC2B7v160006Ev, symObjAddr: 0x1BD30, symBinAddr: 0x10001FBB0, symSize: 0x40 }
  - { offsetInCU: 0x3A282, offset: 0x3A282, size: 0x8, addend: 0x0, symName: __ZNSt3__114basic_iostreamIcNS_11char_traitsIcEEEC2B7v160006EPNS_15basic_streambufIcS2_EE, symObjAddr: 0x1BD70, symBinAddr: 0x10001FBF0, symSize: 0xA0 }
  - { offsetInCU: 0x3A2C8, offset: 0x3A2C8, size: 0x8, addend: 0x0, symName: __ZNSt3__18ios_baseC2B7v160006Ev, symObjAddr: 0x1BE10, symBinAddr: 0x10001FC90, symSize: 0x20 }
  - { offsetInCU: 0x3A2F2, offset: 0x3A2F2, size: 0x8, addend: 0x0, symName: __ZNSt3__113basic_istreamIcNS_11char_traitsIcEEEC2B7v160006EPNS_15basic_streambufIcS2_EE, symObjAddr: 0x1BE30, symBinAddr: 0x10001FCB0, symSize: 0x50 }
  - { offsetInCU: 0x3A337, offset: 0x3A337, size: 0x8, addend: 0x0, symName: __ZNSt3__113basic_ostreamIcNS_11char_traitsIcEEEC2B7v160006Ev, symObjAddr: 0x1BE80, symBinAddr: 0x10001FD00, symSize: 0x30 }
  - { offsetInCU: 0x3A36E, offset: 0x3A36E, size: 0x8, addend: 0x0, symName: __ZNSt3__19basic_iosIcNS_11char_traitsIcEEE4initB7v160006EPNS_15basic_streambufIcS2_EE, symObjAddr: 0x1BEB0, symBinAddr: 0x10001FD30, symSize: 0x50 }
  - { offsetInCU: 0x3A3A5, offset: 0x3A3A5, size: 0x8, addend: 0x0, symName: __ZNKSt3__18ios_base3eofB7v160006Ev, symObjAddr: 0x1BF00, symBinAddr: 0x10001FD80, symSize: 0x20 }
  - { offsetInCU: 0x3A3EB, offset: 0x3A3EB, size: 0x8, addend: 0x0, symName: __ZNKSt3__113basic_istreamIcNS_11char_traitsIcEEE6sentrycvbB7v160006Ev, symObjAddr: 0x1C140, symBinAddr: 0x10001FFC0, symSize: 0x20 }
  - { offsetInCU: 0x3A411, offset: 0x3A411, size: 0x8, addend: 0x0, symName: __ZNSt3__112basic_stringIcNS_11char_traitsIcEENS_9allocatorIcEEE5clearB7v160006Ev, symObjAddr: 0x1C160, symBinAddr: 0x10001FFE0, symSize: 0xA0 }
  - { offsetInCU: 0x3A439, offset: 0x3A439, size: 0x8, addend: 0x0, symName: __ZNSt3__115basic_streambufIcNS_11char_traitsIcEEE6sbumpcB7v160006Ev, symObjAddr: 0x1C200, symBinAddr: 0x100020080, symSize: 0x60 }
  - { offsetInCU: 0x3A45F, offset: 0x3A45F, size: 0x8, addend: 0x0, symName: __ZNSt3__111char_traitsIcE12to_char_typeEi, symObjAddr: 0x1C260, symBinAddr: 0x1000200E0, symSize: 0x10 }
  - { offsetInCU: 0x3A482, offset: 0x3A482, size: 0x8, addend: 0x0, symName: __ZNSt3__111char_traitsIcE2eqEcc, symObjAddr: 0x1C270, symBinAddr: 0x1000200F0, symSize: 0x30 }
  - { offsetInCU: 0x3A4B3, offset: 0x3A4B3, size: 0x8, addend: 0x0, symName: __ZNKSt3__112basic_stringIcNS_11char_traitsIcEENS_9allocatorIcEEE8max_sizeB7v160006Ev, symObjAddr: 0x1C2A0, symBinAddr: 0x100020120, symSize: 0xA0 }
  - { offsetInCU: 0x3A505, offset: 0x3A505, size: 0x8, addend: 0x0, symName: __ZNSt3__18ios_base18__setstate_nothrowB7v160006Ej, symObjAddr: 0x1C340, symBinAddr: 0x1000201C0, symSize: 0x50 }
  - { offsetInCU: 0x3A53A, offset: 0x3A53A, size: 0x8, addend: 0x0, symName: __ZNKSt3__19basic_iosIcNS_11char_traitsIcEEE10exceptionsB7v160006Ev, symObjAddr: 0x1C390, symBinAddr: 0x100020210, symSize: 0x20 }
  - { offsetInCU: 0x3A560, offset: 0x3A560, size: 0x8, addend: 0x0, symName: __ZNSt3__111char_traitsIcE6assignERcRKc, symObjAddr: 0x1C3C0, symBinAddr: 0x100020240, symSize: 0x20 }
  - { offsetInCU: 0x3A591, offset: 0x3A591, size: 0x8, addend: 0x0, symName: __ZNSt3__112basic_stringIcNS_11char_traitsIcEENS_9allocatorIcEEE15__set_long_sizeB7v160006Em, symObjAddr: 0x1C3E0, symBinAddr: 0x100020260, symSize: 0x30 }
  - { offsetInCU: 0x3A5C6, offset: 0x3A5C6, size: 0x8, addend: 0x0, symName: __ZNSt3__112basic_stringIcNS_11char_traitsIcEENS_9allocatorIcEEE16__set_short_sizeB7v160006Em, symObjAddr: 0x1C410, symBinAddr: 0x100020290, symSize: 0x50 }
  - { offsetInCU: 0x3A5FB, offset: 0x3A5FB, size: 0x8, addend: 0x0, symName: __ZNSt3__111char_traitsIcE11to_int_typeEc, symObjAddr: 0x1C460, symBinAddr: 0x1000202E0, symSize: 0x10 }
  - { offsetInCU: 0x3A628, offset: 0x3A628, size: 0x8, addend: 0x0, symName: __ZNSt3__116allocator_traitsINS_9allocatorIcEEE8max_sizeB7v160006IS2_vEEmRKS2_, symObjAddr: 0x1C470, symBinAddr: 0x1000202F0, symSize: 0x20 }
  - { offsetInCU: 0x3A656, offset: 0x3A656, size: 0x8, addend: 0x0, symName: __ZNKSt3__112basic_stringIcNS_11char_traitsIcEENS_9allocatorIcEEE7__allocB7v160006Ev, symObjAddr: 0x1C490, symBinAddr: 0x100020310, symSize: 0x20 }
  - { offsetInCU: 0x3A67C, offset: 0x3A67C, size: 0x8, addend: 0x0, symName: __ZNSt3__114numeric_limitsImE3maxB7v160006Ev, symObjAddr: 0x1C4B0, symBinAddr: 0x100020330, symSize: 0x10 }
  - { offsetInCU: 0x3A690, offset: 0x3A690, size: 0x8, addend: 0x0, symName: __ZNKSt3__19allocatorIcE8max_sizeB7v160006Ev, symObjAddr: 0x1C4C0, symBinAddr: 0x100020340, symSize: 0x20 }
  - { offsetInCU: 0x3A6B6, offset: 0x3A6B6, size: 0x8, addend: 0x0, symName: __ZNKSt3__117__compressed_pairINS_12basic_stringIcNS_11char_traitsIcEENS_9allocatorIcEEE5__repES5_E6secondB7v160006Ev, symObjAddr: 0x1C4E0, symBinAddr: 0x100020360, symSize: 0x20 }
  - { offsetInCU: 0x3A6DC, offset: 0x3A6DC, size: 0x8, addend: 0x0, symName: __ZNKSt3__122__compressed_pair_elemINS_9allocatorIcEELi1ELb1EE5__getB7v160006Ev, symObjAddr: 0x1C500, symBinAddr: 0x100020380, symSize: 0x10 }
  - { offsetInCU: 0x3A702, offset: 0x3A702, size: 0x8, addend: 0x0, symName: __ZNSt3__123__libcpp_numeric_limitsImLb1EE3maxB7v160006Ev, symObjAddr: 0x1C510, symBinAddr: 0x100020390, symSize: 0x10 }
  - { offsetInCU: 0x3A716, offset: 0x3A716, size: 0x8, addend: 0x0, symName: __ZNKSt3__18ios_base10exceptionsB7v160006Ev, symObjAddr: 0x1C520, symBinAddr: 0x1000203A0, symSize: 0x20 }
  - { offsetInCU: 0x3A73E, offset: 0x3A73E, size: 0x8, addend: 0x0, symName: __ZNSt3__114numeric_limitsIlE3maxB7v160006Ev, symObjAddr: 0x1C540, symBinAddr: 0x1000203C0, symSize: 0x10 }
  - { offsetInCU: 0x3A752, offset: 0x3A752, size: 0x8, addend: 0x0, symName: __ZNSt3__115basic_streambufIcNS_11char_traitsIcEEE5sgetcB7v160006Ev, symObjAddr: 0x1C550, symBinAddr: 0x1000203D0, symSize: 0x50 }
  - { offsetInCU: 0x3A778, offset: 0x3A778, size: 0x8, addend: 0x0, symName: __ZNKSt3__15ctypeIcE2isB7v160006Ejc, symObjAddr: 0x1C5A0, symBinAddr: 0x100020420, symSize: 0x70 }
  - { offsetInCU: 0x3A7BC, offset: 0x3A7BC, size: 0x8, addend: 0x0, symName: __ZNSt3__123__libcpp_numeric_limitsIlLb1EE3maxB7v160006Ev, symObjAddr: 0x1C610, symBinAddr: 0x100020490, symSize: 0x10 }
  - { offsetInCU: 0x3A7CF, offset: 0x3A7CF, size: 0x8, addend: 0x0, symName: __Z7isasciii, symObjAddr: 0x1C620, symBinAddr: 0x1000204A0, symSize: 0x20 }
  - { offsetInCU: 0x3A7FC, offset: 0x3A7FC, size: 0x8, addend: 0x0, symName: __ZNSt3__13mapINS_12basic_stringIcNS_11char_traitsIcEENS_9allocatorIcEEEEiNS_4lessIS6_EENS4_INS_4pairIKS6_iEEEEEC2B7v160006Ev, symObjAddr: 0x1C640, symBinAddr: 0x1000204C0, symSize: 0x30 }
  - { offsetInCU: 0x3A826, offset: 0x3A826, size: 0x8, addend: 0x0, symName: __ZNSt3__119__map_value_compareINS_12basic_stringIcNS_11char_traitsIcEENS_9allocatorIcEEEENS_12__value_typeIS6_iEENS_4lessIS6_EELb1EEC1B7v160006ESA_, symObjAddr: 0x1C670, symBinAddr: 0x1000204F0, symSize: 0x20 }
  - { offsetInCU: 0x3A85F, offset: 0x3A85F, size: 0x8, addend: 0x0, symName: __ZNSt3__16__treeINS_12__value_typeINS_12basic_stringIcNS_11char_traitsIcEENS_9allocatorIcEEEEiEENS_19__map_value_compareIS7_S8_NS_4lessIS7_EELb1EEENS5_IS8_EEEC1ERKSC_, symObjAddr: 0x1C690, symBinAddr: 0x100020510, symSize: 0x30 }
  - { offsetInCU: 0x3A89A, offset: 0x3A89A, size: 0x8, addend: 0x0, symName: __ZNSt3__119__map_value_compareINS_12basic_stringIcNS_11char_traitsIcEENS_9allocatorIcEEEENS_12__value_typeIS6_iEENS_4lessIS6_EELb1EEC2B7v160006ESA_, symObjAddr: 0x1C6C0, symBinAddr: 0x100020540, symSize: 0x10 }
  - { offsetInCU: 0x3A8D3, offset: 0x3A8D3, size: 0x8, addend: 0x0, symName: __ZNSt3__16__treeINS_12__value_typeINS_12basic_stringIcNS_11char_traitsIcEENS_9allocatorIcEEEEiEENS_19__map_value_compareIS7_S8_NS_4lessIS7_EELb1EEENS5_IS8_EEEC2ERKSC_, symObjAddr: 0x1C6D0, symBinAddr: 0x100020550, symSize: 0x80 }
  - { offsetInCU: 0x3A90E, offset: 0x3A90E, size: 0x8, addend: 0x0, symName: __ZNSt3__117__compressed_pairINS_15__tree_end_nodeIPNS_16__tree_node_baseIPvEEEENS_9allocatorINS_11__tree_nodeINS_12__value_typeINS_12basic_stringIcNS_11char_traitsIcEENS7_IcEEEEiEES3_EEEEEC1B7v160006ILb1EvEEv, symObjAddr: 0x1C750, symBinAddr: 0x1000205D0, symSize: 0x20 }
  - { offsetInCU: 0x3A943, offset: 0x3A943, size: 0x8, addend: 0x0, symName: __ZNSt3__117__compressed_pairImNS_19__map_value_compareINS_12basic_stringIcNS_11char_traitsIcEENS_9allocatorIcEEEENS_12__value_typeIS7_iEENS_4lessIS7_EELb1EEEEC1B7v160006IiRKSC_EEOT_OT0_, symObjAddr: 0x1C770, symBinAddr: 0x1000205F0, symSize: 0x30 }
  - { offsetInCU: 0x3A99B, offset: 0x3A99B, size: 0x8, addend: 0x0, symName: __ZNSt3__117__compressed_pairINS_15__tree_end_nodeIPNS_16__tree_node_baseIPvEEEENS_9allocatorINS_11__tree_nodeINS_12__value_typeINS_12basic_stringIcNS_11char_traitsIcEENS7_IcEEEEiEES3_EEEEEC2B7v160006ILb1EvEEv, symObjAddr: 0x1C7A0, symBinAddr: 0x100020620, symSize: 0x30 }
  - { offsetInCU: 0x3A9D0, offset: 0x3A9D0, size: 0x8, addend: 0x0, symName: __ZNSt3__122__compressed_pair_elemINS_9allocatorINS_11__tree_nodeINS_12__value_typeINS_12basic_stringIcNS_11char_traitsIcEENS1_IcEEEEiEEPvEEEELi1ELb1EEC2B7v160006ENS_16__value_init_tagE, symObjAddr: 0x1C7D0, symBinAddr: 0x100020650, symSize: 0x20 }
  - { offsetInCU: 0x3AA05, offset: 0x3AA05, size: 0x8, addend: 0x0, symName: __ZNSt3__19allocatorINS_11__tree_nodeINS_12__value_typeINS_12basic_stringIcNS_11char_traitsIcEENS0_IcEEEEiEEPvEEEC2B7v160006Ev, symObjAddr: 0x1C7F0, symBinAddr: 0x100020670, symSize: 0x20 }
  - { offsetInCU: 0x3AA2F, offset: 0x3AA2F, size: 0x8, addend: 0x0, symName: __ZNSt3__116__non_trivial_ifILb1ENS_9allocatorINS_11__tree_nodeINS_12__value_typeINS_12basic_stringIcNS_11char_traitsIcEENS1_IcEEEEiEEPvEEEEEC2B7v160006Ev, symObjAddr: 0x1C810, symBinAddr: 0x100020690, symSize: 0x10 }
  - { offsetInCU: 0x3AA59, offset: 0x3AA59, size: 0x8, addend: 0x0, symName: __ZNSt3__117__compressed_pairImNS_19__map_value_compareINS_12basic_stringIcNS_11char_traitsIcEENS_9allocatorIcEEEENS_12__value_typeIS7_iEENS_4lessIS7_EELb1EEEEC2B7v160006IiRKSC_EEOT_OT0_, symObjAddr: 0x1C820, symBinAddr: 0x1000206A0, symSize: 0x40 }
  - { offsetInCU: 0x3AAB1, offset: 0x3AAB1, size: 0x8, addend: 0x0, symName: __ZNSt3__122__compressed_pair_elemINS_19__map_value_compareINS_12basic_stringIcNS_11char_traitsIcEENS_9allocatorIcEEEENS_12__value_typeIS7_iEENS_4lessIS7_EELb1EEELi1ELb1EEC2B7v160006IRKSC_vEEOT_, symObjAddr: 0x1C860, symBinAddr: 0x1000206E0, symSize: 0x10 }
  - { offsetInCU: 0x3AAF3, offset: 0x3AAF3, size: 0x8, addend: 0x0, symName: __ZNSt3__13mapINS_12basic_stringIcNS_11char_traitsIcEENS_9allocatorIcEEEEiNS_4lessIS6_EENS4_INS_4pairIKS6_iEEEEED2B7v160006Ev, symObjAddr: 0x1C870, symBinAddr: 0x1000206F0, symSize: 0x20 }
  - { offsetInCU: 0x3AB1D, offset: 0x3AB1D, size: 0x8, addend: 0x0, symName: __ZNSt3__16__treeINS_12__value_typeINS_12basic_stringIcNS_11char_traitsIcEENS_9allocatorIcEEEEiEENS_19__map_value_compareIS7_S8_NS_4lessIS7_EELb1EEENS5_IS8_EEED1Ev, symObjAddr: 0x1C890, symBinAddr: 0x100020710, symSize: 0x20 }
  - { offsetInCU: 0x3AB49, offset: 0x3AB49, size: 0x8, addend: 0x0, symName: __ZNSt3__16__treeINS_12__value_typeINS_12basic_stringIcNS_11char_traitsIcEENS_9allocatorIcEEEEiEENS_19__map_value_compareIS7_S8_NS_4lessIS7_EELb1EEENS5_IS8_EEED2Ev, symObjAddr: 0x1C8B0, symBinAddr: 0x100020730, symSize: 0x30 }
  - { offsetInCU: 0x3AB75, offset: 0x3AB75, size: 0x8, addend: 0x0, symName: __ZNSt3__16__treeINS_12__value_typeINS_12basic_stringIcNS_11char_traitsIcEENS_9allocatorIcEEEEiEENS_19__map_value_compareIS7_S8_NS_4lessIS7_EELb1EEENS5_IS8_EEE7destroyEPNS_11__tree_nodeIS8_PvEE, symObjAddr: 0x1C8E0, symBinAddr: 0x100020760, symSize: 0xA0 }
  - { offsetInCU: 0x3ABC1, offset: 0x3ABC1, size: 0x8, addend: 0x0, symName: __ZNSt3__13mapINS_12basic_stringIcNS_11char_traitsIcEENS_9allocatorIcEEEES6_NS_4lessIS6_EENS4_INS_4pairIKS6_S6_EEEEEC2B7v160006Ev, symObjAddr: 0x1C980, symBinAddr: 0x100020800, symSize: 0x30 }
  - { offsetInCU: 0x3ABEB, offset: 0x3ABEB, size: 0x8, addend: 0x0, symName: __ZNSt3__119__map_value_compareINS_12basic_stringIcNS_11char_traitsIcEENS_9allocatorIcEEEENS_12__value_typeIS6_S6_EENS_4lessIS6_EELb1EEC1B7v160006ESA_, symObjAddr: 0x1C9B0, symBinAddr: 0x100020830, symSize: 0x20 }
  - { offsetInCU: 0x3AC24, offset: 0x3AC24, size: 0x8, addend: 0x0, symName: __ZNSt3__16__treeINS_12__value_typeINS_12basic_stringIcNS_11char_traitsIcEENS_9allocatorIcEEEES7_EENS_19__map_value_compareIS7_S8_NS_4lessIS7_EELb1EEENS5_IS8_EEEC1ERKSC_, symObjAddr: 0x1C9D0, symBinAddr: 0x100020850, symSize: 0x30 }
  - { offsetInCU: 0x3AC5F, offset: 0x3AC5F, size: 0x8, addend: 0x0, symName: __ZNSt3__119__map_value_compareINS_12basic_stringIcNS_11char_traitsIcEENS_9allocatorIcEEEENS_12__value_typeIS6_S6_EENS_4lessIS6_EELb1EEC2B7v160006ESA_, symObjAddr: 0x1CA00, symBinAddr: 0x100020880, symSize: 0x10 }
  - { offsetInCU: 0x3AC98, offset: 0x3AC98, size: 0x8, addend: 0x0, symName: __ZNSt3__16__treeINS_12__value_typeINS_12basic_stringIcNS_11char_traitsIcEENS_9allocatorIcEEEES7_EENS_19__map_value_compareIS7_S8_NS_4lessIS7_EELb1EEENS5_IS8_EEEC2ERKSC_, symObjAddr: 0x1CA10, symBinAddr: 0x100020890, symSize: 0x80 }
  - { offsetInCU: 0x3ACD3, offset: 0x3ACD3, size: 0x8, addend: 0x0, symName: __ZNSt3__117__compressed_pairINS_15__tree_end_nodeIPNS_16__tree_node_baseIPvEEEENS_9allocatorINS_11__tree_nodeINS_12__value_typeINS_12basic_stringIcNS_11char_traitsIcEENS7_IcEEEESE_EES3_EEEEEC1B7v160006ILb1EvEEv, symObjAddr: 0x1CA90, symBinAddr: 0x100020910, symSize: 0x20 }
  - { offsetInCU: 0x3AD08, offset: 0x3AD08, size: 0x8, addend: 0x0, symName: __ZNSt3__117__compressed_pairImNS_19__map_value_compareINS_12basic_stringIcNS_11char_traitsIcEENS_9allocatorIcEEEENS_12__value_typeIS7_S7_EENS_4lessIS7_EELb1EEEEC1B7v160006IiRKSC_EEOT_OT0_, symObjAddr: 0x1CAB0, symBinAddr: 0x100020930, symSize: 0x30 }
  - { offsetInCU: 0x3AD60, offset: 0x3AD60, size: 0x8, addend: 0x0, symName: __ZNSt3__117__compressed_pairINS_15__tree_end_nodeIPNS_16__tree_node_baseIPvEEEENS_9allocatorINS_11__tree_nodeINS_12__value_typeINS_12basic_stringIcNS_11char_traitsIcEENS7_IcEEEESE_EES3_EEEEEC2B7v160006ILb1EvEEv, symObjAddr: 0x1CAE0, symBinAddr: 0x100020960, symSize: 0x30 }
  - { offsetInCU: 0x3AD95, offset: 0x3AD95, size: 0x8, addend: 0x0, symName: __ZNSt3__122__compressed_pair_elemINS_9allocatorINS_11__tree_nodeINS_12__value_typeINS_12basic_stringIcNS_11char_traitsIcEENS1_IcEEEES8_EEPvEEEELi1ELb1EEC2B7v160006ENS_16__value_init_tagE, symObjAddr: 0x1CB10, symBinAddr: 0x100020990, symSize: 0x20 }
  - { offsetInCU: 0x3ADCA, offset: 0x3ADCA, size: 0x8, addend: 0x0, symName: __ZNSt3__19allocatorINS_11__tree_nodeINS_12__value_typeINS_12basic_stringIcNS_11char_traitsIcEENS0_IcEEEES7_EEPvEEEC2B7v160006Ev, symObjAddr: 0x1CB30, symBinAddr: 0x1000209B0, symSize: 0x20 }
  - { offsetInCU: 0x3ADF4, offset: 0x3ADF4, size: 0x8, addend: 0x0, symName: __ZNSt3__116__non_trivial_ifILb1ENS_9allocatorINS_11__tree_nodeINS_12__value_typeINS_12basic_stringIcNS_11char_traitsIcEENS1_IcEEEES8_EEPvEEEEEC2B7v160006Ev, symObjAddr: 0x1CB50, symBinAddr: 0x1000209D0, symSize: 0x10 }
  - { offsetInCU: 0x3AE1E, offset: 0x3AE1E, size: 0x8, addend: 0x0, symName: __ZNSt3__117__compressed_pairImNS_19__map_value_compareINS_12basic_stringIcNS_11char_traitsIcEENS_9allocatorIcEEEENS_12__value_typeIS7_S7_EENS_4lessIS7_EELb1EEEEC2B7v160006IiRKSC_EEOT_OT0_, symObjAddr: 0x1CB60, symBinAddr: 0x1000209E0, symSize: 0x40 }
  - { offsetInCU: 0x3AE76, offset: 0x3AE76, size: 0x8, addend: 0x0, symName: __ZNSt3__122__compressed_pair_elemINS_19__map_value_compareINS_12basic_stringIcNS_11char_traitsIcEENS_9allocatorIcEEEENS_12__value_typeIS7_S7_EENS_4lessIS7_EELb1EEELi1ELb1EEC2B7v160006IRKSC_vEEOT_, symObjAddr: 0x1CBA0, symBinAddr: 0x100020A20, symSize: 0x10 }
  - { offsetInCU: 0x3AEB8, offset: 0x3AEB8, size: 0x8, addend: 0x0, symName: __ZNSt3__13mapINS_12basic_stringIcNS_11char_traitsIcEENS_9allocatorIcEEEES6_NS_4lessIS6_EENS4_INS_4pairIKS6_S6_EEEEED2B7v160006Ev, symObjAddr: 0x1CBB0, symBinAddr: 0x100020A30, symSize: 0x20 }
  - { offsetInCU: 0x3AEE2, offset: 0x3AEE2, size: 0x8, addend: 0x0, symName: __ZNSt3__16__treeINS_12__value_typeINS_12basic_stringIcNS_11char_traitsIcEENS_9allocatorIcEEEES7_EENS_19__map_value_compareIS7_S8_NS_4lessIS7_EELb1EEENS5_IS8_EEED1Ev, symObjAddr: 0x1CBD0, symBinAddr: 0x100020A50, symSize: 0x20 }
  - { offsetInCU: 0x3AF0E, offset: 0x3AF0E, size: 0x8, addend: 0x0, symName: __ZNSt3__16__treeINS_12__value_typeINS_12basic_stringIcNS_11char_traitsIcEENS_9allocatorIcEEEES7_EENS_19__map_value_compareIS7_S8_NS_4lessIS7_EELb1EEENS5_IS8_EEED2Ev, symObjAddr: 0x1CBF0, symBinAddr: 0x100020A70, symSize: 0x30 }
  - { offsetInCU: 0x3AF3A, offset: 0x3AF3A, size: 0x8, addend: 0x0, symName: __ZNSt3__16__treeINS_12__value_typeINS_12basic_stringIcNS_11char_traitsIcEENS_9allocatorIcEEEES7_EENS_19__map_value_compareIS7_S8_NS_4lessIS7_EELb1EEENS5_IS8_EEE7destroyEPNS_11__tree_nodeIS8_PvEE, symObjAddr: 0x1CC20, symBinAddr: 0x100020AA0, symSize: 0xA0 }
  - { offsetInCU: 0x3AF86, offset: 0x3AF86, size: 0x8, addend: 0x0, symName: __ZNKSt3__16__treeINS_12__value_typeINS_12basic_stringIcNS_11char_traitsIcEENS_9allocatorIcEEEEiEENS_19__map_value_compareIS7_S8_NS_4lessIS7_EELb1EEENS5_IS8_EEE14__count_uniqueIS7_EEmRKT_, symObjAddr: 0x1CD50, symBinAddr: 0x100020BD0, symSize: 0xD0 }
  - { offsetInCU: 0x3AFD5, offset: 0x3AFD5, size: 0x8, addend: 0x0, symName: __ZNKSt3__16__treeINS_12__value_typeINS_12basic_stringIcNS_11char_traitsIcEENS_9allocatorIcEEEEiEENS_19__map_value_compareIS7_S8_NS_4lessIS7_EELb1EEENS5_IS8_EEE10value_compB7v160006Ev, symObjAddr: 0x1CE20, symBinAddr: 0x100020CA0, symSize: 0x20 }
  - { offsetInCU: 0x3AFFB, offset: 0x3AFFB, size: 0x8, addend: 0x0, symName: __ZNKSt3__117__compressed_pairImNS_19__map_value_compareINS_12basic_stringIcNS_11char_traitsIcEENS_9allocatorIcEEEENS_12__value_typeIS7_iEENS_4lessIS7_EELb1EEEE6secondB7v160006Ev, symObjAddr: 0x1CE40, symBinAddr: 0x100020CC0, symSize: 0x20 }
  - { offsetInCU: 0x3B021, offset: 0x3B021, size: 0x8, addend: 0x0, symName: __ZNKSt3__122__compressed_pair_elemINS_19__map_value_compareINS_12basic_stringIcNS_11char_traitsIcEENS_9allocatorIcEEEENS_12__value_typeIS7_iEENS_4lessIS7_EELb1EEELi1ELb1EE5__getB7v160006Ev, symObjAddr: 0x1CE60, symBinAddr: 0x100020CE0, symSize: 0x10 }
  - { offsetInCU: 0x3B047, offset: 0x3B047, size: 0x8, addend: 0x0, symName: __ZNSt3__110__list_impINS_12basic_stringIcNS_11char_traitsIcEENS_9allocatorIcEEEENS4_IS6_EEE5beginB7v160006Ev, symObjAddr: 0x1CE70, symBinAddr: 0x100020CF0, symSize: 0x30 }
  - { offsetInCU: 0x3B06D, offset: 0x3B06D, size: 0x8, addend: 0x0, symName: __ZNSt3__115__list_iteratorINS_12basic_stringIcNS_11char_traitsIcEENS_9allocatorIcEEEEPvEC1B7v160006EPNS_16__list_node_baseIS6_S7_EEPKv, symObjAddr: 0x1CEA0, symBinAddr: 0x100020D20, symSize: 0x30 }
  - { offsetInCU: 0x3B0B5, offset: 0x3B0B5, size: 0x8, addend: 0x0, symName: __ZNSt3__115__list_iteratorINS_12basic_stringIcNS_11char_traitsIcEENS_9allocatorIcEEEEPvEC2B7v160006EPNS_16__list_node_baseIS6_S7_EEPKv, symObjAddr: 0x1CED0, symBinAddr: 0x100020D50, symSize: 0x20 }
  - { offsetInCU: 0x3B0FD, offset: 0x3B0FD, size: 0x8, addend: 0x0, symName: __ZNSt3__110__list_impINS_12basic_stringIcNS_11char_traitsIcEENS_9allocatorIcEEEENS4_IS6_EEE3endB7v160006Ev, symObjAddr: 0x1CEF0, symBinAddr: 0x100020D70, symSize: 0x40 }
  - { offsetInCU: 0x3B123, offset: 0x3B123, size: 0x8, addend: 0x0, symName: __ZNSt3__16__treeINS_12__value_typeINS_12basic_stringIcNS_11char_traitsIcEENS_9allocatorIcEEEEiEENS_19__map_value_compareIS7_S8_NS_4lessIS7_EELb1EEENS5_IS8_EEE5beginB7v160006Ev, symObjAddr: 0x1CF60, symBinAddr: 0x100020DE0, symSize: 0x30 }
  - { offsetInCU: 0x3B149, offset: 0x3B149, size: 0x8, addend: 0x0, symName: __ZNSt3__114__map_iteratorINS_15__tree_iteratorINS_12__value_typeINS_12basic_stringIcNS_11char_traitsIcEENS_9allocatorIcEEEEiEEPNS_11__tree_nodeIS9_PvEElEEEC1B7v160006ESE_, symObjAddr: 0x1CF90, symBinAddr: 0x100020E10, symSize: 0x30 }
  - { offsetInCU: 0x3B182, offset: 0x3B182, size: 0x8, addend: 0x0, symName: __ZNSt3__115__tree_iteratorINS_12__value_typeINS_12basic_stringIcNS_11char_traitsIcEENS_9allocatorIcEEEEiEEPNS_11__tree_nodeIS8_PvEElEC1B7v160006EPNS_15__tree_end_nodeIPNS_16__tree_node_baseISA_EEEE, symObjAddr: 0x1CFC0, symBinAddr: 0x100020E40, symSize: 0x30 }
  - { offsetInCU: 0x3B1BB, offset: 0x3B1BB, size: 0x8, addend: 0x0, symName: __ZNSt3__115__tree_iteratorINS_12__value_typeINS_12basic_stringIcNS_11char_traitsIcEENS_9allocatorIcEEEEiEEPNS_11__tree_nodeIS8_PvEElEC2B7v160006EPNS_15__tree_end_nodeIPNS_16__tree_node_baseISA_EEEE, symObjAddr: 0x1CFF0, symBinAddr: 0x100020E70, symSize: 0x20 }
  - { offsetInCU: 0x3B1F4, offset: 0x3B1F4, size: 0x8, addend: 0x0, symName: __ZNSt3__114__map_iteratorINS_15__tree_iteratorINS_12__value_typeINS_12basic_stringIcNS_11char_traitsIcEENS_9allocatorIcEEEEiEEPNS_11__tree_nodeIS9_PvEElEEEC2B7v160006ESE_, symObjAddr: 0x1D010, symBinAddr: 0x100020E90, symSize: 0x20 }
  - { offsetInCU: 0x3B22D, offset: 0x3B22D, size: 0x8, addend: 0x0, symName: __ZNSt3__16__treeINS_12__value_typeINS_12basic_stringIcNS_11char_traitsIcEENS_9allocatorIcEEEEiEENS_19__map_value_compareIS7_S8_NS_4lessIS7_EELb1EEENS5_IS8_EEE3endB7v160006Ev, symObjAddr: 0x1D030, symBinAddr: 0x100020EB0, symSize: 0x30 }
  - { offsetInCU: 0x3B253, offset: 0x3B253, size: 0x8, addend: 0x0, symName: __ZNSt3__115__tree_iteratorINS_12__value_typeINS_12basic_stringIcNS_11char_traitsIcEENS_9allocatorIcEEEEiEEPNS_11__tree_nodeIS8_PvEElEppB7v160006Ev, symObjAddr: 0x1D0C0, symBinAddr: 0x100020F40, symSize: 0x2C }
...
